
sinobit-project-template:     file format elf32-littlearm


Disassembly of section .text:

00000000 <__Vectors>:
       0:	20004000 	.word	0x20004000
       4:	00000851 	.word	0x00000851
       8:	0000088d 	.word	0x0000088d
       c:	0000088f 	.word	0x0000088f
	...
      2c:	00000891 	.word	0x00000891
	...
      38:	00000893 	.word	0x00000893
      3c:	00000895 	.word	0x00000895
      40:	00000897 	.word	0x00000897
      44:	00000897 	.word	0x00000897
      48:	000007d1 	.word	0x000007d1
      4c:	00000897 	.word	0x00000897
      50:	00000897 	.word	0x00000897
      54:	00000000 	.word	0x00000000
      58:	00000897 	.word	0x00000897
      5c:	00000897 	.word	0x00000897
      60:	00000897 	.word	0x00000897
      64:	00000579 	.word	0x00000579
      68:	00000897 	.word	0x00000897
      6c:	00000897 	.word	0x00000897
      70:	00000897 	.word	0x00000897
      74:	00000897 	.word	0x00000897
      78:	00000897 	.word	0x00000897
      7c:	00000897 	.word	0x00000897
      80:	00000897 	.word	0x00000897
      84:	00000897 	.word	0x00000897
      88:	00000897 	.word	0x00000897
      8c:	00000897 	.word	0x00000897
      90:	00000897 	.word	0x00000897
      94:	00000897 	.word	0x00000897
      98:	00000897 	.word	0x00000897
      9c:	00000897 	.word	0x00000897
      a0:	00000897 	.word	0x00000897
      a4:	00000897 	.word	0x00000897
	...

000000c0 <__do_global_dtors_aux>:
      c0:	b510      	push	{r4, lr}
      c2:	4c06      	ldr	r4, [pc, #24]	; (dc <__do_global_dtors_aux+0x1c>)
      c4:	7823      	ldrb	r3, [r4, #0]
      c6:	2b00      	cmp	r3, #0
      c8:	d107      	bne.n	da <__do_global_dtors_aux+0x1a>
      ca:	4b05      	ldr	r3, [pc, #20]	; (e0 <__do_global_dtors_aux+0x20>)
      cc:	2b00      	cmp	r3, #0
      ce:	d002      	beq.n	d6 <__do_global_dtors_aux+0x16>
      d0:	4804      	ldr	r0, [pc, #16]	; (e4 <__do_global_dtors_aux+0x24>)
      d2:	e000      	b.n	d6 <__do_global_dtors_aux+0x16>
      d4:	bf00      	nop
      d6:	2301      	movs	r3, #1
      d8:	7023      	strb	r3, [r4, #0]
      da:	bd10      	pop	{r4, pc}
      dc:	20000074 	.word	0x20000074
      e0:	00000000 	.word	0x00000000
      e4:	0002a92c 	.word	0x0002a92c

000000e8 <frame_dummy>:
      e8:	4b04      	ldr	r3, [pc, #16]	; (fc <frame_dummy+0x14>)
      ea:	b510      	push	{r4, lr}
      ec:	2b00      	cmp	r3, #0
      ee:	d003      	beq.n	f8 <frame_dummy+0x10>
      f0:	4903      	ldr	r1, [pc, #12]	; (100 <frame_dummy+0x18>)
      f2:	4804      	ldr	r0, [pc, #16]	; (104 <frame_dummy+0x1c>)
      f4:	e000      	b.n	f8 <frame_dummy+0x10>
      f6:	bf00      	nop
      f8:	bd10      	pop	{r4, pc}
      fa:	46c0      	nop			; (mov r8, r8)
      fc:	00000000 	.word	0x00000000
     100:	20000078 	.word	0x20000078
     104:	0002a92c 	.word	0x0002a92c

00000108 <_mainCRTStartup>:
     108:	4b16      	ldr	r3, [pc, #88]	; (164 <_mainCRTStartup+0x5c>)
     10a:	2b00      	cmp	r3, #0
     10c:	d100      	bne.n	110 <_mainCRTStartup+0x8>
     10e:	4b14      	ldr	r3, [pc, #80]	; (160 <_mainCRTStartup+0x58>)
     110:	469d      	mov	sp, r3
     112:	2240      	movs	r2, #64	; 0x40
     114:	0292      	lsls	r2, r2, #10
     116:	1a9a      	subs	r2, r3, r2
     118:	4692      	mov	sl, r2
     11a:	2100      	movs	r1, #0
     11c:	468b      	mov	fp, r1
     11e:	460f      	mov	r7, r1
     120:	4813      	ldr	r0, [pc, #76]	; (170 <_mainCRTStartup+0x68>)
     122:	4a14      	ldr	r2, [pc, #80]	; (174 <_mainCRTStartup+0x6c>)
     124:	1a12      	subs	r2, r2, r0
     126:	f000 fedf 	bl	ee8 <memset>
     12a:	4b0f      	ldr	r3, [pc, #60]	; (168 <_mainCRTStartup+0x60>)
     12c:	2b00      	cmp	r3, #0
     12e:	d000      	beq.n	132 <_mainCRTStartup+0x2a>
     130:	4798      	blx	r3
     132:	4b0e      	ldr	r3, [pc, #56]	; (16c <_mainCRTStartup+0x64>)
     134:	2b00      	cmp	r3, #0
     136:	d000      	beq.n	13a <_mainCRTStartup+0x32>
     138:	4798      	blx	r3
     13a:	2000      	movs	r0, #0
     13c:	2100      	movs	r1, #0
     13e:	0004      	movs	r4, r0
     140:	000d      	movs	r5, r1
     142:	480d      	ldr	r0, [pc, #52]	; (178 <_mainCRTStartup+0x70>)
     144:	2800      	cmp	r0, #0
     146:	d002      	beq.n	14e <_mainCRTStartup+0x46>
     148:	480c      	ldr	r0, [pc, #48]	; (17c <_mainCRTStartup+0x74>)
     14a:	e000      	b.n	14e <_mainCRTStartup+0x46>
     14c:	bf00      	nop
     14e:	f000 fcc9 	bl	ae4 <__libc_init_array>
     152:	0020      	movs	r0, r4
     154:	0029      	movs	r1, r5
     156:	f000 fdf1 	bl	d3c <__wrap_main>
     15a:	f000 fcad 	bl	ab8 <exit>
     15e:	46c0      	nop			; (mov r8, r8)
     160:	00080000 	.word	0x00080000
     164:	20004000 	.word	0x20004000
	...
     170:	20000074 	.word	0x20000074
     174:	20000114 	.word	0x20000114
	...

00000180 <_Z13HT1632C_Writehh>:
static unsigned char com[12] = {
  0x00, 0x04, 0x08, 0x0C, 0x10, 0x14, 0x18, 0x1C, 0x20, 0x24, 0x28, 0x2C
};

void HT1632C_Write(unsigned char Data, unsigned char cnt)      //MCU writes the data to ht1632c, and the high position is in front
{
     180:	b5f0      	push	{r4, r5, r6, r7, lr}
inline void WRon(void) { gpiobase->OUTCLR= 1<<HT_WR; }
     182:	22a0      	movs	r2, #160	; 0xa0
     184:	2680      	movs	r6, #128	; 0x80
     186:	25a1      	movs	r5, #161	; 0xa1
{
     188:	468c      	mov	ip, r1
  unsigned char i;
  for(i=0; i<cnt; i++) {
     18a:	2300      	movs	r3, #0
inline void WRon(void) { gpiobase->OUTCLR= 1<<HT_WR; }
     18c:	05d2      	lsls	r2, r2, #23
     18e:	0436      	lsls	r6, r6, #16
     190:	00ed      	lsls	r5, r5, #3
  for(i=0; i<cnt; i++) {
     192:	4563      	cmp	r3, ip
     194:	d00f      	beq.n	1b6 <_Z13HT1632C_Writehh+0x36>
     196:	2180      	movs	r1, #128	; 0x80
inline void WRon(void) { gpiobase->OUTCLR= 1<<HT_WR; }
     198:	4f07      	ldr	r7, [pc, #28]	; (1b8 <_Z13HT1632C_Writehh+0x38>)
    WRon();
    if(Data&0x80) {
     19a:	b244      	sxtb	r4, r0
inline void WRon(void) { gpiobase->OUTCLR= 1<<HT_WR; }
     19c:	51d6      	str	r6, [r2, r7]
     19e:	0389      	lsls	r1, r1, #14
    if(Data&0x80) {
     1a0:	2c00      	cmp	r4, #0
     1a2:	da06      	bge.n	1b2 <_Z13HT1632C_Writehh+0x32>
inline void DATA1(void) { gpiobase->OUTSET= 1<<HT_DATA; }
     1a4:	5151      	str	r1, [r2, r5]
      DATA1();
    } else {
      DATA0();
    }
    Data<<=1;
     1a6:	0040      	lsls	r0, r0, #1
  for(i=0; i<cnt; i++) {
     1a8:	3301      	adds	r3, #1
    Data<<=1;
     1aa:	b2c0      	uxtb	r0, r0
inline void WRoff(void) { gpiobase->OUTSET= 1<<HT_WR; }
     1ac:	5156      	str	r6, [r2, r5]
  for(i=0; i<cnt; i++) {
     1ae:	b2db      	uxtb	r3, r3
     1b0:	e7ef      	b.n	192 <_Z13HT1632C_Writehh+0x12>
inline void DATA0(void) { gpiobase->OUTCLR= 1<<HT_DATA; }
     1b2:	51d1      	str	r1, [r2, r7]
     1b4:	e7f7      	b.n	1a6 <_Z13HT1632C_Writehh+0x26>
    WRoff();
  }
}
     1b6:	bdf0      	pop	{r4, r5, r6, r7, pc}
     1b8:	0000050c 	.word	0x0000050c

000001bc <_Z17HT1632C_Write_CMDh>:

void HT1632C_Write_CMD(unsigned char cmd) //MCU writes commands to ht1632c
{
     1bc:	b570      	push	{r4, r5, r6, lr}
inline void WRdata(void) { gpiobase->DIRSET= 1<<HT_DATA; }
     1be:	23a3      	movs	r3, #163	; 0xa3
     1c0:	24a0      	movs	r4, #160	; 0xa0
     1c2:	2280      	movs	r2, #128	; 0x80
inline void CSon(void) { gpiobase->OUTCLR= 1<<HT_CS; }
     1c4:	2580      	movs	r5, #128	; 0x80
{
     1c6:	0006      	movs	r6, r0
inline void WRdata(void) { gpiobase->DIRSET= 1<<HT_DATA; }
     1c8:	05e4      	lsls	r4, r4, #23
     1ca:	0392      	lsls	r2, r2, #14
     1cc:	00db      	lsls	r3, r3, #3
     1ce:	50e2      	str	r2, [r4, r3]
inline void CSon(void) { gpiobase->OUTCLR= 1<<HT_CS; }
     1d0:	4b07      	ldr	r3, [pc, #28]	; (1f0 <_Z17HT1632C_Write_CMDh+0x34>)
     1d2:	026d      	lsls	r5, r5, #9
     1d4:	50e5      	str	r5, [r4, r3]
  WRdata();
  CSon();
  HT1632C_Write(0x80,3);
     1d6:	2103      	movs	r1, #3
     1d8:	2080      	movs	r0, #128	; 0x80
     1da:	f7ff ffd1 	bl	180 <_Z13HT1632C_Writehh>
  HT1632C_Write(cmd,9);
     1de:	0030      	movs	r0, r6
     1e0:	2109      	movs	r1, #9
     1e2:	f7ff ffcd 	bl	180 <_Z13HT1632C_Writehh>
inline void CSoff(void) { gpiobase->OUTSET= 1<<HT_CS; }
     1e6:	23a1      	movs	r3, #161	; 0xa1
     1e8:	00db      	lsls	r3, r3, #3
     1ea:	50e5      	str	r5, [r4, r3]
  CSoff();
}
     1ec:	bd70      	pop	{r4, r5, r6, pc}
     1ee:	46c0      	nop			; (mov r8, r8)
     1f0:	0000050c 	.word	0x0000050c

000001f4 <_Z17HT1632C_Write_DAThPKth>:

void HT1632C_Write_DAT(unsigned char Addr, const uint16_t data[], unsigned char num)
{
     1f4:	b5f7      	push	{r0, r1, r2, r4, r5, r6, r7, lr}
inline void WRdata(void) { gpiobase->DIRSET= 1<<HT_DATA; }
     1f6:	23a3      	movs	r3, #163	; 0xa3
{
     1f8:	9201      	str	r2, [sp, #4]
inline void WRdata(void) { gpiobase->DIRSET= 1<<HT_DATA; }
     1fa:	24a0      	movs	r4, #160	; 0xa0
     1fc:	2280      	movs	r2, #128	; 0x80
     1fe:	05e4      	lsls	r4, r4, #23
     200:	0392      	lsls	r2, r2, #14
     202:	00db      	lsls	r3, r3, #3
     204:	50e2      	str	r2, [r4, r3]
inline void CSon(void) { gpiobase->OUTCLR= 1<<HT_CS; }
     206:	2380      	movs	r3, #128	; 0x80
{
     208:	0006      	movs	r6, r0
     20a:	000f      	movs	r7, r1
inline void CSon(void) { gpiobase->OUTCLR= 1<<HT_CS; }
     20c:	4d16      	ldr	r5, [pc, #88]	; (268 <_Z17HT1632C_Write_DAThPKth+0x74>)
     20e:	025b      	lsls	r3, r3, #9
     210:	5163      	str	r3, [r4, r5]
  WRdata();
  CSon();
  HT1632C_Write(0xa0,3);
     212:	2103      	movs	r1, #3
     214:	20a0      	movs	r0, #160	; 0xa0
  HT1632C_Write(Addr<<1,7);
     216:	0076      	lsls	r6, r6, #1
  HT1632C_Write(0xa0,3);
     218:	f7ff ffb2 	bl	180 <_Z13HT1632C_Writehh>
  HT1632C_Write(Addr<<1,7);
     21c:	b2f0      	uxtb	r0, r6
     21e:	2107      	movs	r1, #7
     220:	f7ff ffae 	bl	180 <_Z13HT1632C_Writehh>

  uint16_t d= data[num];
     224:	9b01      	ldr	r3, [sp, #4]
     226:	21a1      	movs	r1, #161	; 0xa1
     228:	005b      	lsls	r3, r3, #1
     22a:	5bda      	ldrh	r2, [r3, r7]
inline void WRon(void) { gpiobase->OUTCLR= 1<<HT_WR; }
     22c:	2780      	movs	r7, #128	; 0x80
  uint16_t d= data[num];
     22e:	230c      	movs	r3, #12
     230:	0026      	movs	r6, r4
inline void WRon(void) { gpiobase->OUTCLR= 1<<HT_WR; }
     232:	043f      	lsls	r7, r7, #16
     234:	00c9      	lsls	r1, r1, #3
  for(unsigned char i=0; i<12; i++) {
    WRon();
    if(d&0x8000) {
     236:	b210      	sxth	r0, r2
inline void WRon(void) { gpiobase->OUTCLR= 1<<HT_WR; }
     238:	5167      	str	r7, [r4, r5]
    if(d&0x8000) {
     23a:	9001      	str	r0, [sp, #4]
     23c:	2080      	movs	r0, #128	; 0x80
     23e:	0380      	lsls	r0, r0, #14
     240:	4684      	mov	ip, r0
     242:	9801      	ldr	r0, [sp, #4]
     244:	2800      	cmp	r0, #0
     246:	da0c      	bge.n	262 <_Z17HT1632C_Write_DAThPKth+0x6e>
inline void DATA1(void) { gpiobase->OUTSET= 1<<HT_DATA; }
     248:	4660      	mov	r0, ip
     24a:	5060      	str	r0, [r4, r1]
     24c:	3b01      	subs	r3, #1
      DATA1();
    } else {
      DATA0();
    }
    d<<=1;
     24e:	0052      	lsls	r2, r2, #1
     250:	b2db      	uxtb	r3, r3
     252:	b292      	uxth	r2, r2
inline void WRoff(void) { gpiobase->OUTSET= 1<<HT_WR; }
     254:	5077      	str	r7, [r6, r1]
  for(unsigned char i=0; i<12; i++) {
     256:	2b00      	cmp	r3, #0
     258:	d1ed      	bne.n	236 <_Z17HT1632C_Write_DAThPKth+0x42>
inline void CSoff(void) { gpiobase->OUTSET= 1<<HT_CS; }
     25a:	2380      	movs	r3, #128	; 0x80
     25c:	025b      	lsls	r3, r3, #9
     25e:	5073      	str	r3, [r6, r1]
    WRoff();
  }
  CSoff();
}
     260:	bdf7      	pop	{r0, r1, r2, r4, r5, r6, r7, pc}
inline void DATA0(void) { gpiobase->OUTCLR= 1<<HT_DATA; }
     262:	4660      	mov	r0, ip
     264:	5160      	str	r0, [r4, r5]
     266:	e7f1      	b.n	24c <_Z17HT1632C_Write_DAThPKth+0x58>
     268:	0000050c 	.word	0x0000050c

0000026c <_Z11HT1632C_clrv>:

void HT1632C_clr(void)  //Clear function
{
     26c:	b570      	push	{r4, r5, r6, lr}
inline void WRdata(void) { gpiobase->DIRSET= 1<<HT_DATA; }
     26e:	23a3      	movs	r3, #163	; 0xa3
     270:	25a0      	movs	r5, #160	; 0xa0
     272:	2280      	movs	r2, #128	; 0x80
     274:	05ed      	lsls	r5, r5, #23
     276:	00db      	lsls	r3, r3, #3
     278:	0392      	lsls	r2, r2, #14
     27a:	50ea      	str	r2, [r5, r3]
inline void CSon(void) { gpiobase->OUTCLR= 1<<HT_CS; }
     27c:	2280      	movs	r2, #128	; 0x80
     27e:	4b0d      	ldr	r3, [pc, #52]	; (2b4 <_Z11HT1632C_clrv+0x48>)
     280:	0252      	lsls	r2, r2, #9
     282:	50ea      	str	r2, [r5, r3]
  unsigned char i;
  WRdata();
  CSon();
  HT1632C_Write(0xa0,3);
     284:	2103      	movs	r1, #3
     286:	20a0      	movs	r0, #160	; 0xa0
     288:	f7ff ff7a 	bl	180 <_Z13HT1632C_Writehh>
  HT1632C_Write(0x00,7);
     28c:	2107      	movs	r1, #7
     28e:	2000      	movs	r0, #0
     290:	f7ff ff76 	bl	180 <_Z13HT1632C_Writehh>
     294:	2430      	movs	r4, #48	; 0x30
     296:	3c01      	subs	r4, #1
  for(i=0; i<48; i++) {
    HT1632C_Write(0,8);
     298:	2108      	movs	r1, #8
     29a:	2000      	movs	r0, #0
     29c:	b2e4      	uxtb	r4, r4
     29e:	f7ff ff6f 	bl	180 <_Z13HT1632C_Writehh>
  for(i=0; i<48; i++) {
     2a2:	2c00      	cmp	r4, #0
     2a4:	d1f7      	bne.n	296 <_Z11HT1632C_clrv+0x2a>
inline void CSoff(void) { gpiobase->OUTSET= 1<<HT_CS; }
     2a6:	23a1      	movs	r3, #161	; 0xa1
     2a8:	2280      	movs	r2, #128	; 0x80
     2aa:	00db      	lsls	r3, r3, #3
     2ac:	0252      	lsls	r2, r2, #9
     2ae:	50ea      	str	r2, [r5, r3]
  }
  CSoff();
}
     2b0:	bd70      	pop	{r4, r5, r6, pc}
     2b2:	46c0      	nop			; (mov r8, r8)
     2b4:	0000050c 	.word	0x0000050c

000002b8 <_Z12HT1632C_Initv>:

void HT1632C_Init(void) //HT1632C Init Function
{
  gpiobase->OUTSET= 0x00E10000;
     2b8:	23a0      	movs	r3, #160	; 0xa0
     2ba:	22a1      	movs	r2, #161	; 0xa1
     2bc:	21e1      	movs	r1, #225	; 0xe1
  gpiobase->PIN_CNF[HT_CS]= 0x1;
     2be:	20e8      	movs	r0, #232	; 0xe8
{
     2c0:	b510      	push	{r4, lr}
  gpiobase->PIN_CNF[HT_CS]= 0x1;
     2c2:	2401      	movs	r4, #1
  gpiobase->OUTSET= 0x00E10000;
     2c4:	05db      	lsls	r3, r3, #23
     2c6:	00d2      	lsls	r2, r2, #3
     2c8:	0409      	lsls	r1, r1, #16
  gpiobase->PIN_CNF[HT_CS]= 0x1;
     2ca:	00c0      	lsls	r0, r0, #3
  gpiobase->OUTSET= 0x00E10000;
     2cc:	5099      	str	r1, [r3, r2]
  gpiobase->PIN_CNF[HT_CS]= 0x1;
     2ce:	501c      	str	r4, [r3, r0]
  gpiobase->PIN_CNF[HT_RD]= 0x1;
     2d0:	3018      	adds	r0, #24
     2d2:	501c      	str	r4, [r3, r0]
  gpiobase->PIN_CNF[HT_WR]= 0x1;
     2d4:	480d      	ldr	r0, [pc, #52]	; (30c <_Z12HT1632C_Initv+0x54>)
     2d6:	501c      	str	r4, [r3, r0]
  gpiobase->PIN_CNF[HT_DATA]= 0x1;
     2d8:	480d      	ldr	r0, [pc, #52]	; (310 <_Z12HT1632C_Initv+0x58>)
     2da:	501c      	str	r4, [r3, r0]
  gpiobase->OUTSET= 0x00E10000;
     2dc:	5099      	str	r1, [r3, r2]
  HT1632C_Write_CMD(SYS_DIS);         //Close the HT1632C internal clock
     2de:	2000      	movs	r0, #0
     2e0:	f7ff ff6c 	bl	1bc <_Z17HT1632C_Write_CMDh>
  HT1632C_Write_CMD(COM_OPTION);      //Select HT1632C work mode
     2e4:	2024      	movs	r0, #36	; 0x24
     2e6:	f7ff ff69 	bl	1bc <_Z17HT1632C_Write_CMDh>
  HT1632C_Write_CMD(RC_MASTER_MODE);  //Select internal clock
     2ea:	2018      	movs	r0, #24
     2ec:	f7ff ff66 	bl	1bc <_Z17HT1632C_Write_CMDh>
  HT1632C_Write_CMD(SYS_EN);          //Open the HT1632C internal clock
     2f0:	0020      	movs	r0, r4
     2f2:	f7ff ff63 	bl	1bc <_Z17HT1632C_Write_CMDh>
  HT1632C_Write_CMD(PWM_DUTY);        //Init the PWM Brightness
     2f6:	20af      	movs	r0, #175	; 0xaf
     2f8:	f7ff ff60 	bl	1bc <_Z17HT1632C_Write_CMDh>
  HT1632C_Write_CMD(BLINK_OFF);       //Close blink
     2fc:	2008      	movs	r0, #8
     2fe:	f7ff ff5d 	bl	1bc <_Z17HT1632C_Write_CMDh>
  HT1632C_Write_CMD(LED_ON);          // Turn on LED display
     302:	2003      	movs	r0, #3
     304:	f7ff ff5a 	bl	1bc <_Z17HT1632C_Write_CMDh>
}
     308:	bd10      	pop	{r4, pc}
     30a:	46c0      	nop			; (mov r8, r8)
     30c:	0000075c 	.word	0x0000075c
     310:	00000754 	.word	0x00000754

00000314 <_Z17HT1632C_Read_DATAh>:

uint16_t HT1632C_Read_DATA(unsigned char Addr)
{
     314:	b5f8      	push	{r3, r4, r5, r6, r7, lr}
inline void WRdata(void) { gpiobase->DIRSET= 1<<HT_DATA; }
     316:	24a0      	movs	r4, #160	; 0xa0
     318:	2780      	movs	r7, #128	; 0x80
     31a:	23a3      	movs	r3, #163	; 0xa3
     31c:	05e4      	lsls	r4, r4, #23
     31e:	03bf      	lsls	r7, r7, #14
     320:	00db      	lsls	r3, r3, #3
     322:	50e7      	str	r7, [r4, r3]
inline void CSon(void) { gpiobase->OUTCLR= 1<<HT_CS; }
     324:	2380      	movs	r3, #128	; 0x80
{
     326:	0006      	movs	r6, r0
inline void CSon(void) { gpiobase->OUTCLR= 1<<HT_CS; }
     328:	4d13      	ldr	r5, [pc, #76]	; (378 <_Z17HT1632C_Read_DATAh+0x64>)
     32a:	025b      	lsls	r3, r3, #9
     32c:	5163      	str	r3, [r4, r5]
  WRdata();
  CSon();
  HT1632C_Write(0xc0,3);
     32e:	2103      	movs	r1, #3
     330:	20c0      	movs	r0, #192	; 0xc0
  HT1632C_Write(Addr<<1,7);
     332:	0076      	lsls	r6, r6, #1
  HT1632C_Write(0xc0,3);
     334:	f7ff ff24 	bl	180 <_Z13HT1632C_Writehh>
  HT1632C_Write(Addr<<1,7);
     338:	b2f0      	uxtb	r0, r6
     33a:	2107      	movs	r1, #7
     33c:	f7ff ff20 	bl	180 <_Z13HT1632C_Writehh>
inline void RDdata(void) { gpiobase->DIRCLR= 1<<HT_DATA; }
     340:	4b0e      	ldr	r3, [pc, #56]	; (37c <_Z17HT1632C_Read_DATAh+0x68>)
inline void RDon(void) { gpiobase->OUTCLR= 1<<HT_RD; }
     342:	2280      	movs	r2, #128	; 0x80
  RDdata();
  uint16_t datum= 0;
  for(unsigned char i=0; i<12; i++) {
    RDon();
    datum<<=1;
    datum|= (gpiobase->IN & (1<<HT_DATA))>>(HT_DATA-4);
     344:	21a2      	movs	r1, #162	; 0xa2
inline void RDdata(void) { gpiobase->DIRCLR= 1<<HT_DATA; }
     346:	50e7      	str	r7, [r4, r3]
  uint16_t datum= 0;
     348:	2000      	movs	r0, #0
inline void RDdata(void) { gpiobase->DIRCLR= 1<<HT_DATA; }
     34a:	230c      	movs	r3, #12
inline void RDon(void) { gpiobase->OUTCLR= 1<<HT_RD; }
     34c:	03d2      	lsls	r2, r2, #15
    datum|= (gpiobase->IN & (1<<HT_DATA))>>(HT_DATA-4);
     34e:	00c9      	lsls	r1, r1, #3
     350:	2710      	movs	r7, #16
inline void RDon(void) { gpiobase->OUTCLR= 1<<HT_RD; }
     352:	5162      	str	r2, [r4, r5]
    datum<<=1;
     354:	0040      	lsls	r0, r0, #1
     356:	b286      	uxth	r6, r0
    datum|= (gpiobase->IN & (1<<HT_DATA))>>(HT_DATA-4);
     358:	5860      	ldr	r0, [r4, r1]
     35a:	3b01      	subs	r3, #1
     35c:	0c40      	lsrs	r0, r0, #17
     35e:	4038      	ands	r0, r7
     360:	4330      	orrs	r0, r6
inline void RDoff(void) { gpiobase->OUTSET= 1<<HT_RD; }
     362:	26a1      	movs	r6, #161	; 0xa1
     364:	b2db      	uxtb	r3, r3
     366:	00f6      	lsls	r6, r6, #3
     368:	51a2      	str	r2, [r4, r6]
  for(unsigned char i=0; i<12; i++) {
     36a:	2b00      	cmp	r3, #0
     36c:	d1f0      	bne.n	350 <_Z17HT1632C_Read_DATAh+0x3c>
inline void CSoff(void) { gpiobase->OUTSET= 1<<HT_CS; }
     36e:	2380      	movs	r3, #128	; 0x80
     370:	025b      	lsls	r3, r3, #9
     372:	51a3      	str	r3, [r4, r6]
    RDoff();
  }
  CSoff();
  return datum;
}
     374:	bdf8      	pop	{r3, r4, r5, r6, r7, pc}
     376:	46c0      	nop			; (mov r8, r8)
     378:	0000050c 	.word	0x0000050c
     37c:	0000051c 	.word	0x0000051c

00000380 <_Z21HT1632C_Write_PatternPKt>:

void HT1632C_Write_Pattern(const uint16_t pattern[])
{
     380:	b570      	push	{r4, r5, r6, lr}
     382:	0005      	movs	r5, r0
  for (int col=0; col<12; col++) {
     384:	2400      	movs	r4, #0
    HT1632C_Write_DAT(com[col],pattern,col);
     386:	4b05      	ldr	r3, [pc, #20]	; (39c <_Z21HT1632C_Write_PatternPKt+0x1c>)
     388:	b2e2      	uxtb	r2, r4
     38a:	5ce0      	ldrb	r0, [r4, r3]
     38c:	0029      	movs	r1, r5
  for (int col=0; col<12; col++) {
     38e:	3401      	adds	r4, #1
    HT1632C_Write_DAT(com[col],pattern,col);
     390:	f7ff ff30 	bl	1f4 <_Z17HT1632C_Write_DAThPKth>
  for (int col=0; col<12; col++) {
     394:	2c0c      	cmp	r4, #12
     396:	d1f6      	bne.n	386 <_Z21HT1632C_Write_PatternPKt+0x6>
  }
}
     398:	bd70      	pop	{r4, r5, r6, pc}
     39a:	46c0      	nop			; (mov r8, r8)
     39c:	0000103c 	.word	0x0000103c

000003a0 <_Z20HT1632C_Read_PatternPt>:

void HT1632C_Read_Pattern(uint16_t pattern[])
{
     3a0:	b570      	push	{r4, r5, r6, lr}
     3a2:	0005      	movs	r5, r0
  for (int col=0; col<12; col++) {
     3a4:	2400      	movs	r4, #0
    pattern[col]= HT1632C_Read_DATA(com[col]);
     3a6:	4b05      	ldr	r3, [pc, #20]	; (3bc <_Z20HT1632C_Read_PatternPt+0x1c>)
     3a8:	5ce0      	ldrb	r0, [r4, r3]
     3aa:	f7ff ffb3 	bl	314 <_Z17HT1632C_Read_DATAh>
     3ae:	0063      	lsls	r3, r4, #1
  for (int col=0; col<12; col++) {
     3b0:	3401      	adds	r4, #1
    pattern[col]= HT1632C_Read_DATA(com[col]);
     3b2:	52e8      	strh	r0, [r5, r3]
  for (int col=0; col<12; col++) {
     3b4:	2c0c      	cmp	r4, #12
     3b6:	d1f6      	bne.n	3a6 <_Z20HT1632C_Read_PatternPt+0x6>
  }
}
     3b8:	bd70      	pop	{r4, r5, r6, pc}
     3ba:	46c0      	nop			; (mov r8, r8)
     3bc:	0000103c 	.word	0x0000103c

000003c0 <_Z12printpatternPKt>:
  cereal.putreg(&NRF_RTC1->INTENCLR, "NRF_RTC1->INTENCLR\t");
  cereal.putreg(&NRF_QDEC->INTENCLR, "NRF_QDEC->INTENCLR\t");
  cereal.putreg(&NRF_LPCOMP->INTENCLR,"NRF_LPCOMP->INTENCLR\t");
}

void printpattern(const uint16_t pattern[]) {
     3c0:	b5f7      	push	{r0, r1, r2, r4, r5, r6, r7, lr}
     3c2:	0007      	movs	r7, r0
  for (int r=16; r-->4; ) {
     3c4:	2410      	movs	r4, #16
     3c6:	3c01      	subs	r4, #1
     3c8:	2c03      	cmp	r4, #3
     3ca:	d018      	beq.n	3fe <_Z12printpatternPKt+0x3e>
     3cc:	2301      	movs	r3, #1
     3ce:	40a3      	lsls	r3, r4
     3d0:	9300      	str	r3, [sp, #0]
     3d2:	003b      	movs	r3, r7
     3d4:	003d      	movs	r5, r7
     3d6:	3318      	adds	r3, #24
     3d8:	9301      	str	r3, [sp, #4]
    for (int c=0; c<12; c++) {
      cereal.puts(pattern[c]&(1<<r)? "#":".");
     3da:	882b      	ldrh	r3, [r5, #0]
     3dc:	9a00      	ldr	r2, [sp, #0]
     3de:	4908      	ldr	r1, [pc, #32]	; (400 <_Z12printpatternPKt+0x40>)
     3e0:	421a      	tst	r2, r3
     3e2:	d100      	bne.n	3e6 <_Z12printpatternPKt+0x26>
     3e4:	4907      	ldr	r1, [pc, #28]	; (404 <_Z12printpatternPKt+0x44>)
     3e6:	4e08      	ldr	r6, [pc, #32]	; (408 <_Z12printpatternPKt+0x48>)
     3e8:	3502      	adds	r5, #2
     3ea:	0030      	movs	r0, r6
     3ec:	f000 fc26 	bl	c3c <_ZN6Cereal4putsEPKc>
    for (int c=0; c<12; c++) {
     3f0:	9b01      	ldr	r3, [sp, #4]
     3f2:	429d      	cmp	r5, r3
     3f4:	d1f1      	bne.n	3da <_Z12printpatternPKt+0x1a>
    }
    cereal.crlf();
     3f6:	0030      	movs	r0, r6
     3f8:	f000 f870 	bl	4dc <_ZN6Cereal4crlfEv>
  for (int r=16; r-->4; ) {
     3fc:	e7e3      	b.n	3c6 <_Z12printpatternPKt+0x6>
  }
}
     3fe:	bdf7      	pop	{r0, r1, r2, r4, r5, r6, r7, pc}
     400:	0002a925 	.word	0x0002a925
     404:	0002a927 	.word	0x0002a927
     408:	20000090 	.word	0x20000090

0000040c <main>:

int main(void) {
  NRF_GPIO_Type *gpiobase= (NRF_GPIO_Type *)NRF_GPIO_BASE;

  cereal.baud(115200);
     40c:	21e1      	movs	r1, #225	; 0xe1
int main(void) {
     40e:	b5f8      	push	{r3, r4, r5, r6, r7, lr}
  cereal.baud(115200);
     410:	4d1e      	ldr	r5, [pc, #120]	; (48c <main+0x80>)
     412:	0249      	lsls	r1, r1, #9
     414:	0028      	movs	r0, r5
     416:	f000 fc80 	bl	d1a <_ZN4mbed10SerialBase4baudEi>
  //cereal.putreg(&gpiobase->IN, "In   ");

  //cereal.puts("Ja! Beiherhundt das oder die Flipperwaldt gersput!\r\n");
  //putIRQenables();

  unsigned int ofs=0;
     41a:	2400      	movs	r4, #0
  HT1632C_Init();
     41c:	f7ff ff4c 	bl	2b8 <_Z12HT1632C_Initv>
  HT1632C_clr();
     420:	f7ff ff24 	bl	26c <_Z11HT1632C_clrv>
 considered_harmful:
  WriteGlyph(glyph[ofs]);
     424:	2012      	movs	r0, #18
     426:	2603      	movs	r6, #3

  cereal.crlf();
  cereal.putdigits(ofs,10);
  cereal.crlf();
     428:	2700      	movs	r7, #0
  WriteGlyph(glyph[ofs]);
     42a:	4360      	muls	r0, r4
     42c:	4b18      	ldr	r3, [pc, #96]	; (490 <main+0x84>)
     42e:	4366      	muls	r6, r4
     430:	18c0      	adds	r0, r0, r3
     432:	f000 fbea 	bl	c0a <_Z10WriteGlyphPKh>
  cereal.crlf();
     436:	0028      	movs	r0, r5
     438:	f000 f850 	bl	4dc <_ZN6Cereal4crlfEv>
  cereal.putdigits(ofs,10);
     43c:	2301      	movs	r3, #1
     43e:	220a      	movs	r2, #10
     440:	0021      	movs	r1, r4
     442:	0028      	movs	r0, r5
     444:	f000 fc27 	bl	c96 <_ZN6Cereal9putdigitsEmjj>
  cereal.crlf();
     448:	0028      	movs	r0, r5
     44a:	f000 f847 	bl	4dc <_ZN6Cereal4crlfEv>
     44e:	4b11      	ldr	r3, [pc, #68]	; (494 <main+0x88>)
     450:	18f6      	adds	r6, r6, r3
  for (int b=0; b<3; cereal.puthex(charcode[ofs][b++],2));
     452:	5df1      	ldrb	r1, [r6, r7]
     454:	2202      	movs	r2, #2
     456:	0028      	movs	r0, r5
     458:	3701      	adds	r7, #1
     45a:	f000 fbfb 	bl	c54 <_ZN6Cereal6puthexEmj>
     45e:	2f03      	cmp	r7, #3
     460:	d1f7      	bne.n	452 <main+0x46>
  cereal.crlf();
     462:	0028      	movs	r0, r5
     464:	f000 f83a 	bl	4dc <_ZN6Cereal4crlfEv>
  ++ofs;
     468:	1c60      	adds	r0, r4, #1
  ofs%=8105;
     46a:	490b      	ldr	r1, [pc, #44]	; (498 <main+0x8c>)
     46c:	f000 fb10 	bl	a90 <__aeabi_uidivmod>

  HT1632C_Read_Pattern(readpattern);
     470:	4e0a      	ldr	r6, [pc, #40]	; (49c <main+0x90>)
  ofs%=8105;
     472:	000c      	movs	r4, r1
  HT1632C_Read_Pattern(readpattern);
     474:	0030      	movs	r0, r6
     476:	f7ff ff93 	bl	3a0 <_Z20HT1632C_Read_PatternPt>
  printpattern(readpattern);
     47a:	0030      	movs	r0, r6
     47c:	f7ff ffa0 	bl	3c0 <_Z12printpatternPKt>

  delay(1<<20);
     480:	2080      	movs	r0, #128	; 0x80
     482:	0340      	lsls	r0, r0, #13
     484:	f000 fbcb 	bl	c1e <_Z5delaym>

  //cereal.putreg(&gpiobase->DIR, "Dir  ");
  //cereal.putreg(&gpiobase->IN, "In   ");

  goto considered_harmful;
     488:	e7cc      	b.n	424 <main+0x18>
     48a:	46c0      	nop			; (mov r8, r8)
     48c:	20000090 	.word	0x20000090
     490:	00006f43 	.word	0x00006f43
     494:	00001048 	.word	0x00001048
     498:	00001fa9 	.word	0x00001fa9
     49c:	200000f0 	.word	0x200000f0

000004a0 <_GLOBAL__sub_I_cereal>:
}
     4a0:	b510      	push	{r4, lr}
Cereal cereal(USBTX, USBRX);
     4a2:	4c06      	ldr	r4, [pc, #24]	; (4bc <_GLOBAL__sub_I_cereal+0x1c>)
     4a4:	2219      	movs	r2, #25
     4a6:	2118      	movs	r1, #24
     4a8:	0020      	movs	r0, r4
     4aa:	f000 f80d 	bl	4c8 <_ZN6CerealC1E7PinNameS0_>
     4ae:	4a04      	ldr	r2, [pc, #16]	; (4c0 <_GLOBAL__sub_I_cereal+0x20>)
     4b0:	4904      	ldr	r1, [pc, #16]	; (4c4 <_GLOBAL__sub_I_cereal+0x24>)
     4b2:	0020      	movs	r0, r4
     4b4:	f000 fd04 	bl	ec0 <__aeabi_atexit>
}
     4b8:	bd10      	pop	{r4, pc}
     4ba:	46c0      	nop			; (mov r8, r8)
     4bc:	20000090 	.word	0x20000090
     4c0:	20000000 	.word	0x20000000
     4c4:	00000c1d 	.word	0x00000c1d

000004c8 <_ZN6CerealC1E7PinNameS0_>:
 * Licensed under the Apache License 2.0
 */

#include <cereal.h>

Cereal::Cereal(PinName tx, PinName rx) : mbed::SerialBase(tx, rx) {}
     4c8:	b510      	push	{r4, lr}
     4ca:	0004      	movs	r4, r0
     4cc:	f000 f80e 	bl	4ec <_ZN4mbed10SerialBaseC1E7PinNameS1_>
     4d0:	4b01      	ldr	r3, [pc, #4]	; (4d8 <_ZN6CerealC1E7PinNameS0_+0x10>)
     4d2:	0020      	movs	r0, r4
     4d4:	6023      	str	r3, [r4, #0]
     4d6:	bd10      	pop	{r4, pc}
     4d8:	00000f1c 	.word	0x00000f1c

000004dc <_ZN6Cereal4crlfEv>:
  puts("  ");
  puthex(*ptr,8);
  crlf();
}

void Cereal::crlf(void) {
     4dc:	b510      	push	{r4, lr}
  puts("\r\n");  
     4de:	4902      	ldr	r1, [pc, #8]	; (4e8 <_ZN6Cereal4crlfEv+0xc>)
     4e0:	f000 fbac 	bl	c3c <_ZN6Cereal4putsEPKc>
}
     4e4:	bd10      	pop	{r4, pc}
     4e6:	46c0      	nop			; (mov r8, r8)
     4e8:	0002a929 	.word	0x0002a929

000004ec <_ZN4mbed10SerialBaseC1E7PinNameS1_>:
SerialBase::SerialBase(PinName tx, PinName rx) :
#if DEVICE_SERIAL_ASYNCH
                                                 _thunk_irq(this), _tx_usage(DMA_USAGE_NEVER),
                                                 _rx_usage(DMA_USAGE_NEVER),
#endif
                                                _serial(), _baud(9600) {
     4ec:	4b0c      	ldr	r3, [pc, #48]	; (520 <_ZN4mbed10SerialBaseC1E7PinNameS1_+0x34>)
SerialBase::SerialBase(PinName tx, PinName rx) :
     4ee:	b570      	push	{r4, r5, r6, lr}
                                                _serial(), _baud(9600) {
     4f0:	6003      	str	r3, [r0, #0]
     4f2:	2300      	movs	r3, #0
     4f4:	6043      	str	r3, [r0, #4]
     4f6:	6083      	str	r3, [r0, #8]
    /** Attach a static function
     *
     *  @param function The void static function to attach (default is none)
     */
    void attach(R (*function)(void)) {
        _p.function = function;
     4f8:	60c3      	str	r3, [r0, #12]
        _membercaller = 0;
     4fa:	6203      	str	r3, [r0, #32]
        _p.function = function;
     4fc:	6243      	str	r3, [r0, #36]	; 0x24
        _membercaller = 0;
     4fe:	6383      	str	r3, [r0, #56]	; 0x38
     500:	2396      	movs	r3, #150	; 0x96
SerialBase::SerialBase(PinName tx, PinName rx) :
     502:	0004      	movs	r4, r0
                                                _serial(), _baud(9600) {
     504:	019b      	lsls	r3, r3, #6
    serial_init(&_serial, tx, rx);
     506:	1d05      	adds	r5, r0, #4
                                                _serial(), _baud(9600) {
     508:	63c3      	str	r3, [r0, #60]	; 0x3c
    serial_init(&_serial, tx, rx);
     50a:	0028      	movs	r0, r5
     50c:	f000 f8f4 	bl	6f8 <serial_init>
    serial_irq_handler(&_serial, SerialBase::_irq_handler, (uint32_t)this);
     510:	0028      	movs	r0, r5
     512:	0022      	movs	r2, r4
     514:	4903      	ldr	r1, [pc, #12]	; (524 <_ZN4mbed10SerialBaseC1E7PinNameS1_+0x38>)
     516:	f000 f981 	bl	81c <serial_irq_handler>
}
     51a:	0020      	movs	r0, r4
     51c:	bd70      	pop	{r4, r5, r6, pc}
     51e:	46c0      	nop			; (mov r8, r8)
     520:	00000f2c 	.word	0x00000f2c
     524:	00000ce3 	.word	0x00000ce3

00000528 <tmr1_getCounter64>:
 * @return Current RTC1 counter as a 64-bit value with 48-bit precision (even
 *         though the underlying counter is 16-bit)
 */
static inline uint64_t tmr1_getCounter64(void)
{
    NRF_TIMER1->TASKS_CAPTURE[2] = 1;
     528:	2301      	movs	r3, #1
{
     52a:	b510      	push	{r4, lr}
    NRF_TIMER1->TASKS_CAPTURE[2] = 1;
     52c:	4c0d      	ldr	r4, [pc, #52]	; (564 <tmr1_getCounter64+0x3c>)

    \param [in]      IRQn  External interrupt number. Value cannot be negative.
 */
__STATIC_INLINE void NVIC_DisableIRQ(IRQn_Type IRQn)
{
  NVIC->ICER[0] = (1 << ((uint32_t)(IRQn) & 0x1F));
     52e:	490e      	ldr	r1, [pc, #56]	; (568 <tmr1_getCounter64+0x40>)
     530:	64a3      	str	r3, [r4, #72]	; 0x48
     532:	2380      	movs	r3, #128	; 0x80
     534:	009b      	lsls	r3, r3, #2
     536:	67cb      	str	r3, [r1, #124]	; 0x7c

    NVIC_DisableIRQ(TIMER1_IRQn);

    if (NRF_TIMER1->EVENTS_COMPARE[3])
     538:	490c      	ldr	r1, [pc, #48]	; (56c <tmr1_getCounter64+0x44>)
     53a:	4a0d      	ldr	r2, [pc, #52]	; (570 <tmr1_getCounter64+0x48>)
     53c:	6d08      	ldr	r0, [r1, #80]	; 0x50
     53e:	2800      	cmp	r0, #0
     540:	d004      	beq.n	54c <tmr1_getCounter64+0x24>
    {
        NRF_TIMER1->EVENTS_COMPARE[3] = 0;
     542:	2000      	movs	r0, #0
     544:	6508      	str	r0, [r1, #80]	; 0x50
        overflowCount++;
     546:	6811      	ldr	r1, [r2, #0]
     548:	3101      	adds	r1, #1
     54a:	6011      	str	r1, [r2, #0]
  NVIC->ISER[0] = (1 << ((uint32_t)(IRQn) & 0x1F));
     54c:	4909      	ldr	r1, [pc, #36]	; (574 <tmr1_getCounter64+0x4c>)
     54e:	600b      	str	r3, [r1, #0]
    }

    NVIC_EnableIRQ(TIMER1_IRQn);

    return (((uint64_t)(overflowCount)) << 16) | (NRF_TIMER1->CC[2] & MAX_TMR1_COUNTER_VAL);
     550:	23a9      	movs	r3, #169	; 0xa9
     552:	00db      	lsls	r3, r3, #3
     554:	6810      	ldr	r0, [r2, #0]
     556:	58e3      	ldr	r3, [r4, r3]
     558:	0c01      	lsrs	r1, r0, #16
     55a:	b29b      	uxth	r3, r3
     55c:	0400      	lsls	r0, r0, #16
     55e:	4318      	orrs	r0, r3
}
     560:	bd10      	pop	{r4, pc}
     562:	46c0      	nop			; (mov r8, r8)
     564:	40009000 	.word	0x40009000
     568:	e000e104 	.word	0xe000e104
     56c:	400090fc 	.word	0x400090fc
     570:	200000d0 	.word	0x200000d0
     574:	e000e100 	.word	0xe000e100

00000578 <TIMER1_IRQHandler>:
 * @brief Function for handling the RTC1 interrupt.
 *
 * @details Checks for timeouts, and executes timeout handlers for expired timers.
 */
void TIMER1_IRQHandler(void)
{
     578:	b5f8      	push	{r3, r4, r5, r6, r7, lr}
    if (NRF_TIMER1->EVENTS_COMPARE[0])
     57a:	4c0f      	ldr	r4, [pc, #60]	; (5b8 <TIMER1_IRQHandler+0x40>)
     57c:	6c63      	ldr	r3, [r4, #68]	; 0x44
     57e:	2b00      	cmp	r3, #0
     580:	d00f      	beq.n	5a2 <TIMER1_IRQHandler+0x2a>
	{
		NRF_TIMER1->EVENTS_COMPARE[0] = 0;
     582:	2700      	movs	r7, #0
		if (us_ticker_callbackPending && ((int)(us_ticker_callbackTimestamp - tmr1_getCounter()) <= 0)) {
     584:	4e0d      	ldr	r6, [pc, #52]	; (5bc <TIMER1_IRQHandler+0x44>)
		NRF_TIMER1->EVENTS_COMPARE[0] = 0;
     586:	6467      	str	r7, [r4, #68]	; 0x44
		if (us_ticker_callbackPending && ((int)(us_ticker_callbackTimestamp - tmr1_getCounter()) <= 0)) {
     588:	7833      	ldrb	r3, [r6, #0]
     58a:	42bb      	cmp	r3, r7
     58c:	d009      	beq.n	5a2 <TIMER1_IRQHandler+0x2a>
     58e:	4b0c      	ldr	r3, [pc, #48]	; (5c0 <TIMER1_IRQHandler+0x48>)
     590:	681d      	ldr	r5, [r3, #0]
    return tmr1_getCounter64();
     592:	f7ff ffc9 	bl	528 <tmr1_getCounter64>
		if (us_ticker_callbackPending && ((int)(us_ticker_callbackTimestamp - tmr1_getCounter()) <= 0)) {
     596:	1a2d      	subs	r5, r5, r0
     598:	42bd      	cmp	r5, r7
     59a:	dc02      	bgt.n	5a2 <TIMER1_IRQHandler+0x2a>
    us_ticker_callbackPending = false;
     59c:	7037      	strb	r7, [r6, #0]
    us_ticker_irq_handler();
     59e:	f000 f97b 	bl	898 <us_ticker_irq_handler>
			invokeCallback();
		}
	}

    if (NRF_TIMER1->EVENTS_COMPARE[3]) {
     5a2:	6d23      	ldr	r3, [r4, #80]	; 0x50
     5a4:	2b00      	cmp	r3, #0
     5a6:	d005      	beq.n	5b4 <TIMER1_IRQHandler+0x3c>
        overflowCount++;
     5a8:	4a06      	ldr	r2, [pc, #24]	; (5c4 <TIMER1_IRQHandler+0x4c>)
     5aa:	6813      	ldr	r3, [r2, #0]
     5ac:	3301      	adds	r3, #1
     5ae:	6013      	str	r3, [r2, #0]
        NRF_TIMER1->EVENTS_COMPARE[3] = 0;
     5b0:	2300      	movs	r3, #0
     5b2:	6523      	str	r3, [r4, #80]	; 0x50
    }
}
     5b4:	bdf8      	pop	{r3, r4, r5, r6, r7, pc}
     5b6:	46c0      	nop			; (mov r8, r8)
     5b8:	400090fc 	.word	0x400090fc
     5bc:	20000108 	.word	0x20000108
     5c0:	200000d4 	.word	0x200000d4
     5c4:	200000d0 	.word	0x200000d0

000005c8 <us_ticker_init>:

void us_ticker_init(void)
{
     5c8:	b570      	push	{r4, r5, r6, lr}
    if (us_ticker_inited) {
     5ca:	4d1b      	ldr	r5, [pc, #108]	; (638 <us_ticker_init+0x70>)
     5cc:	7828      	ldrb	r0, [r5, #0]
     5ce:	2800      	cmp	r0, #0
     5d0:	d131      	bne.n	636 <us_ticker_init+0x6e>
	NRF_TIMER1->TASKS_STOP = 1;
     5d2:	2101      	movs	r1, #1
     5d4:	4b19      	ldr	r3, [pc, #100]	; (63c <us_ticker_init+0x74>)
	NRF_CLOCK->EVENTS_HFCLKSTARTED  = 0;
     5d6:	4a1a      	ldr	r2, [pc, #104]	; (640 <us_ticker_init+0x78>)
	NRF_TIMER1->TASKS_STOP = 1;
     5d8:	6059      	str	r1, [r3, #4]
	NRF_CLOCK->EVENTS_HFCLKSTARTED  = 0;
     5da:	6050      	str	r0, [r2, #4]
	NRF_CLOCK->TASKS_HFCLKSTART     = 1;
     5dc:	2080      	movs	r0, #128	; 0x80
     5de:	05c0      	lsls	r0, r0, #23
     5e0:	6001      	str	r1, [r0, #0]
	while (NRF_CLOCK->EVENTS_HFCLKSTARTED == 0) ;
     5e2:	6851      	ldr	r1, [r2, #4]
     5e4:	2900      	cmp	r1, #0
     5e6:	d0fc      	beq.n	5e2 <us_ticker_init+0x1a>
	NRF_TIMER1->MODE      = TIMER_MODE_MODE_Timer;
     5e8:	2200      	movs	r2, #0
     5ea:	4916      	ldr	r1, [pc, #88]	; (644 <us_ticker_init+0x7c>)
	NRF_TIMER1->PRESCALER = 4; 		// Configure for 1MHz operation
     5ec:	20a2      	movs	r0, #162	; 0xa2
	NRF_TIMER1->MODE      = TIMER_MODE_MODE_Timer;
     5ee:	505a      	str	r2, [r3, r1]
	NRF_TIMER1->PRESCALER = 4; 		// Configure for 1MHz operation
     5f0:	2404      	movs	r4, #4
	NRF_TIMER1->TASKS_CLEAR = 1;
     5f2:	2101      	movs	r1, #1
	NRF_TIMER1->PRESCALER = 4; 		// Configure for 1MHz operation
     5f4:	00c0      	lsls	r0, r0, #3
	NRF_TIMER1->TASKS_CLEAR = 1;
     5f6:	60d9      	str	r1, [r3, #12]
	NRF_TIMER1->PRESCALER = 4; 		// Configure for 1MHz operation
     5f8:	501c      	str	r4, [r3, r0]
	NRF_TIMER1->BITMODE   = TIMER_BITMODE_BITMODE_16Bit;
     5fa:	3808      	subs	r0, #8
     5fc:	501a      	str	r2, [r3, r0]
	NRF_TIMER1->CC[3] = 0;
     5fe:	4812      	ldr	r0, [pc, #72]	; (648 <us_ticker_init+0x80>)
{
  if(IRQn < 0) {
    SCB->SHP[_SHP_IDX(IRQn)] = (SCB->SHP[_SHP_IDX(IRQn)] & ~(0xFF << _BIT_SHIFT(IRQn))) |
        (((priority << (8 - __NVIC_PRIO_BITS)) & 0xFF) << _BIT_SHIFT(IRQn)); }
  else {
    NVIC->IP[_IP_IDX(IRQn)] = (NVIC->IP[_IP_IDX(IRQn)] & ~(0xFF << _BIT_SHIFT(IRQn))) |
     600:	26c2      	movs	r6, #194	; 0xc2
     602:	501a      	str	r2, [r3, r0]
	NRF_TIMER1->INTENSET = (TIMER_INTENSET_COMPARE3_Enabled << TIMER_INTENSET_COMPARE3_Pos);
     604:	22c1      	movs	r2, #193	; 0xc1
     606:	2080      	movs	r0, #128	; 0x80
     608:	0092      	lsls	r2, r2, #2
     60a:	0300      	lsls	r0, r0, #12
     60c:	5098      	str	r0, [r3, r2]
    NRF_TIMER1->INTENSET    = TIMER_INTENSET_COMPARE0_Msk;
     60e:	2080      	movs	r0, #128	; 0x80
     610:	0240      	lsls	r0, r0, #9
     612:	5098      	str	r0, [r3, r2]
     614:	4a0d      	ldr	r2, [pc, #52]	; (64c <us_ticker_init+0x84>)
     616:	00b6      	lsls	r6, r6, #2
     618:	5990      	ldr	r0, [r2, r6]
     61a:	4c0d      	ldr	r4, [pc, #52]	; (650 <us_ticker_init+0x88>)
     61c:	4004      	ands	r4, r0
     61e:	20c0      	movs	r0, #192	; 0xc0
     620:	0200      	lsls	r0, r0, #8
     622:	4320      	orrs	r0, r4
     624:	5190      	str	r0, [r2, r6]
  NVIC->ICPR[0] = (1 << ((uint32_t)(IRQn) & 0x1F)); /* Clear pending interrupt */
     626:	24c0      	movs	r4, #192	; 0xc0
     628:	2080      	movs	r0, #128	; 0x80
     62a:	0064      	lsls	r4, r4, #1
     62c:	0080      	lsls	r0, r0, #2
     62e:	5110      	str	r0, [r2, r4]
  NVIC->ISER[0] = (1 << ((uint32_t)(IRQn) & 0x1F));
     630:	6010      	str	r0, [r2, #0]
    NRF_TIMER1->TASKS_START = 1;
     632:	6019      	str	r1, [r3, #0]
        return;
    }

    tmr1_start();
    us_ticker_inited = true;
     634:	7029      	strb	r1, [r5, #0]
}
     636:	bd70      	pop	{r4, r5, r6, pc}
     638:	20000109 	.word	0x20000109
     63c:	40009000 	.word	0x40009000
     640:	400000fc 	.word	0x400000fc
     644:	00000504 	.word	0x00000504
     648:	0000054c 	.word	0x0000054c
     64c:	e000e100 	.word	0xe000e100
     650:	ffff00ff 	.word	0xffff00ff

00000654 <us_ticker_read>:

uint32_t us_ticker_read()
{
    if (!us_ticker_inited) {
     654:	4b04      	ldr	r3, [pc, #16]	; (668 <us_ticker_read+0x14>)
{
     656:	b510      	push	{r4, lr}
    if (!us_ticker_inited) {
     658:	781b      	ldrb	r3, [r3, #0]
     65a:	2b00      	cmp	r3, #0
     65c:	d101      	bne.n	662 <us_ticker_read+0xe>
        us_ticker_init();
     65e:	f7ff ffb3 	bl	5c8 <us_ticker_init>
    }

    return TMR1_UNITS_TO_MICROSECONDS(tmr1_getCounter64());
     662:	f7ff ff61 	bl	528 <tmr1_getCounter64>
}
     666:	bd10      	pop	{r4, pc}
     668:	20000109 	.word	0x20000109

0000066c <us_ticker_set_interrupt>:
 * pending--such as for 'now' or a time in the past,--then the callback is
 * invoked a few ticks later.
 */
void us_ticker_set_interrupt(timestamp_t timestamp)
{
    if (!us_ticker_inited) {
     66c:	4b10      	ldr	r3, [pc, #64]	; (6b0 <us_ticker_set_interrupt+0x44>)
{
     66e:	b570      	push	{r4, r5, r6, lr}
    if (!us_ticker_inited) {
     670:	781b      	ldrb	r3, [r3, #0]
{
     672:	0004      	movs	r4, r0
    if (!us_ticker_inited) {
     674:	2b00      	cmp	r3, #0
     676:	d101      	bne.n	67c <us_ticker_set_interrupt+0x10>
        us_ticker_init();
     678:	f7ff ffa6 	bl	5c8 <us_ticker_init>

    uint32_t newCallbackTime = timestamp;

    /* Check for repeat setup of an existing callback. This is actually not
     * important; the following code should work even without this check. */
    if (us_ticker_callbackPending && (newCallbackTime == us_ticker_callbackTimestamp)) {
     67c:	4d0d      	ldr	r5, [pc, #52]	; (6b4 <us_ticker_set_interrupt+0x48>)
     67e:	4e0e      	ldr	r6, [pc, #56]	; (6b8 <us_ticker_set_interrupt+0x4c>)
     680:	782b      	ldrb	r3, [r5, #0]
     682:	2b00      	cmp	r3, #0
     684:	d002      	beq.n	68c <us_ticker_set_interrupt+0x20>
     686:	6833      	ldr	r3, [r6, #0]
     688:	42a3      	cmp	r3, r4
     68a:	d010      	beq.n	6ae <us_ticker_set_interrupt+0x42>
    return tmr1_getCounter64();
     68c:	f7ff ff4c 	bl	528 <tmr1_getCounter64>

    /* Check for callbacks which are immediately (or will *very* shortly become) pending.
     * Even if they are immediately pending, they are scheduled to trigger a few
     * ticks later. This keeps things simple by invoking the callback from an
     * independent interrupt context. */
    if ((int)(newCallbackTime - tmr1_getCounter()) <= (int)FUZZY_TMR1_TICKS) {
     690:	1a20      	subs	r0, r4, r0
     692:	280a      	cmp	r0, #10
     694:	dc03      	bgt.n	69e <us_ticker_set_interrupt+0x32>
    return tmr1_getCounter64();
     696:	f7ff ff47 	bl	528 <tmr1_getCounter64>
        newCallbackTime = tmr1_getCounter() + FUZZY_TMR1_TICKS;
     69a:	300a      	adds	r0, #10
     69c:	0004      	movs	r4, r0
    }

    us_ticker_callbackTimestamp = newCallbackTime;
    us_ticker_callbackPending = true;
     69e:	2301      	movs	r3, #1
     6a0:	702b      	strb	r3, [r5, #0]
    NRF_TIMER1->CC[0]             = newCallbackTime & MAX_TMR1_COUNTER_VAL;
     6a2:	23a8      	movs	r3, #168	; 0xa8
     6a4:	4a05      	ldr	r2, [pc, #20]	; (6bc <us_ticker_set_interrupt+0x50>)
    us_ticker_callbackTimestamp = newCallbackTime;
     6a6:	6034      	str	r4, [r6, #0]
    NRF_TIMER1->CC[0]             = newCallbackTime & MAX_TMR1_COUNTER_VAL;
     6a8:	00db      	lsls	r3, r3, #3
     6aa:	b2a4      	uxth	r4, r4
     6ac:	50d4      	str	r4, [r2, r3]
    //tmr1_enableCompareInterrupt();
}
     6ae:	bd70      	pop	{r4, r5, r6, pc}
     6b0:	20000109 	.word	0x20000109
     6b4:	20000108 	.word	0x20000108
     6b8:	200000d4 	.word	0x200000d4
     6bc:	40009000 	.word	0x40009000

000006c0 <serial_baud.part.0>:
    if (baudrate<=1200) {
        obj->uart->BAUDRATE = UART_BAUDRATE_BAUDRATE_Baud1200;
        return;
    }

    for (int i = 1; i<17; i++) {
     6c0:	2301      	movs	r3, #1
void serial_baud(serial_t *obj, int baudrate)
     6c2:	b510      	push	{r4, lr}
        if (baudrate<acceptedSpeeds[i][0]) {
     6c4:	4a0a      	ldr	r2, [pc, #40]	; (6f0 <serial_baud.part.0+0x30>)
     6c6:	00dc      	lsls	r4, r3, #3
     6c8:	5914      	ldr	r4, [r2, r4]
     6ca:	428c      	cmp	r4, r1
     6cc:	dd07      	ble.n	6de <serial_baud.part.0+0x1e>
            obj->uart->BAUDRATE = acceptedSpeeds[i - 1][1];
     6ce:	3b01      	subs	r3, #1
     6d0:	00db      	lsls	r3, r3, #3
     6d2:	18d3      	adds	r3, r2, r3
     6d4:	685a      	ldr	r2, [r3, #4]
     6d6:	6801      	ldr	r1, [r0, #0]
     6d8:	4b06      	ldr	r3, [pc, #24]	; (6f4 <serial_baud.part.0+0x34>)
     6da:	50ca      	str	r2, [r1, r3]
            return;
        }
    }
    obj->uart->BAUDRATE = UART_BAUDRATE_BAUDRATE_Baud1M;
}
     6dc:	bd10      	pop	{r4, pc}
    for (int i = 1; i<17; i++) {
     6de:	3301      	adds	r3, #1
     6e0:	2b11      	cmp	r3, #17
     6e2:	d1f0      	bne.n	6c6 <serial_baud.part.0+0x6>
    obj->uart->BAUDRATE = UART_BAUDRATE_BAUDRATE_Baud1M;
     6e4:	2180      	movs	r1, #128	; 0x80
     6e6:	6802      	ldr	r2, [r0, #0]
     6e8:	4b02      	ldr	r3, [pc, #8]	; (6f4 <serial_baud.part.0+0x34>)
     6ea:	0549      	lsls	r1, r1, #21
     6ec:	50d1      	str	r1, [r2, r3]
     6ee:	e7f5      	b.n	6dc <serial_baud.part.0+0x1c>
     6f0:	00000f34 	.word	0x00000f34
     6f4:	00000524 	.word	0x00000524

000006f8 <serial_init>:
void serial_init(serial_t *obj, PinName tx, PinName rx) {
     6f8:	b5f8      	push	{r3, r4, r5, r6, r7, lr}
     6fa:	000f      	movs	r7, r1
     6fc:	0016      	movs	r6, r2
    NRF_GPIO->DIR |= (1 << tx); //TX_PIN_NUMBER);
     6fe:	2201      	movs	r2, #1
    obj->uart = (NRF_UART_Type *)uart;
     700:	4b24      	ldr	r3, [pc, #144]	; (794 <serial_init+0x9c>)
    NRF_GPIO->DIR |= (1 << tx); //TX_PIN_NUMBER);
     702:	40ba      	lsls	r2, r7
    obj->uart = (NRF_UART_Type *)uart;
     704:	6003      	str	r3, [r0, #0]
    NRF_GPIO->DIR |= (1 << tx); //TX_PIN_NUMBER);
     706:	23a0      	movs	r3, #160	; 0xa0
     708:	4c23      	ldr	r4, [pc, #140]	; (798 <serial_init+0xa0>)
     70a:	05db      	lsls	r3, r3, #23
     70c:	5919      	ldr	r1, [r3, r4]
void serial_init(serial_t *obj, PinName tx, PinName rx) {
     70e:	0005      	movs	r5, r0
    NRF_GPIO->DIR |= (1 << tx); //TX_PIN_NUMBER);
     710:	430a      	orrs	r2, r1
     712:	511a      	str	r2, [r3, r4]
    NRF_GPIO->DIR |= (1 << RTS_PIN_NUMBER);
     714:	2280      	movs	r2, #128	; 0x80
     716:	5919      	ldr	r1, [r3, r4]
     718:	0612      	lsls	r2, r2, #24
     71a:	430a      	orrs	r2, r1
    NRF_GPIO->DIR &= ~(1 << rx); //RX_PIN_NUMBER);
     71c:	2101      	movs	r1, #1
     71e:	40b1      	lsls	r1, r6
    NRF_GPIO->DIR |= (1 << RTS_PIN_NUMBER);
     720:	511a      	str	r2, [r3, r4]
    NRF_GPIO->DIR &= ~(1 << rx); //RX_PIN_NUMBER);
     722:	591a      	ldr	r2, [r3, r4]
     724:	438a      	bics	r2, r1
     726:	2196      	movs	r1, #150	; 0x96
     728:	511a      	str	r2, [r3, r4]
    NRF_GPIO->DIR &= ~(1 << CTS_PIN_NUMBER);
     72a:	591a      	ldr	r2, [r3, r4]
     72c:	0189      	lsls	r1, r1, #6
     72e:	0052      	lsls	r2, r2, #1
     730:	0852      	lsrs	r2, r2, #1
     732:	511a      	str	r2, [r3, r4]
     734:	f7ff ffc4 	bl	6c0 <serial_baud.part.0>
{
    // 0: 1 stop bits, 1: 2 stop bits
    // int parity_enable, parity_select;
    switch (parity) {
        case ParityNone:
            obj->uart->CONFIG = 0;
     738:	2200      	movs	r2, #0
    obj->uart->ENABLE        = (UART_ENABLE_ENABLE_Enabled << UART_ENABLE_ENABLE_Pos);
     73a:	2004      	movs	r0, #4
            obj->uart->CONFIG = 0;
     73c:	682b      	ldr	r3, [r5, #0]
     73e:	4917      	ldr	r1, [pc, #92]	; (79c <serial_init+0xa4>)
     740:	505a      	str	r2, [r3, r1]
    obj->uart->ENABLE        = (UART_ENABLE_ENABLE_Enabled << UART_ENABLE_ENABLE_Pos);
     742:	396c      	subs	r1, #108	; 0x6c
     744:	5058      	str	r0, [r3, r1]
    obj->uart->TASKS_STARTTX = 1;
     746:	2101      	movs	r1, #1
     748:	6099      	str	r1, [r3, #8]
    obj->uart->TASKS_STARTRX = 1;
     74a:	6019      	str	r1, [r3, #0]
    obj->uart->EVENTS_RXDRDY = 0;
     74c:	0019      	movs	r1, r3
     74e:	31fc      	adds	r1, #252	; 0xfc
     750:	60ca      	str	r2, [r1, #12]
    obj->uart->TXD = 0;
     752:	4913      	ldr	r1, [pc, #76]	; (7a0 <serial_init+0xa8>)
     754:	505a      	str	r2, [r3, r1]
    obj->index = 0;
     756:	606a      	str	r2, [r5, #4]
    obj->uart->PSELRTS = RTS_PIN_NUMBER;
     758:	3914      	subs	r1, #20
     75a:	321f      	adds	r2, #31
     75c:	505a      	str	r2, [r3, r1]
    obj->uart->PSELTXD = tx; //TX_PIN_NUMBER;
     75e:	4911      	ldr	r1, [pc, #68]	; (7a4 <serial_init+0xac>)
     760:	505f      	str	r7, [r3, r1]
    obj->uart->PSELCTS = CTS_PIN_NUMBER;
     762:	1809      	adds	r1, r1, r0
     764:	505a      	str	r2, [r3, r1]
    obj->uart->PSELRXD = rx; //RX_PIN_NUMBER;
     766:	511e      	str	r6, [r3, r4]
    if (tx != NC) {
     768:	1c7b      	adds	r3, r7, #1
     76a:	d003      	beq.n	774 <serial_init+0x7c>
        pin_mode(tx, PullUp);
     76c:	2103      	movs	r1, #3
     76e:	0038      	movs	r0, r7
     770:	f000 fb82 	bl	e78 <pin_mode>
    if (rx != NC) {
     774:	1c73      	adds	r3, r6, #1
     776:	d003      	beq.n	780 <serial_init+0x88>
        pin_mode(rx, PullUp);
     778:	2103      	movs	r1, #3
     77a:	0030      	movs	r0, r6
     77c:	f000 fb7c 	bl	e78 <pin_mode>
        stdio_uart_inited = 1;
     780:	2201      	movs	r2, #1
     782:	4b09      	ldr	r3, [pc, #36]	; (7a8 <serial_init+0xb0>)
        memcpy(&stdio_uart, obj, sizeof(serial_t));
     784:	0029      	movs	r1, r5
        stdio_uart_inited = 1;
     786:	601a      	str	r2, [r3, #0]
        memcpy(&stdio_uart, obj, sizeof(serial_t));
     788:	4808      	ldr	r0, [pc, #32]	; (7ac <serial_init+0xb4>)
     78a:	3207      	adds	r2, #7
     78c:	f000 fba3 	bl	ed6 <memcpy>
}
     790:	bdf8      	pop	{r3, r4, r5, r6, r7, pc}
     792:	46c0      	nop			; (mov r8, r8)
     794:	40002000 	.word	0x40002000
     798:	00000514 	.word	0x00000514
     79c:	0000056c 	.word	0x0000056c
     7a0:	0000051c 	.word	0x0000051c
     7a4:	0000050c 	.word	0x0000050c
     7a8:	200000e0 	.word	0x200000e0
     7ac:	2000010c 	.word	0x2000010c

000007b0 <serial_baud>:
    if (baudrate<=1200) {
     7b0:	2396      	movs	r3, #150	; 0x96
{
     7b2:	b510      	push	{r4, lr}
    if (baudrate<=1200) {
     7b4:	00db      	lsls	r3, r3, #3
     7b6:	4299      	cmp	r1, r3
     7b8:	dd02      	ble.n	7c0 <serial_baud+0x10>
     7ba:	f7ff ff81 	bl	6c0 <serial_baud.part.0>
}
     7be:	bd10      	pop	{r4, pc}
        obj->uart->BAUDRATE = UART_BAUDRATE_BAUDRATE_Baud1200;
     7c0:	219e      	movs	r1, #158	; 0x9e
     7c2:	6802      	ldr	r2, [r0, #0]
     7c4:	4b01      	ldr	r3, [pc, #4]	; (7cc <serial_baud+0x1c>)
     7c6:	02c9      	lsls	r1, r1, #11
     7c8:	50d1      	str	r1, [r2, r3]
        return;
     7ca:	e7f8      	b.n	7be <serial_baud+0xe>
     7cc:	00000524 	.word	0x00000524

000007d0 <UART0_IRQHandler>:
#endif
void UART0_IRQHandler()
{
    uint32_t irtype = 0;

    if((NRF_UART0->INTENSET & 0x80) && NRF_UART0->EVENTS_TXDRDY) {
     7d0:	23c1      	movs	r3, #193	; 0xc1
     7d2:	4a0e      	ldr	r2, [pc, #56]	; (80c <Heap_Size+0xc>)
     7d4:	009b      	lsls	r3, r3, #2
     7d6:	58d1      	ldr	r1, [r2, r3]
{
     7d8:	b510      	push	{r4, lr}
    if((NRF_UART0->INTENSET & 0x80) && NRF_UART0->EVENTS_TXDRDY) {
     7da:	0609      	lsls	r1, r1, #24
     7dc:	d503      	bpl.n	7e6 <UART0_IRQHandler+0x16>
     7de:	490c      	ldr	r1, [pc, #48]	; (810 <Heap_Size+0x10>)
     7e0:	6a09      	ldr	r1, [r1, #32]
     7e2:	2900      	cmp	r1, #0
     7e4:	d108      	bne.n	7f8 <UART0_IRQHandler+0x28>
        irtype = 1;
    } else if((NRF_UART0->INTENSET & 0x04) && NRF_UART0->EVENTS_RXDRDY) {
     7e6:	58d3      	ldr	r3, [r2, r3]
     7e8:	075b      	lsls	r3, r3, #29
     7ea:	d504      	bpl.n	7f6 <UART0_IRQHandler+0x26>
     7ec:	4b08      	ldr	r3, [pc, #32]	; (810 <Heap_Size+0x10>)
            irq_type = RxIrq;
     7ee:	2100      	movs	r1, #0
    } else if((NRF_UART0->INTENSET & 0x04) && NRF_UART0->EVENTS_RXDRDY) {
     7f0:	68db      	ldr	r3, [r3, #12]
     7f2:	2b00      	cmp	r3, #0
     7f4:	d101      	bne.n	7fa <UART0_IRQHandler+0x2a>
        irtype = 2;
    }
    uart_irq(irtype, 0);
}
     7f6:	bd10      	pop	{r4, pc}
            irq_type = TxIrq;
     7f8:	2101      	movs	r1, #1
    if (serial_irq_ids[index] != 0) {
     7fa:	4b06      	ldr	r3, [pc, #24]	; (814 <Heap_Size+0x14>)
     7fc:	6818      	ldr	r0, [r3, #0]
     7fe:	2800      	cmp	r0, #0
     800:	d0f9      	beq.n	7f6 <UART0_IRQHandler+0x26>
        irq_handler(serial_irq_ids[index], irq_type);
     802:	4b05      	ldr	r3, [pc, #20]	; (818 <Heap_Size+0x18>)
     804:	681b      	ldr	r3, [r3, #0]
     806:	4798      	blx	r3
}
     808:	e7f5      	b.n	7f6 <UART0_IRQHandler+0x26>
     80a:	46c0      	nop			; (mov r8, r8)
     80c:	40002000 	.word	0x40002000
     810:	400020fc 	.word	0x400020fc
     814:	200000dc 	.word	0x200000dc
     818:	200000d8 	.word	0x200000d8

0000081c <serial_irq_handler>:
#ifdef __cplusplus
}
#endif
void serial_irq_handler(serial_t *obj, uart_irq_handler handler, uint32_t id)
{
    irq_handler                = handler;
     81c:	4b03      	ldr	r3, [pc, #12]	; (82c <serial_irq_handler+0x10>)
     81e:	6019      	str	r1, [r3, #0]
    serial_irq_ids[obj->index] = id;
     820:	6843      	ldr	r3, [r0, #4]
     822:	4903      	ldr	r1, [pc, #12]	; (830 <serial_irq_handler+0x14>)
     824:	009b      	lsls	r3, r3, #2
     826:	505a      	str	r2, [r3, r1]
}
     828:	4770      	bx	lr
     82a:	46c0      	nop			; (mov r8, r8)
     82c:	200000d8 	.word	0x200000d8
     830:	200000dc 	.word	0x200000dc

00000834 <serial_putc>:
    return (obj->uart->EVENTS_RXDRDY == 1);
}

int serial_writable(serial_t *obj)
{
    return (obj->uart->EVENTS_TXDRDY == 1);
     834:	6803      	ldr	r3, [r0, #0]
     836:	001a      	movs	r2, r3
     838:	32fc      	adds	r2, #252	; 0xfc
     83a:	6a10      	ldr	r0, [r2, #32]
    while (!serial_writable(obj)) {
     83c:	2801      	cmp	r0, #1
     83e:	d1fc      	bne.n	83a <serial_putc+0x6>
    obj->uart->EVENTS_TXDRDY = 0;
     840:	2000      	movs	r0, #0
     842:	6210      	str	r0, [r2, #32]
    obj->uart->TXD = (uint8_t)c;
     844:	4a01      	ldr	r2, [pc, #4]	; (84c <serial_putc+0x18>)
     846:	b2c9      	uxtb	r1, r1
     848:	5099      	str	r1, [r3, r2]
}
     84a:	4770      	bx	lr
     84c:	0000051c 	.word	0x0000051c

00000850 <Reset_Handler>:
    .type    Reset_Handler, %function
Reset_Handler:
    .fnstart

/* Make sure ALL RAM banks are powered on */
    LDR     R0, =NRF_POWER_RAMON_ADDRESS
     850:	4808      	ldr	r0, [pc, #32]	; (874 <Reset_Handler+0x24>)
    LDR     R2, [R0]
     852:	6802      	ldr	r2, [r0, #0]
    MOVS    R1, #NRF_POWER_RAMON_RAMxON_ONMODE_Msk
     854:	2103      	movs	r1, #3
    ORRS    R2, R1
     856:	430a      	orrs	r2, r1
    STR     R2, [R0]
     858:	6002      	str	r2, [r0, #0]
 *      linker script.
 *      __etext: End of code section, i.e., begin of data sections to copy from.
 *      __data_start__/__data_end__: RAM address range that data should be
 *      copied to. Both must be aligned to 4 bytes boundary.  */

    ldr    r1, =__etext
     85a:	4907      	ldr	r1, [pc, #28]	; (878 <Reset_Handler+0x28>)
    ldr    r2, =__data_start__
     85c:	4a07      	ldr	r2, [pc, #28]	; (87c <Reset_Handler+0x2c>)
    ldr    r3, =__data_end__
     85e:	4b08      	ldr	r3, [pc, #32]	; (880 <Reset_Handler+0x30>)

    subs    r3, r2
     860:	1a9b      	subs	r3, r3, r2
    ble     .LC0
     862:	dd03      	ble.n	86c <Reset_Handler+0x1c>

.LC1:
    subs    r3, 4
     864:	3b04      	subs	r3, #4
    ldr    r0, [r1,r3]
     866:	58c8      	ldr	r0, [r1, r3]
    str    r0, [r2,r3]
     868:	50d0      	str	r0, [r2, r3]
    bgt    .LC1
     86a:	dcfb      	bgt.n	864 <Reset_Handler+0x14>
.LC0:
    
    LDR     R0, =SystemInit
     86c:	4805      	ldr	r0, [pc, #20]	; (884 <Reset_Handler+0x34>)
    BLX     R0
     86e:	4780      	blx	r0
    LDR     R0, =_start
     870:	4805      	ldr	r0, [pc, #20]	; (888 <Reset_Handler+0x38>)
    BX      R0
     872:	4700      	bx	r0
    LDR     R0, =NRF_POWER_RAMON_ADDRESS
     874:	40000524 	.word	0x40000524
    ldr    r1, =__etext
     878:	0002a938 	.word	0x0002a938
    ldr    r2, =__data_start__
     87c:	20000000 	.word	0x20000000
    ldr    r3, =__data_end__
     880:	20000074 	.word	0x20000074
    LDR     R0, =SystemInit
     884:	000008d9 	.word	0x000008d9
    LDR     R0, =_start
     888:	00000109 	.word	0x00000109

0000088c <NMI_Handler>:
/* Dummy Exception Handlers (infinite loops which can be modified) */

    .weak   NMI_Handler
    .type   NMI_Handler, %function
NMI_Handler:
    B       .
     88c:	e7fe      	b.n	88c <NMI_Handler>

0000088e <HardFault_Handler>:


    .weak   HardFault_Handler
    .type   HardFault_Handler, %function
HardFault_Handler:
    B       .
     88e:	e7fe      	b.n	88e <HardFault_Handler>

00000890 <SVC_Handler>:


    .weak   SVC_Handler
    .type   SVC_Handler, %function
SVC_Handler:
    B       .
     890:	e7fe      	b.n	890 <SVC_Handler>

00000892 <PendSV_Handler>:


    .weak   PendSV_Handler
    .type   PendSV_Handler, %function
PendSV_Handler:
    B       .
     892:	e7fe      	b.n	892 <PendSV_Handler>

00000894 <SysTick_Handler>:


    .weak   SysTick_Handler
    .type   SysTick_Handler, %function
SysTick_Handler:
    B       .
     894:	e7fe      	b.n	894 <SysTick_Handler>

00000896 <Default_Handler>:
/* IRQ Handlers */

    .globl  Default_Handler
    .type   Default_Handler, %function
Default_Handler:
    B       .
     896:	e7fe      	b.n	896 <Default_Handler>

00000898 <us_ticker_irq_handler>:
{
    return &us_data;
}

void us_ticker_irq_handler(void)
{
     898:	b510      	push	{r4, lr}
    ticker_irq_handler(&us_data);
     89a:	4802      	ldr	r0, [pc, #8]	; (8a4 <us_ticker_irq_handler+0xc>)
     89c:	f000 faa4 	bl	de8 <ticker_irq_handler>
}
     8a0:	bd10      	pop	{r4, pc}
     8a2:	46c0      	nop			; (mov r8, r8)
     8a4:	00000fbc 	.word	0x00000fbc

000008a8 <gpio_init>:
#include "gpio_api.h"
#include "pinmap.h"

void gpio_init(gpio_t *obj, PinName pin)
{
    obj->pin = pin;
     8a8:	7001      	strb	r1, [r0, #0]
    if (pin == (PinName)NC) {
     8aa:	1c4b      	adds	r3, r1, #1
     8ac:	d00a      	beq.n	8c4 <gpio_init+0x1c>
        return;
    }

    obj->mask = (1ul << pin);
     8ae:	2301      	movs	r3, #1
     8b0:	408b      	lsls	r3, r1
     8b2:	6043      	str	r3, [r0, #4]

    obj->reg_set = &NRF_GPIO->OUTSET;
     8b4:	4b04      	ldr	r3, [pc, #16]	; (8c8 <gpio_init+0x20>)
     8b6:	60c3      	str	r3, [r0, #12]
    obj->reg_clr = &NRF_GPIO->OUTCLR;
     8b8:	4b04      	ldr	r3, [pc, #16]	; (8cc <gpio_init+0x24>)
     8ba:	6103      	str	r3, [r0, #16]
    obj->reg_in  = &NRF_GPIO->IN;
     8bc:	4b04      	ldr	r3, [pc, #16]	; (8d0 <gpio_init+0x28>)
     8be:	6143      	str	r3, [r0, #20]
    obj->reg_dir = &NRF_GPIO->DIR;
     8c0:	4b04      	ldr	r3, [pc, #16]	; (8d4 <gpio_init+0x2c>)
     8c2:	6083      	str	r3, [r0, #8]
}
     8c4:	4770      	bx	lr
     8c6:	46c0      	nop			; (mov r8, r8)
     8c8:	50000508 	.word	0x50000508
     8cc:	5000050c 	.word	0x5000050c
     8d0:	50000510 	.word	0x50000510
     8d4:	50000514 	.word	0x50000514

000008d8 <SystemInit>:
    }
}

static bool is_manual_peripheral_setup_needed(void)
{
    if ((((*(uint32_t *)0xF0000FE0) & 0x000000FF) == 0x1) && (((*(uint32_t *)0xF0000FE4) & 0x0000000F) == 0x0))
     8d8:	4922      	ldr	r1, [pc, #136]	; (964 <SystemInit+0x8c>)
{
     8da:	b510      	push	{r4, lr}
    if ((((*(uint32_t *)0xF0000FE0) & 0x000000FF) == 0x1) && (((*(uint32_t *)0xF0000FE4) & 0x0000000F) == 0x0))
     8dc:	680b      	ldr	r3, [r1, #0]
     8de:	b2db      	uxtb	r3, r3
     8e0:	2b01      	cmp	r3, #1
     8e2:	d10f      	bne.n	904 <SystemInit+0x2c>
     8e4:	4b20      	ldr	r3, [pc, #128]	; (968 <SystemInit+0x90>)
     8e6:	681b      	ldr	r3, [r3, #0]
     8e8:	071b      	lsls	r3, r3, #28
     8ea:	d10b      	bne.n	904 <SystemInit+0x2c>
    {
        if ((((*(uint32_t *)0xF0000FE8) & 0x000000F0) == 0x00) && (((*(uint32_t *)0xF0000FEC) & 0x000000F0) == 0x0))
     8ec:	4b1f      	ldr	r3, [pc, #124]	; (96c <SystemInit+0x94>)
     8ee:	24e0      	movs	r4, #224	; 0xe0
     8f0:	681a      	ldr	r2, [r3, #0]
     8f2:	23f0      	movs	r3, #240	; 0xf0
     8f4:	0010      	movs	r0, r2
     8f6:	4018      	ands	r0, r3
     8f8:	4222      	tst	r2, r4
     8fa:	d128      	bne.n	94e <SystemInit+0x76>
     8fc:	4a1c      	ldr	r2, [pc, #112]	; (970 <SystemInit+0x98>)
     8fe:	6812      	ldr	r2, [r2, #0]
     900:	421a      	tst	r2, r3
     902:	d027      	beq.n	954 <SystemInit+0x7c>
    return false;
}

static bool is_disabled_in_debug_needed(void)
{
    if ((((*(uint32_t *)0xF0000FE0) & 0x000000FF) == 0x1) && (((*(uint32_t *)0xF0000FE4) & 0x0000000F) == 0x0))
     904:	680b      	ldr	r3, [r1, #0]
     906:	b2db      	uxtb	r3, r3
     908:	2b01      	cmp	r3, #1
     90a:	d112      	bne.n	932 <SystemInit+0x5a>
     90c:	4a16      	ldr	r2, [pc, #88]	; (968 <SystemInit+0x90>)
     90e:	6812      	ldr	r2, [r2, #0]
     910:	0712      	lsls	r2, r2, #28
     912:	d10e      	bne.n	932 <SystemInit+0x5a>
    {
        if ((((*(uint32_t *)0xF0000FE8) & 0x000000F0) == 0x40) && (((*(uint32_t *)0xF0000FEC) & 0x000000F0) == 0x0))
     914:	21f0      	movs	r1, #240	; 0xf0
     916:	4a15      	ldr	r2, [pc, #84]	; (96c <SystemInit+0x94>)
     918:	6812      	ldr	r2, [r2, #0]
     91a:	400a      	ands	r2, r1
     91c:	2a40      	cmp	r2, #64	; 0x40
     91e:	d108      	bne.n	932 <SystemInit+0x5a>
     920:	4a13      	ldr	r2, [pc, #76]	; (970 <SystemInit+0x98>)
     922:	6812      	ldr	r2, [r2, #0]
     924:	420a      	tst	r2, r1
     926:	d104      	bne.n	932 <SystemInit+0x5a>
        NRF_MPU->DISABLEINDEBUG = MPU_DISABLEINDEBUG_DISABLEINDEBUG_Disabled << MPU_DISABLEINDEBUG_DISABLEINDEBUG_Pos;
     928:	2180      	movs	r1, #128	; 0x80
     92a:	22c1      	movs	r2, #193	; 0xc1
     92c:	05c9      	lsls	r1, r1, #23
     92e:	00d2      	lsls	r2, r2, #3
     930:	508b      	str	r3, [r1, r2]
    NRF_CLOCK->LFCLKSRC             = (CLOCK_LFCLKSRC_SRC_RC << CLOCK_LFCLKSRC_SRC_Pos);
     932:	2280      	movs	r2, #128	; 0x80
     934:	23a3      	movs	r3, #163	; 0xa3
     936:	2100      	movs	r1, #0
     938:	05d2      	lsls	r2, r2, #23
     93a:	00db      	lsls	r3, r3, #3
     93c:	50d1      	str	r1, [r2, r3]
    NRF_CLOCK->EVENTS_LFCLKSTARTED  = 0;
     93e:	4b0d      	ldr	r3, [pc, #52]	; (974 <SystemInit+0x9c>)
     940:	6099      	str	r1, [r3, #8]
    NRF_CLOCK->TASKS_LFCLKSTART     = 1;
     942:	3101      	adds	r1, #1
     944:	6091      	str	r1, [r2, #8]
    while (NRF_CLOCK->EVENTS_LFCLKSTARTED == 0) {
     946:	689a      	ldr	r2, [r3, #8]
     948:	2a00      	cmp	r2, #0
     94a:	d0fc      	beq.n	946 <SystemInit+0x6e>
}
     94c:	bd10      	pop	{r4, pc}
        if ((((*(uint32_t *)0xF0000FE8) & 0x000000F0) == 0x30) && (((*(uint32_t *)0xF0000FEC) & 0x000000F0) == 0x0))
     94e:	2830      	cmp	r0, #48	; 0x30
     950:	d0d4      	beq.n	8fc <SystemInit+0x24>
     952:	e7d7      	b.n	904 <SystemInit+0x2c>
        *(uint32_t volatile *)0x40000504 = 0xC007FFDF;
     954:	4b08      	ldr	r3, [pc, #32]	; (978 <SystemInit+0xa0>)
     956:	4a09      	ldr	r2, [pc, #36]	; (97c <SystemInit+0xa4>)
     958:	601a      	str	r2, [r3, #0]
        *(uint32_t volatile *)0x40006C18 = 0x00008000;
     95a:	2280      	movs	r2, #128	; 0x80
     95c:	4b08      	ldr	r3, [pc, #32]	; (980 <SystemInit+0xa8>)
     95e:	0212      	lsls	r2, r2, #8
     960:	601a      	str	r2, [r3, #0]
     962:	e7cf      	b.n	904 <SystemInit+0x2c>
     964:	f0000fe0 	.word	0xf0000fe0
     968:	f0000fe4 	.word	0xf0000fe4
     96c:	f0000fe8 	.word	0xf0000fe8
     970:	f0000fec 	.word	0xf0000fec
     974:	400000fc 	.word	0x400000fc
     978:	40000504 	.word	0x40000504
     97c:	c007ffdf 	.word	0xc007ffdf
     980:	40006c18 	.word	0x40006c18

00000984 <__udivsi3>:
     984:	2200      	movs	r2, #0
     986:	0843      	lsrs	r3, r0, #1
     988:	428b      	cmp	r3, r1
     98a:	d374      	bcc.n	a76 <__udivsi3+0xf2>
     98c:	0903      	lsrs	r3, r0, #4
     98e:	428b      	cmp	r3, r1
     990:	d35f      	bcc.n	a52 <__udivsi3+0xce>
     992:	0a03      	lsrs	r3, r0, #8
     994:	428b      	cmp	r3, r1
     996:	d344      	bcc.n	a22 <__udivsi3+0x9e>
     998:	0b03      	lsrs	r3, r0, #12
     99a:	428b      	cmp	r3, r1
     99c:	d328      	bcc.n	9f0 <__udivsi3+0x6c>
     99e:	0c03      	lsrs	r3, r0, #16
     9a0:	428b      	cmp	r3, r1
     9a2:	d30d      	bcc.n	9c0 <__udivsi3+0x3c>
     9a4:	22ff      	movs	r2, #255	; 0xff
     9a6:	0209      	lsls	r1, r1, #8
     9a8:	ba12      	rev	r2, r2
     9aa:	0c03      	lsrs	r3, r0, #16
     9ac:	428b      	cmp	r3, r1
     9ae:	d302      	bcc.n	9b6 <__udivsi3+0x32>
     9b0:	1212      	asrs	r2, r2, #8
     9b2:	0209      	lsls	r1, r1, #8
     9b4:	d065      	beq.n	a82 <__udivsi3+0xfe>
     9b6:	0b03      	lsrs	r3, r0, #12
     9b8:	428b      	cmp	r3, r1
     9ba:	d319      	bcc.n	9f0 <__udivsi3+0x6c>
     9bc:	e000      	b.n	9c0 <__udivsi3+0x3c>
     9be:	0a09      	lsrs	r1, r1, #8
     9c0:	0bc3      	lsrs	r3, r0, #15
     9c2:	428b      	cmp	r3, r1
     9c4:	d301      	bcc.n	9ca <__udivsi3+0x46>
     9c6:	03cb      	lsls	r3, r1, #15
     9c8:	1ac0      	subs	r0, r0, r3
     9ca:	4152      	adcs	r2, r2
     9cc:	0b83      	lsrs	r3, r0, #14
     9ce:	428b      	cmp	r3, r1
     9d0:	d301      	bcc.n	9d6 <__udivsi3+0x52>
     9d2:	038b      	lsls	r3, r1, #14
     9d4:	1ac0      	subs	r0, r0, r3
     9d6:	4152      	adcs	r2, r2
     9d8:	0b43      	lsrs	r3, r0, #13
     9da:	428b      	cmp	r3, r1
     9dc:	d301      	bcc.n	9e2 <__udivsi3+0x5e>
     9de:	034b      	lsls	r3, r1, #13
     9e0:	1ac0      	subs	r0, r0, r3
     9e2:	4152      	adcs	r2, r2
     9e4:	0b03      	lsrs	r3, r0, #12
     9e6:	428b      	cmp	r3, r1
     9e8:	d301      	bcc.n	9ee <__udivsi3+0x6a>
     9ea:	030b      	lsls	r3, r1, #12
     9ec:	1ac0      	subs	r0, r0, r3
     9ee:	4152      	adcs	r2, r2
     9f0:	0ac3      	lsrs	r3, r0, #11
     9f2:	428b      	cmp	r3, r1
     9f4:	d301      	bcc.n	9fa <__udivsi3+0x76>
     9f6:	02cb      	lsls	r3, r1, #11
     9f8:	1ac0      	subs	r0, r0, r3
     9fa:	4152      	adcs	r2, r2
     9fc:	0a83      	lsrs	r3, r0, #10
     9fe:	428b      	cmp	r3, r1
     a00:	d301      	bcc.n	a06 <__udivsi3+0x82>
     a02:	028b      	lsls	r3, r1, #10
     a04:	1ac0      	subs	r0, r0, r3
     a06:	4152      	adcs	r2, r2
     a08:	0a43      	lsrs	r3, r0, #9
     a0a:	428b      	cmp	r3, r1
     a0c:	d301      	bcc.n	a12 <__udivsi3+0x8e>
     a0e:	024b      	lsls	r3, r1, #9
     a10:	1ac0      	subs	r0, r0, r3
     a12:	4152      	adcs	r2, r2
     a14:	0a03      	lsrs	r3, r0, #8
     a16:	428b      	cmp	r3, r1
     a18:	d301      	bcc.n	a1e <__udivsi3+0x9a>
     a1a:	020b      	lsls	r3, r1, #8
     a1c:	1ac0      	subs	r0, r0, r3
     a1e:	4152      	adcs	r2, r2
     a20:	d2cd      	bcs.n	9be <__udivsi3+0x3a>
     a22:	09c3      	lsrs	r3, r0, #7
     a24:	428b      	cmp	r3, r1
     a26:	d301      	bcc.n	a2c <__udivsi3+0xa8>
     a28:	01cb      	lsls	r3, r1, #7
     a2a:	1ac0      	subs	r0, r0, r3
     a2c:	4152      	adcs	r2, r2
     a2e:	0983      	lsrs	r3, r0, #6
     a30:	428b      	cmp	r3, r1
     a32:	d301      	bcc.n	a38 <__udivsi3+0xb4>
     a34:	018b      	lsls	r3, r1, #6
     a36:	1ac0      	subs	r0, r0, r3
     a38:	4152      	adcs	r2, r2
     a3a:	0943      	lsrs	r3, r0, #5
     a3c:	428b      	cmp	r3, r1
     a3e:	d301      	bcc.n	a44 <__udivsi3+0xc0>
     a40:	014b      	lsls	r3, r1, #5
     a42:	1ac0      	subs	r0, r0, r3
     a44:	4152      	adcs	r2, r2
     a46:	0903      	lsrs	r3, r0, #4
     a48:	428b      	cmp	r3, r1
     a4a:	d301      	bcc.n	a50 <__udivsi3+0xcc>
     a4c:	010b      	lsls	r3, r1, #4
     a4e:	1ac0      	subs	r0, r0, r3
     a50:	4152      	adcs	r2, r2
     a52:	08c3      	lsrs	r3, r0, #3
     a54:	428b      	cmp	r3, r1
     a56:	d301      	bcc.n	a5c <__udivsi3+0xd8>
     a58:	00cb      	lsls	r3, r1, #3
     a5a:	1ac0      	subs	r0, r0, r3
     a5c:	4152      	adcs	r2, r2
     a5e:	0883      	lsrs	r3, r0, #2
     a60:	428b      	cmp	r3, r1
     a62:	d301      	bcc.n	a68 <__udivsi3+0xe4>
     a64:	008b      	lsls	r3, r1, #2
     a66:	1ac0      	subs	r0, r0, r3
     a68:	4152      	adcs	r2, r2
     a6a:	0843      	lsrs	r3, r0, #1
     a6c:	428b      	cmp	r3, r1
     a6e:	d301      	bcc.n	a74 <__udivsi3+0xf0>
     a70:	004b      	lsls	r3, r1, #1
     a72:	1ac0      	subs	r0, r0, r3
     a74:	4152      	adcs	r2, r2
     a76:	1a41      	subs	r1, r0, r1
     a78:	d200      	bcs.n	a7c <__udivsi3+0xf8>
     a7a:	4601      	mov	r1, r0
     a7c:	4152      	adcs	r2, r2
     a7e:	4610      	mov	r0, r2
     a80:	4770      	bx	lr
     a82:	e7ff      	b.n	a84 <__udivsi3+0x100>
     a84:	b501      	push	{r0, lr}
     a86:	2000      	movs	r0, #0
     a88:	f000 f806 	bl	a98 <__aeabi_idiv0>
     a8c:	bd02      	pop	{r1, pc}
     a8e:	46c0      	nop			; (mov r8, r8)

00000a90 <__aeabi_uidivmod>:
     a90:	2900      	cmp	r1, #0
     a92:	d0f7      	beq.n	a84 <__udivsi3+0x100>
     a94:	e776      	b.n	984 <__udivsi3>
     a96:	4770      	bx	lr

00000a98 <__aeabi_idiv0>:
     a98:	4770      	bx	lr
     a9a:	46c0      	nop			; (mov r8, r8)

00000a9c <__cxa_atexit>:
     a9c:	b510      	push	{r4, lr}
     a9e:	0004      	movs	r4, r0
     aa0:	4804      	ldr	r0, [pc, #16]	; (ab4 <__cxa_atexit+0x18>)
     aa2:	0013      	movs	r3, r2
     aa4:	2800      	cmp	r0, #0
     aa6:	d004      	beq.n	ab2 <__cxa_atexit+0x16>
     aa8:	000a      	movs	r2, r1
     aaa:	2002      	movs	r0, #2
     aac:	0021      	movs	r1, r4
     aae:	e000      	b.n	ab2 <__cxa_atexit+0x16>
     ab0:	bf00      	nop
     ab2:	bd10      	pop	{r4, pc}
     ab4:	00000000 	.word	0x00000000

00000ab8 <exit>:
     ab8:	4b08      	ldr	r3, [pc, #32]	; (adc <exit+0x24>)
     aba:	b510      	push	{r4, lr}
     abc:	0004      	movs	r4, r0
     abe:	2b00      	cmp	r3, #0
     ac0:	d002      	beq.n	ac8 <exit+0x10>
     ac2:	2100      	movs	r1, #0
     ac4:	e000      	b.n	ac8 <exit+0x10>
     ac6:	bf00      	nop
     ac8:	4b05      	ldr	r3, [pc, #20]	; (ae0 <exit+0x28>)
     aca:	6818      	ldr	r0, [r3, #0]
     acc:	6a83      	ldr	r3, [r0, #40]	; 0x28
     ace:	2b00      	cmp	r3, #0
     ad0:	d000      	beq.n	ad4 <exit+0x1c>
     ad2:	4798      	blx	r3
     ad4:	0020      	movs	r0, r4
     ad6:	f000 f939 	bl	d4c <_exit>
     ada:	46c0      	nop			; (mov r8, r8)
     adc:	00000000 	.word	0x00000000
     ae0:	00001038 	.word	0x00001038

00000ae4 <__libc_init_array>:
     ae4:	b570      	push	{r4, r5, r6, lr}
     ae6:	2600      	movs	r6, #0
     ae8:	4d0c      	ldr	r5, [pc, #48]	; (b1c <__libc_init_array+0x38>)
     aea:	4c0d      	ldr	r4, [pc, #52]	; (b20 <__libc_init_array+0x3c>)
     aec:	1b64      	subs	r4, r4, r5
     aee:	10a4      	asrs	r4, r4, #2
     af0:	42a6      	cmp	r6, r4
     af2:	d109      	bne.n	b08 <__libc_init_array+0x24>
     af4:	2600      	movs	r6, #0
     af6:	f000 fa01 	bl	efc <_init>
     afa:	4d0a      	ldr	r5, [pc, #40]	; (b24 <__libc_init_array+0x40>)
     afc:	4c0a      	ldr	r4, [pc, #40]	; (b28 <__libc_init_array+0x44>)
     afe:	1b64      	subs	r4, r4, r5
     b00:	10a4      	asrs	r4, r4, #2
     b02:	42a6      	cmp	r6, r4
     b04:	d105      	bne.n	b12 <__libc_init_array+0x2e>
     b06:	bd70      	pop	{r4, r5, r6, pc}
     b08:	00b3      	lsls	r3, r6, #2
     b0a:	58eb      	ldr	r3, [r5, r3]
     b0c:	4798      	blx	r3
     b0e:	3601      	adds	r6, #1
     b10:	e7ee      	b.n	af0 <__libc_init_array+0xc>
     b12:	00b3      	lsls	r3, r6, #2
     b14:	58eb      	ldr	r3, [r5, r3]
     b16:	4798      	blx	r3
     b18:	3601      	adds	r6, #1
     b1a:	e7f2      	b.n	b02 <__libc_init_array+0x1e>
     b1c:	20000068 	.word	0x20000068
     b20:	20000068 	.word	0x20000068
     b24:	20000068 	.word	0x20000068
     b28:	20000070 	.word	0x20000070

00000b2c <free>:
     b2c:	b510      	push	{r4, lr}
     b2e:	4b03      	ldr	r3, [pc, #12]	; (b3c <free+0x10>)
     b30:	0001      	movs	r1, r0
     b32:	6818      	ldr	r0, [r3, #0]
     b34:	f000 f804 	bl	b40 <_free_r>
     b38:	bd10      	pop	{r4, pc}
     b3a:	46c0      	nop			; (mov r8, r8)
     b3c:	20000004 	.word	0x20000004

00000b40 <_free_r>:
     b40:	b570      	push	{r4, r5, r6, lr}
     b42:	0005      	movs	r5, r0
     b44:	2900      	cmp	r1, #0
     b46:	d010      	beq.n	b6a <_free_r+0x2a>
     b48:	1f0c      	subs	r4, r1, #4
     b4a:	6823      	ldr	r3, [r4, #0]
     b4c:	2b00      	cmp	r3, #0
     b4e:	da00      	bge.n	b52 <_free_r+0x12>
     b50:	18e4      	adds	r4, r4, r3
     b52:	0028      	movs	r0, r5
     b54:	f000 f9d0 	bl	ef8 <__malloc_lock>
     b58:	4a1d      	ldr	r2, [pc, #116]	; (bd0 <_free_r+0x90>)
     b5a:	6813      	ldr	r3, [r2, #0]
     b5c:	2b00      	cmp	r3, #0
     b5e:	d105      	bne.n	b6c <_free_r+0x2c>
     b60:	6063      	str	r3, [r4, #4]
     b62:	6014      	str	r4, [r2, #0]
     b64:	0028      	movs	r0, r5
     b66:	f000 f9c8 	bl	efa <__malloc_unlock>
     b6a:	bd70      	pop	{r4, r5, r6, pc}
     b6c:	42a3      	cmp	r3, r4
     b6e:	d909      	bls.n	b84 <_free_r+0x44>
     b70:	6821      	ldr	r1, [r4, #0]
     b72:	1860      	adds	r0, r4, r1
     b74:	4283      	cmp	r3, r0
     b76:	d1f3      	bne.n	b60 <_free_r+0x20>
     b78:	6818      	ldr	r0, [r3, #0]
     b7a:	685b      	ldr	r3, [r3, #4]
     b7c:	1841      	adds	r1, r0, r1
     b7e:	6021      	str	r1, [r4, #0]
     b80:	e7ee      	b.n	b60 <_free_r+0x20>
     b82:	0013      	movs	r3, r2
     b84:	685a      	ldr	r2, [r3, #4]
     b86:	2a00      	cmp	r2, #0
     b88:	d001      	beq.n	b8e <_free_r+0x4e>
     b8a:	42a2      	cmp	r2, r4
     b8c:	d9f9      	bls.n	b82 <_free_r+0x42>
     b8e:	6819      	ldr	r1, [r3, #0]
     b90:	1858      	adds	r0, r3, r1
     b92:	42a0      	cmp	r0, r4
     b94:	d10b      	bne.n	bae <_free_r+0x6e>
     b96:	6820      	ldr	r0, [r4, #0]
     b98:	1809      	adds	r1, r1, r0
     b9a:	1858      	adds	r0, r3, r1
     b9c:	6019      	str	r1, [r3, #0]
     b9e:	4282      	cmp	r2, r0
     ba0:	d1e0      	bne.n	b64 <_free_r+0x24>
     ba2:	6810      	ldr	r0, [r2, #0]
     ba4:	6852      	ldr	r2, [r2, #4]
     ba6:	1841      	adds	r1, r0, r1
     ba8:	6019      	str	r1, [r3, #0]
     baa:	605a      	str	r2, [r3, #4]
     bac:	e7da      	b.n	b64 <_free_r+0x24>
     bae:	42a0      	cmp	r0, r4
     bb0:	d902      	bls.n	bb8 <_free_r+0x78>
     bb2:	230c      	movs	r3, #12
     bb4:	602b      	str	r3, [r5, #0]
     bb6:	e7d5      	b.n	b64 <_free_r+0x24>
     bb8:	6821      	ldr	r1, [r4, #0]
     bba:	1860      	adds	r0, r4, r1
     bbc:	4282      	cmp	r2, r0
     bbe:	d103      	bne.n	bc8 <_free_r+0x88>
     bc0:	6810      	ldr	r0, [r2, #0]
     bc2:	6852      	ldr	r2, [r2, #4]
     bc4:	1841      	adds	r1, r0, r1
     bc6:	6021      	str	r1, [r4, #0]
     bc8:	6062      	str	r2, [r4, #4]
     bca:	605c      	str	r4, [r3, #4]
     bcc:	e7ca      	b.n	b64 <_free_r+0x24>
     bce:	46c0      	nop			; (mov r8, r8)
     bd0:	200000ec 	.word	0x200000ec

00000bd4 <_Z11ExpandGlyphPKhPt>:
 * Expand a 12*8 + 6*2*4 glyph into a zero padded 12*16 bitmap
 * The top 8 pixels of each row are stored in a byte array
 * The bottom 4 pixels of each row are stored in a nibble array following the byte array
 */
void ExpandGlyph(const uint8_t glyph[18], uint16_t *bitmap)
{
     bd4:	b5f0      	push	{r4, r5, r6, r7, lr}
     bd6:	0004      	movs	r4, r0
     bd8:	000d      	movs	r5, r1
    for (uint8_t col=0; col<6; col++) {
        uint8_t column= col<<1;      // display column
        uint8_t lsn= glyph[12+col];  // pointer to lower nibble of column data
        uint16_t c0= (glyph[column]<<8) + (lsn & 0xF0);
        uint16_t c1= (glyph[column+1]<<8) + ((lsn << 4) & 0xF0);
     bda:	27ff      	movs	r7, #255	; 0xff
     bdc:	340c      	adds	r4, #12
     bde:	3518      	adds	r5, #24
     be0:	7842      	ldrb	r2, [r0, #1]
        uint8_t lsn= glyph[12+col];  // pointer to lower nibble of column data
     be2:	7823      	ldrb	r3, [r4, #0]
        uint16_t c1= (glyph[column+1]<<8) + ((lsn << 4) & 0xF0);
     be4:	0212      	lsls	r2, r2, #8
     be6:	4694      	mov	ip, r2
        uint16_t c0= (glyph[column]<<8) + (lsn & 0xF0);
     be8:	7806      	ldrb	r6, [r0, #0]
        uint16_t c1= (glyph[column+1]<<8) + ((lsn << 4) & 0xF0);
     bea:	011a      	lsls	r2, r3, #4
        uint16_t c0= (glyph[column]<<8) + (lsn & 0xF0);
     bec:	0236      	lsls	r6, r6, #8
        uint16_t c1= (glyph[column+1]<<8) + ((lsn << 4) & 0xF0);
     bee:	403a      	ands	r2, r7
     bf0:	4462      	add	r2, ip
        uint16_t c0= (glyph[column]<<8) + (lsn & 0xF0);
     bf2:	46b4      	mov	ip, r6
     bf4:	260f      	movs	r6, #15
     bf6:	43b3      	bics	r3, r6
     bf8:	4463      	add	r3, ip
        *bitmap++= c0;
     bfa:	800b      	strh	r3, [r1, #0]
        *bitmap++= c1;
     bfc:	804a      	strh	r2, [r1, #2]
     bfe:	3104      	adds	r1, #4
     c00:	3401      	adds	r4, #1
     c02:	3002      	adds	r0, #2
    for (uint8_t col=0; col<6; col++) {
     c04:	428d      	cmp	r5, r1
     c06:	d1eb      	bne.n	be0 <_Z11ExpandGlyphPKhPt+0xc>
    }
}
     c08:	bdf0      	pop	{r4, r5, r6, r7, pc}

00000c0a <_Z10WriteGlyphPKh>:

/*
 * Send a 12*8 + 6*2*4 glyph to the HT1632C LED driver
 */
void WriteGlyph(const uint8_t glyph[18])
{
     c0a:	b57f      	push	{r0, r1, r2, r3, r4, r5, r6, lr}
    uint16_t bitmap[12];
    ExpandGlyph(glyph, bitmap);
     c0c:	4669      	mov	r1, sp
     c0e:	f7ff ffe1 	bl	bd4 <_Z11ExpandGlyphPKhPt>
    HT1632C_Write_Pattern(bitmap);
     c12:	4668      	mov	r0, sp
     c14:	f7ff fbb4 	bl	380 <_Z21HT1632C_Write_PatternPKt>
}
     c18:	b007      	add	sp, #28
     c1a:	bd00      	pop	{pc}

00000c1c <_ZN6CerealD1Ev>:
/*
 * yotta_modules/mbed-classic/api/SerialBase.h
 */
#include <SerialBase.h>

class Cereal : public mbed::SerialBase
     c1c:	4770      	bx	lr

00000c1e <_Z5delaym>:
void delay(uint32_t count) { for (volatile uint32_t t=count; --t; ); }
     c1e:	b082      	sub	sp, #8
     c20:	9001      	str	r0, [sp, #4]
     c22:	9b01      	ldr	r3, [sp, #4]
     c24:	3b01      	subs	r3, #1
     c26:	9301      	str	r3, [sp, #4]
     c28:	2b00      	cmp	r3, #0
     c2a:	d1fa      	bne.n	c22 <_Z5delaym+0x4>
     c2c:	b002      	add	sp, #8
     c2e:	4770      	bx	lr

00000c30 <_ZN6CerealD0Ev>:
     c30:	b510      	push	{r4, lr}
     c32:	0004      	movs	r4, r0
     c34:	f000 f94b 	bl	ece <_ZdlPv>
     c38:	0020      	movs	r0, r4
     c3a:	bd10      	pop	{r4, pc}

00000c3c <_ZN6Cereal4putsEPKc>:
{
     c3c:	b570      	push	{r4, r5, r6, lr}
     c3e:	0005      	movs	r5, r0
     c40:	000c      	movs	r4, r1
  while (*string) {
     c42:	7821      	ldrb	r1, [r4, #0]
     c44:	2900      	cmp	r1, #0
     c46:	d004      	beq.n	c52 <_ZN6Cereal4putsEPKc+0x16>
      _base_putc(*string++);
     c48:	0028      	movs	r0, r5
     c4a:	3401      	adds	r4, #1
     c4c:	f000 f86d 	bl	d2a <_ZN4mbed10SerialBase10_base_putcEi>
  while (*string) {
     c50:	e7f7      	b.n	c42 <_ZN6Cereal4putsEPKc+0x6>
}
     c52:	bd70      	pop	{r4, r5, r6, pc}

00000c54 <_ZN6Cereal6puthexEmj>:
{
     c54:	b5f7      	push	{r0, r1, r2, r4, r5, r6, r7, lr}
     c56:	0005      	movs	r5, r0
     c58:	2400      	movs	r4, #0
    c+= c<10? '0' : 'A'-10;
     c5a:	2630      	movs	r6, #48	; 0x30
     c5c:	2737      	movs	r7, #55	; 0x37
  while (d < digits || datum) {
     c5e:	42a2      	cmp	r2, r4
     c60:	d801      	bhi.n	c66 <_ZN6Cereal6puthexEmj+0x12>
     c62:	2900      	cmp	r1, #0
     c64:	d00e      	beq.n	c84 <_ZN6Cereal6puthexEmj+0x30>
    char c= datum & 0xF;
     c66:	200f      	movs	r0, #15
     c68:	000b      	movs	r3, r1
     c6a:	4003      	ands	r3, r0
     c6c:	469c      	mov	ip, r3
    c+= c<10? '0' : 'A'-10;
     c6e:	4660      	mov	r0, ip
     c70:	0033      	movs	r3, r6
     c72:	2809      	cmp	r0, #9
     c74:	d900      	bls.n	c78 <_ZN6Cereal6puthexEmj+0x24>
     c76:	003b      	movs	r3, r7
    dig[d++]= c;
     c78:	4668      	mov	r0, sp
    c+= c<10? '0' : 'A'-10;
     c7a:	4463      	add	r3, ip
    dig[d++]= c;
     c7c:	5423      	strb	r3, [r4, r0]
    datum >>= 4;
     c7e:	0909      	lsrs	r1, r1, #4
     c80:	3401      	adds	r4, #1
  while (d < digits || datum) {
     c82:	e7ec      	b.n	c5e <_ZN6Cereal6puthexEmj+0xa>
  while (d-- > 0) {
     c84:	3c01      	subs	r4, #1
     c86:	d305      	bcc.n	c94 <_ZN6Cereal6puthexEmj+0x40>
    _base_putc(dig[d]);
     c88:	466b      	mov	r3, sp
     c8a:	0028      	movs	r0, r5
     c8c:	5ce1      	ldrb	r1, [r4, r3]
     c8e:	f000 f84c 	bl	d2a <_ZN4mbed10SerialBase10_base_putcEi>
  while (d-- > 0) {
     c92:	e7f7      	b.n	c84 <_ZN6Cereal6puthexEmj+0x30>
}
     c94:	bdf7      	pop	{r0, r1, r2, r4, r5, r6, r7, pc}

00000c96 <_ZN6Cereal9putdigitsEmjj>:
{
     c96:	b5f0      	push	{r4, r5, r6, r7, lr}
     c98:	0005      	movs	r5, r0
     c9a:	2400      	movs	r4, #0
     c9c:	0008      	movs	r0, r1
    c+= c<10? '0' : 'A'-10;
     c9e:	2630      	movs	r6, #48	; 0x30
     ca0:	2737      	movs	r7, #55	; 0x37
{
     ca2:	b08b      	sub	sp, #44	; 0x2c
     ca4:	9200      	str	r2, [sp, #0]
     ca6:	9301      	str	r3, [sp, #4]
  while (d < digits || datum) {
     ca8:	9b01      	ldr	r3, [sp, #4]
     caa:	42a3      	cmp	r3, r4
     cac:	d801      	bhi.n	cb2 <_ZN6Cereal9putdigitsEmjj+0x1c>
     cae:	2800      	cmp	r0, #0
     cb0:	d00c      	beq.n	ccc <_ZN6Cereal9putdigitsEmjj+0x36>
     cb2:	9900      	ldr	r1, [sp, #0]
     cb4:	f7ff feec 	bl	a90 <__aeabi_uidivmod>
    c+= c<10? '0' : 'A'-10;
     cb8:	b2ca      	uxtb	r2, r1
     cba:	0033      	movs	r3, r6
     cbc:	2a09      	cmp	r2, #9
     cbe:	d900      	bls.n	cc2 <_ZN6Cereal9putdigitsEmjj+0x2c>
     cc0:	003b      	movs	r3, r7
     cc2:	185b      	adds	r3, r3, r1
    dig[d++]= c;
     cc4:	aa02      	add	r2, sp, #8
     cc6:	54a3      	strb	r3, [r4, r2]
     cc8:	3401      	adds	r4, #1
  while (d < digits || datum) {
     cca:	e7ed      	b.n	ca8 <_ZN6Cereal9putdigitsEmjj+0x12>
  while (d-- > 0) {
     ccc:	3c01      	subs	r4, #1
     cce:	d305      	bcc.n	cdc <_ZN6Cereal9putdigitsEmjj+0x46>
    _base_putc(dig[d]);
     cd0:	ab02      	add	r3, sp, #8
     cd2:	5ce1      	ldrb	r1, [r4, r3]
     cd4:	0028      	movs	r0, r5
     cd6:	f000 f828 	bl	d2a <_ZN4mbed10SerialBase10_base_putcEi>
  while (d-- > 0) {
     cda:	e7f7      	b.n	ccc <_ZN6Cereal9putdigitsEmjj+0x36>
}
     cdc:	b00b      	add	sp, #44	; 0x2c
     cde:	bdf0      	pop	{r4, r5, r6, r7, pc}

00000ce0 <_ZN4mbed10SerialBaseD1Ev>:
#endif

protected:
    SerialBase(PinName tx, PinName rx);
    virtual ~SerialBase() {
    }
     ce0:	4770      	bx	lr

00000ce2 <_ZN4mbed10SerialBase12_irq_handlerEm9SerialIrq>:
    }

    /** Call the attached static or member function
     */
    R call(){
        if (_membercaller == 0 && _p.function) {
     ce2:	2318      	movs	r3, #24
     ce4:	1c4a      	adds	r2, r1, #1
     ce6:	435a      	muls	r2, r3
     ce8:	4359      	muls	r1, r3
     cea:	1882      	adds	r2, r0, r2
     cec:	6892      	ldr	r2, [r2, #8]
     cee:	1843      	adds	r3, r0, r1
    } else {
        serial_irq_set(&_serial, (SerialIrq)type, 0);
    }
}

void SerialBase::_irq_handler(uint32_t id, SerialIrq irq_type) {
     cf0:	b510      	push	{r4, lr}
     cf2:	68db      	ldr	r3, [r3, #12]
     cf4:	2a00      	cmp	r2, #0
     cf6:	d103      	bne.n	d00 <_ZN4mbed10SerialBase12_irq_handlerEm9SerialIrq+0x1e>
     cf8:	2b00      	cmp	r3, #0
     cfa:	d000      	beq.n	cfe <_ZN4mbed10SerialBase12_irq_handlerEm9SerialIrq+0x1c>
            return _p.function();
     cfc:	4798      	blx	r3
    SerialBase *handler = (SerialBase*)id;
    handler->_irq[irq_type].call();
}
     cfe:	bd10      	pop	{r4, pc}
        } else if (_membercaller && _p.object) {
     d00:	2b00      	cmp	r3, #0
     d02:	d0fc      	beq.n	cfe <_ZN4mbed10SerialBase12_irq_handlerEm9SerialIrq+0x1c>
            return _membercaller(_p.object, _member);
     d04:	3110      	adds	r1, #16
     d06:	1841      	adds	r1, r0, r1
     d08:	0018      	movs	r0, r3
     d0a:	4790      	blx	r2
     d0c:	e7f7      	b.n	cfe <_ZN4mbed10SerialBase12_irq_handlerEm9SerialIrq+0x1c>

00000d0e <_ZN4mbed10SerialBaseD0Ev>:
    virtual ~SerialBase() {
     d0e:	b510      	push	{r4, lr}
     d10:	0004      	movs	r4, r0
    }
     d12:	f000 f8dc 	bl	ece <_ZdlPv>
     d16:	0020      	movs	r0, r4
     d18:	bd10      	pop	{r4, pc}

00000d1a <_ZN4mbed10SerialBase4baudEi>:
void SerialBase::baud(int baudrate) {
     d1a:	b570      	push	{r4, r5, r6, lr}
     d1c:	000d      	movs	r5, r1
     d1e:	0004      	movs	r4, r0
    serial_baud(&_serial, baudrate);
     d20:	3004      	adds	r0, #4
     d22:	f7ff fd45 	bl	7b0 <serial_baud>
    _baud = baudrate;
     d26:	63e5      	str	r5, [r4, #60]	; 0x3c
}
     d28:	bd70      	pop	{r4, r5, r6, pc}

00000d2a <_ZN4mbed10SerialBase10_base_putcEi>:

int SerialBase::_base_getc() {
    return serial_getc(&_serial);
}

int SerialBase::_base_putc(int c) {
     d2a:	b510      	push	{r4, lr}
     d2c:	000c      	movs	r4, r1
    serial_putc(&_serial, c);
     d2e:	3004      	adds	r0, #4
     d30:	f7ff fd80 	bl	834 <serial_putc>
    return c;
}
     d34:	0020      	movs	r0, r4
     d36:	bd10      	pop	{r4, pc}

00000d38 <mbed_main>:
// mbed_main(), it is not meant for user code, but for the SDK itself to perform
// initializations before main() is called.

extern "C" WEAK void mbed_main(void);
extern "C" WEAK void mbed_main(void) {
}
     d38:	4770      	bx	lr

00000d3a <mbed_sdk_init>:
     d3a:	4770      	bx	lr

00000d3c <__wrap_main>:
    return $Super$$main();
}
#elif defined(TOOLCHAIN_GCC)
extern "C" int __real_main(void);

extern "C" int __wrap_main(void) {
     d3c:	b510      	push	{r4, lr}
    mbed_sdk_init();
     d3e:	f7ff fffc 	bl	d3a <mbed_sdk_init>
    mbed_main();
     d42:	f7ff fff9 	bl	d38 <mbed_main>
    return __real_main();
     d46:	f7ff fb61 	bl	40c <main>
}
     d4a:	bd10      	pop	{r4, pc}

00000d4c <_exit>:

#ifdef TOOLCHAIN_GCC_CW
// TODO: Ideally, we would like to define directly "_ExitProcess"
extern "C" void mbed_exit(int return_code) {
#elif defined TOOLCHAIN_GCC_ARM
extern "C" void _exit(int return_code) {
     d4c:	b510      	push	{r4, lr}
#if DEVICE_SEMIHOST
    if (mbed_interface_connected()) {
        semihost_exit();
    }
#endif
    if (return_code) {
     d4e:	2800      	cmp	r0, #0
     d50:	d001      	beq.n	d56 <_exit+0xa>
        mbed_die();
     d52:	f000 f813 	bl	d7c <mbed_die>
     d56:	e7fe      	b.n	d56 <_exit+0xa>

00000d58 <wait_us>:

void wait_ms(int ms) {
    wait_us(ms * 1000);
}

void wait_us(int us) {
     d58:	b570      	push	{r4, r5, r6, lr}
     d5a:	0004      	movs	r4, r0
    uint32_t start = us_ticker_read();
     d5c:	f7ff fc7a 	bl	654 <us_ticker_read>
     d60:	0005      	movs	r5, r0
    while ((us_ticker_read() - start) < (uint32_t)us);
     d62:	f7ff fc77 	bl	654 <us_ticker_read>
     d66:	1b40      	subs	r0, r0, r5
     d68:	42a0      	cmp	r0, r4
     d6a:	d3fa      	bcc.n	d62 <wait_us+0xa>
}
     d6c:	bd70      	pop	{r4, r5, r6, pc}

00000d6e <wait_ms>:
    wait_us(ms * 1000);
     d6e:	23fa      	movs	r3, #250	; 0xfa
void wait_ms(int ms) {
     d70:	b510      	push	{r4, lr}
    wait_us(ms * 1000);
     d72:	009b      	lsls	r3, r3, #2
     d74:	4358      	muls	r0, r3
     d76:	f7ff ffef 	bl	d58 <wait_us>
}
     d7a:	bd10      	pop	{r4, pc}

00000d7c <mbed_die>:
#include "gpio_api.h"
#include "wait_api.h"
#include "toolchain.h"
#include "mbed_interface.h"

WEAK void mbed_die(void) {
     d7c:	b510      	push	{r4, lr}
     d7e:	b09a      	sub	sp, #104	; 0x68
	__disable_irq();	// dont allow interrupts to disturb the flash pattern
#endif
#if   (DEVICE_ERROR_RED == 1)
    gpio_t led_red; gpio_init_out(&led_red, LED_RED);
#elif (DEVICE_ERROR_PATTERN == 1)
    gpio_t led_1; gpio_init_out(&led_1, LED1);
     d80:	2103      	movs	r1, #3
     d82:	a802      	add	r0, sp, #8
     d84:	f000 f873 	bl	e6e <gpio_init_out>
    gpio_t led_2; gpio_init_out(&led_2, LED2);
     d88:	2102      	movs	r1, #2
     d8a:	a808      	add	r0, sp, #32
     d8c:	f000 f86f 	bl	e6e <gpio_init_out>
    gpio_t led_3; gpio_init_out(&led_3, LED3);
     d90:	2101      	movs	r1, #1
     d92:	a80e      	add	r0, sp, #56	; 0x38
     d94:	f000 f86b 	bl	e6e <gpio_init_out>
    gpio_t led_4; gpio_init_out(&led_4, LED4);
     d98:	2110      	movs	r1, #16
     d9a:	a814      	add	r0, sp, #80	; 0x50
     d9c:	f000 f867 	bl	e6e <gpio_init_out>
        gpio_write(&led_2, 0);
        gpio_write(&led_3, 0);
        gpio_write(&led_4, 1);
#endif

        wait_ms(150);
     da0:	2496      	movs	r4, #150	; 0x96
} gpio_t;

static inline void gpio_write(gpio_t *obj, int value) {
    MBED_ASSERT(obj->pin != (PinName)NC);
    if (value)
        *obj->reg_set = obj->mask;
     da2:	9b05      	ldr	r3, [sp, #20]
     da4:	9a03      	ldr	r2, [sp, #12]
     da6:	0020      	movs	r0, r4
     da8:	601a      	str	r2, [r3, #0]
    else
        *obj->reg_clr = obj->mask;
     daa:	9a09      	ldr	r2, [sp, #36]	; 0x24
     dac:	9b0c      	ldr	r3, [sp, #48]	; 0x30
     dae:	601a      	str	r2, [r3, #0]
     db0:	9a0f      	ldr	r2, [sp, #60]	; 0x3c
     db2:	9b12      	ldr	r3, [sp, #72]	; 0x48
     db4:	601a      	str	r2, [r3, #0]
        *obj->reg_set = obj->mask;
     db6:	9a15      	ldr	r2, [sp, #84]	; 0x54
     db8:	9b17      	ldr	r3, [sp, #92]	; 0x5c
     dba:	9201      	str	r2, [sp, #4]
     dbc:	601a      	str	r2, [r3, #0]
     dbe:	f7ff ffd6 	bl	d6e <wait_ms>
        *obj->reg_clr = obj->mask;
     dc2:	9b06      	ldr	r3, [sp, #24]
     dc4:	9a03      	ldr	r2, [sp, #12]
        gpio_write(&led_2, 1);
        gpio_write(&led_3, 1);
        gpio_write(&led_4, 0);
#endif

        wait_ms(150);
     dc6:	0020      	movs	r0, r4
     dc8:	601a      	str	r2, [r3, #0]
        *obj->reg_set = obj->mask;
     dca:	9a09      	ldr	r2, [sp, #36]	; 0x24
     dcc:	9b0b      	ldr	r3, [sp, #44]	; 0x2c
     dce:	601a      	str	r2, [r3, #0]
     dd0:	9a0f      	ldr	r2, [sp, #60]	; 0x3c
     dd2:	9b11      	ldr	r3, [sp, #68]	; 0x44
     dd4:	9201      	str	r2, [sp, #4]
     dd6:	601a      	str	r2, [r3, #0]
        *obj->reg_clr = obj->mask;
     dd8:	9a15      	ldr	r2, [sp, #84]	; 0x54
     dda:	9b18      	ldr	r3, [sp, #96]	; 0x60
     ddc:	601a      	str	r2, [r3, #0]
     dde:	f7ff ffc6 	bl	d6e <wait_ms>
     de2:	e7de      	b.n	da2 <mbed_die+0x26>

00000de4 <us_ticker_disable_interrupt>:
{
    //if (us_ticker_callbackPending) {
    //    //tmr1_disableCompareInterrupt();
    //    us_ticker_callbackPending = false;
    //}
}
     de4:	4770      	bx	lr

00000de6 <us_ticker_clear_interrupt>:
     de6:	4770      	bx	lr

00000de8 <ticker_irq_handler>:

    data->queue->event_handler = handler;
}

void ticker_irq_handler(const ticker_data_t *const data) {
    data->interface->clear_interrupt();
     de8:	6803      	ldr	r3, [r0, #0]
void ticker_irq_handler(const ticker_data_t *const data) {
     dea:	b570      	push	{r4, r5, r6, lr}
    data->interface->clear_interrupt();
     dec:	68db      	ldr	r3, [r3, #12]
void ticker_irq_handler(const ticker_data_t *const data) {
     dee:	0004      	movs	r4, r0
    data->interface->clear_interrupt();
     df0:	4798      	blx	r3

    /* Go through all the pending TimerEvents */
    while (1) {
        if (data->queue->head == NULL) {
     df2:	6863      	ldr	r3, [r4, #4]
     df4:	685a      	ldr	r2, [r3, #4]
     df6:	6823      	ldr	r3, [r4, #0]
     df8:	2a00      	cmp	r2, #0
     dfa:	d102      	bne.n	e02 <ticker_irq_handler+0x1a>
            // There are no more TimerEvents left, so disable matches.
            data->interface->disable_interrupt();
     dfc:	689b      	ldr	r3, [r3, #8]
     dfe:	4798      	blx	r3
            //      set it as next interrupt and return
            data->interface->set_interrupt(data->queue->head->timestamp);
            return;
        }
    }
}
     e00:	bd70      	pop	{r4, r5, r6, pc}
        if ((int)(data->queue->head->timestamp - data->interface->read()) <= 0) {
     e02:	685b      	ldr	r3, [r3, #4]
     e04:	6815      	ldr	r5, [r2, #0]
     e06:	4798      	blx	r3
     e08:	6863      	ldr	r3, [r4, #4]
     e0a:	1a2d      	subs	r5, r5, r0
            ticker_event_t *p = data->queue->head;
     e0c:	685a      	ldr	r2, [r3, #4]
        if ((int)(data->queue->head->timestamp - data->interface->read()) <= 0) {
     e0e:	2d00      	cmp	r5, #0
     e10:	dc07      	bgt.n	e22 <ticker_irq_handler+0x3a>
            data->queue->head = data->queue->head->next;
     e12:	6891      	ldr	r1, [r2, #8]
     e14:	6059      	str	r1, [r3, #4]
            if (data->queue->event_handler != NULL) {
     e16:	681b      	ldr	r3, [r3, #0]
     e18:	2b00      	cmp	r3, #0
     e1a:	d0ea      	beq.n	df2 <ticker_irq_handler+0xa>
                (*data->queue->event_handler)(p->id); // NOTE: the handler can set new events
     e1c:	6850      	ldr	r0, [r2, #4]
     e1e:	4798      	blx	r3
     e20:	e7e7      	b.n	df2 <ticker_irq_handler+0xa>
            data->interface->set_interrupt(data->queue->head->timestamp);
     e22:	6823      	ldr	r3, [r4, #0]
     e24:	6810      	ldr	r0, [r2, #0]
     e26:	691b      	ldr	r3, [r3, #16]
     e28:	4798      	blx	r3
            return;
     e2a:	e7e9      	b.n	e00 <ticker_irq_handler+0x18>

00000e2c <_gpio_init_out.part.1>:
        gpio_dir(gpio, PIN_INPUT);
        gpio_mode(gpio, mode);
    }
}

static inline void _gpio_init_out(gpio_t* gpio, PinName pin, PinMode mode, int value)
     e2c:	b570      	push	{r4, r5, r6, lr}
     e2e:	6843      	ldr	r3, [r0, #4]
     e30:	0004      	movs	r4, r0
     e32:	000d      	movs	r5, r1
    if (value)
     e34:	2a00      	cmp	r2, #0
     e36:	d00a      	beq.n	e4e <_gpio_init_out.part.1+0x22>
        *obj->reg_set = obj->mask;
     e38:	68c2      	ldr	r2, [r0, #12]
        *obj->reg_clr = obj->mask;
     e3a:	6013      	str	r3, [r2, #0]
{
    gpio_init(gpio, pin);
    if (pin != NC) {
        gpio_write(gpio, value);
        gpio_dir(gpio, PIN_OUTPUT);
     e3c:	0020      	movs	r0, r4
     e3e:	2101      	movs	r1, #1
     e40:	f000 f830 	bl	ea4 <gpio_dir>
        gpio_mode(gpio, mode);
     e44:	0029      	movs	r1, r5
     e46:	0020      	movs	r0, r4
     e48:	f000 f826 	bl	e98 <gpio_mode>
    }
}
     e4c:	bd70      	pop	{r4, r5, r6, pc}
     e4e:	6902      	ldr	r2, [r0, #16]
     e50:	e7f3      	b.n	e3a <_gpio_init_out.part.1+0xe>

00000e52 <gpio_init_out_ex>:

void gpio_init_out(gpio_t* gpio, PinName pin) {
    gpio_init_out_ex(gpio, pin, 0);
}

void gpio_init_out_ex(gpio_t* gpio, PinName pin, int value) {
     e52:	b570      	push	{r4, r5, r6, lr}
     e54:	000d      	movs	r5, r1
     e56:	0004      	movs	r4, r0
     e58:	0016      	movs	r6, r2
    gpio_init(gpio, pin);
     e5a:	f7ff fd25 	bl	8a8 <gpio_init>
    if (pin != NC) {
     e5e:	1c6b      	adds	r3, r5, #1
     e60:	d004      	beq.n	e6c <gpio_init_out_ex+0x1a>
     e62:	0032      	movs	r2, r6
     e64:	2100      	movs	r1, #0
     e66:	0020      	movs	r0, r4
     e68:	f7ff ffe0 	bl	e2c <_gpio_init_out.part.1>
    _gpio_init_out(gpio, pin, PullNone, value);
}
     e6c:	bd70      	pop	{r4, r5, r6, pc}

00000e6e <gpio_init_out>:
void gpio_init_out(gpio_t* gpio, PinName pin) {
     e6e:	b510      	push	{r4, lr}
    gpio_init_out_ex(gpio, pin, 0);
     e70:	2200      	movs	r2, #0
     e72:	f7ff ffee 	bl	e52 <gpio_init_out_ex>
}
     e76:	bd10      	pop	{r4, pc}

00000e78 <pin_mode>:
void pin_function(PinName pin, int function)
{
}

void pin_mode(PinName pin, PinMode mode)
{
     e78:	23a0      	movs	r3, #160	; 0xa0
     e7a:	0080      	lsls	r0, r0, #2
     e7c:	05db      	lsls	r3, r3, #23
     e7e:	18c0      	adds	r0, r0, r3
    MBED_ASSERT(pin != (PinName)NC);

    uint32_t pin_number = (uint32_t)pin;

    NRF_GPIO->PIN_CNF[pin_number] &= ~GPIO_PIN_CNF_PULL_Msk;
     e80:	23e0      	movs	r3, #224	; 0xe0
{
     e82:	b510      	push	{r4, lr}
    NRF_GPIO->PIN_CNF[pin_number] &= ~GPIO_PIN_CNF_PULL_Msk;
     e84:	240c      	movs	r4, #12
     e86:	00db      	lsls	r3, r3, #3
     e88:	58c2      	ldr	r2, [r0, r3]
    NRF_GPIO->PIN_CNF[pin_number] |= (mode << GPIO_PIN_CNF_PULL_Pos);
     e8a:	0089      	lsls	r1, r1, #2
    NRF_GPIO->PIN_CNF[pin_number] &= ~GPIO_PIN_CNF_PULL_Msk;
     e8c:	43a2      	bics	r2, r4
     e8e:	50c2      	str	r2, [r0, r3]
    NRF_GPIO->PIN_CNF[pin_number] |= (mode << GPIO_PIN_CNF_PULL_Pos);
     e90:	58c2      	ldr	r2, [r0, r3]
     e92:	4311      	orrs	r1, r2
     e94:	50c1      	str	r1, [r0, r3]
}
     e96:	bd10      	pop	{r4, pc}

00000e98 <gpio_mode>:

void gpio_mode(gpio_t *obj, PinMode mode)
{
     e98:	b510      	push	{r4, lr}
    pin_mode(obj->pin, mode);
     e9a:	7800      	ldrb	r0, [r0, #0]
     e9c:	b240      	sxtb	r0, r0
     e9e:	f7ff ffeb 	bl	e78 <pin_mode>
}
     ea2:	bd10      	pop	{r4, pc}

00000ea4 <gpio_dir>:

void gpio_dir(gpio_t *obj, PinDirection direction)
{
    MBED_ASSERT(obj->pin != (PinName)NC);
    switch (direction) {
     ea4:	2900      	cmp	r1, #0
     ea6:	d002      	beq.n	eae <gpio_dir+0xa>
     ea8:	2901      	cmp	r1, #1
     eaa:	d000      	beq.n	eae <gpio_dir+0xa>
                                        | (GPIO_PIN_CNF_PULL_Disabled << GPIO_PIN_CNF_PULL_Pos)
                                        | (GPIO_PIN_CNF_INPUT_Connect << GPIO_PIN_CNF_INPUT_Pos)
                                        | (GPIO_PIN_CNF_DIR_Output << GPIO_PIN_CNF_DIR_Pos);
            break;
    }
}
     eac:	4770      	bx	lr
            NRF_GPIO->PIN_CNF[obj->pin] = (GPIO_PIN_CNF_SENSE_Disabled << GPIO_PIN_CNF_SENSE_Pos)
     eae:	2300      	movs	r3, #0
     eb0:	22a0      	movs	r2, #160	; 0xa0
     eb2:	56c3      	ldrsb	r3, [r0, r3]
     eb4:	05d2      	lsls	r2, r2, #23
     eb6:	33c1      	adds	r3, #193	; 0xc1
     eb8:	33ff      	adds	r3, #255	; 0xff
     eba:	009b      	lsls	r3, r3, #2
     ebc:	5099      	str	r1, [r3, r2]
}
     ebe:	e7f5      	b.n	eac <gpio_dir+0x8>

00000ec0 <__aeabi_atexit>:
     ec0:	000b      	movs	r3, r1
     ec2:	b510      	push	{r4, lr}
     ec4:	0001      	movs	r1, r0
     ec6:	0018      	movs	r0, r3
     ec8:	f7ff fde8 	bl	a9c <__cxa_atexit>
     ecc:	bd10      	pop	{r4, pc}

00000ece <_ZdlPv>:
     ece:	b510      	push	{r4, lr}
     ed0:	f7ff fe2c 	bl	b2c <free>
     ed4:	bd10      	pop	{r4, pc}

00000ed6 <memcpy>:
     ed6:	2300      	movs	r3, #0
     ed8:	b510      	push	{r4, lr}
     eda:	429a      	cmp	r2, r3
     edc:	d100      	bne.n	ee0 <memcpy+0xa>
     ede:	bd10      	pop	{r4, pc}
     ee0:	5ccc      	ldrb	r4, [r1, r3]
     ee2:	54c4      	strb	r4, [r0, r3]
     ee4:	3301      	adds	r3, #1
     ee6:	e7f8      	b.n	eda <memcpy+0x4>

00000ee8 <memset>:
     ee8:	0003      	movs	r3, r0
     eea:	1812      	adds	r2, r2, r0
     eec:	4293      	cmp	r3, r2
     eee:	d100      	bne.n	ef2 <memset+0xa>
     ef0:	4770      	bx	lr
     ef2:	7019      	strb	r1, [r3, #0]
     ef4:	3301      	adds	r3, #1
     ef6:	e7f9      	b.n	eec <memset+0x4>

00000ef8 <__malloc_lock>:
     ef8:	4770      	bx	lr

00000efa <__malloc_unlock>:
     efa:	4770      	bx	lr

00000efc <_init>:
     efc:	b5f8      	push	{r3, r4, r5, r6, r7, lr}
     efe:	46c0      	nop			; (mov r8, r8)
     f00:	bcf8      	pop	{r3, r4, r5, r6, r7}
     f02:	bc08      	pop	{r3}
     f04:	469e      	mov	lr, r3
     f06:	4770      	bx	lr

00000f08 <_fini>:
     f08:	b5f8      	push	{r3, r4, r5, r6, r7, lr}
     f0a:	46c0      	nop			; (mov r8, r8)
     f0c:	bcf8      	pop	{r3, r4, r5, r6, r7}
     f0e:	bc08      	pop	{r3}
     f10:	469e      	mov	lr, r3
     f12:	4770      	bx	lr

00000f14 <_ZTV6Cereal>:
	...
     f1c:	0c1d 0000 0c31 0000                         ....1...

00000f24 <_ZTVN4mbed10SerialBaseE>:
	...
     f2c:	0ce1 0000 0d0f 0000                         ........

00000f34 <acceptedSpeeds>:
     f34:	04b0 0000 f000 0004 0960 0000 d000 0009     ........`.......
     f44:	12c0 0000 b000 0013 2580 0000 5000 0027     .........%...P'.
     f54:	3840 0000 0000 003b 4b00 0000 a000 004e     @8....;..K....N.
     f64:	7080 0000 f000 0075 7a12 0000 0000 0080     .p....u..z......
     f74:	9600 0000 5000 009d e100 0000 f000 00eb     .....P..........
     f84:	2c00 0001 9000 013a c200 0001 e000 01d7     .,....:.........
     f94:	8400 0003 b000 03af d090 0003 0000 0400     ................
     fa4:	0800 0007 7000 075f 1000 000e dfa4 0ebe     .....p_.........
     fb4:	4240 000f 0000 1000                         @B......

00000fbc <us_data>:
     fbc:	0fc4 0000 00e4 2000                         ....... 

00000fc4 <us_interface>:
     fc4:	05c9 0000 0655 0000 0de5 0000 0de7 0000     ....U...........
     fd4:	066d 0000                                   m...

00000fd8 <__sf_fake_stderr>:
	...

00000ff8 <__sf_fake_stdin>:
	...

00001018 <__sf_fake_stdout>:
	...

00001038 <_global_impure_ptr>:
    1038:	0008 2000                                   ... 

0000103c <_ZL3com>:
    103c:	0400 0c08 1410 1c18 2420 2c28               ........ $(,

00001048 <charcode>:
    1048:	4e00 0000 594e 4e00 008c 4153 4e00 0001     .N..NY.N..SA.N..
    1058:	8253 4e00 0003 5c53 5100 006b ba4e 5100     S..N..S\.Qk.N..Q
    1068:	0065 3f51 5300 0015 e051 4e00 005d 0152     e.Q?.S..Q..N].R.
    1078:	4e00 0086 0052 5200 009b 434e 5300 00c8     .N..R..R..NC.S..
    1088:	094e 5e00 0072 8e4e 4e00 008f e55d 5700     N..^r.N..N..]..W
    1098:	001f eb58 6200 004d 0b4e 5b00 00f8 2759     ..X..bM.N..[..Y'
    10a8:	4e00 0008 0e4e 4e00 0007 0a4e 5c00 000f     .N..N..N..N..\..
    10b8:	e353 5c00 0071 fe5d 5300 0043 5e4e 5d00     S..\q.]..SC.N^.]
    10c8:	00dd bf4e 4e00 002a 1559 4e00 0045 484e     ..N..N*.Y..NE.NH
    10d8:	5200 00fa e151 4e00 0038 ca53 5e00 007f     .R..Q..N8.S..^..
    10e8:	a14e 9500 00e8 2b4e 4e00 0049 4b4e 5c00     N.....N+.NI.NK.\
    10f8:	0038 f15d 5d00 00f2 f35d 5f00 0013 505b     8.]..]..].._..[P
    1108:	5300 006b 5f4e 5900 0073 0352 9800 00de     .Sk.N_.Ys.R.....
    1118:	604e 5300 00c9 6c9a 4e00 0061 304e 7300     N`.S...l.Na.N0.s
    1128:	008b 005f 4e00 0095 2959 5900 002b 4351     .._..N..Y).Y+.QC
    1138:	6500 00e0 914e 4e00 0013 104e 6200 004e     .e..N..N..N..bN.
    1148:	7a82 6700 0028 944e 6500 002f 8553 4e00     .z.g(.N..e/.S..N
    1158:	000d ac72 5900 002a 3a53 5300 0086 796b     ..r..Y*.S:.S..ky
    1168:	5300 00cb 245c 5300 0039 668f 5d00 00e8     .S..\$.S9..f.]..
    1178:	5972 5c00 006f 0862 6b00 00d4 924e 5200     rY.\o.b..k..N..R
    1188:	0007 e674 6b00 0062 115c 6600 00f0 e565     ..t..kb.\..f..e.
    1198:	4e00 002d 1d8d 5100 0088 8551 6c00 0034     .N-....Q..Q..l4.
    11a8:	c189 5300 0048 5b72 6200 004b 146c 6b00     ...SH.r[.bK.l..k
    11b8:	00db ec58 5300 0047 2d59 9500 007f c14e     ..X..SG.Y-....N.
    11c8:	4e00 00c0 4772 4e00 00c6 1653 4e00 00c7     .N..rG.N..S..N..
    11d8:	015e 4e00 00cd c54e 6500 00a4 2a72 5300     ^..N..N..e..r*.S
    11e8:	00cd cb4e 7200 0036 ce4e 4e00 00d1 ca4e     ..N..r6.N..N..N.
    11f8:	5100 00f6 0652 4e00 004f 6c51 4e00 00d3     .Q..R..NO.Ql.N..
    1208:	0867 6c00 000f ff52 6b00 0020 ce98 4e00     g..l..R..k ....N
    1218:	0039 0053 4e00 004c fe52 5100 00e4 6d51     9.S..NL.R..Q..Qm
    1228:	6500 0087 a24e 6500 00b9 6b70 4e00 003a     .e..N..e..pk.N:.
    1238:	9765 5f00 00c6 a18b 8b00 00a2 3762 8b00     e.._........b7..
    1248:	00a4 9751 8b00 00a5 c35f 5c00 003a 155f     ..Q....._..\:._.
    1258:	4e00 0011 f45d 5b00 0054 1f96 5200 009e     .N..]..[T....R..
    1268:	e54e 5100 0041 884e 9000 0093 9d52 5300     N..QA.N.....R..S
    1278:	00cc 664e 5e00 007b 8973 5200 000a 2a67     ..Nf.^{.s..R..g*
    1288:	6700 002b 3a79 5100 00fb 5362 5d00 00e7     .g+.y:.Q..bS.]..
    1298:	636b 6200 0051 4953 6200 0052 9f52 6200     kc.bQ.SI.bR.R..b
    12a8:	0054 bb53 7500 0018 164e 8200 007e e453     T.S..u..N...~.S.
    12b8:	8200 0082 2c67 6700 002f ef53 4e00 0019     ....g,.g/.S..N..
    12c8:	e65d 5300 0089 f377 5300 00f3 035e 5900     ]..S..w..S..^..Y
    12d8:	002f 0a62 9f00 0099 735e 7000 006d 678f     /.b.....^s.pm..g
    12e8:	4e00 001c 6153 5300 0017 6053 5100 00f8     .N..Sa.S..S`.Q..
    12f8:	6253 4e00 001a e765 5e00 0005 525f 6500     Sb.N..e..^.._R.e
    1308:	00e6 ee76 4e00 0014 f653 7500 0032 3375     ..v..N..S..u2.u3
    1318:	5300 00ee 3575 5300 00f7 3075 7500 0031     .S..u5.S..u0.u1.
    1328:	ea53 5300 00ed f253 5900 002e 4451 5300     S..S..S..Y..QD.S
    1338:	00fd fc53 5300 00eb e953 5300 00e8 e653     ..S..S..S..S..S.
    1348:	5300 00f9 8951 7600 00bf f951 5600 00da     .S..Q..v..Q..V..
    1358:	db56 7500 001f e277 5900 0031 4d4e 7900     V..u..w..Y1.NM.y
    1368:	00be 184e 4e00 00d8 d74e 4e00 00e3 d94e     ..N..N..N..N..N.
    1378:	4e00 00ec ea4e 7600 007d d44e 4e00 00d6     .N..N..v}.N..N..
    1388:	a565 7400 00dc 4e4e 4e00 001b e44e 7500     e..t..NN.N..N..u
    1398:	0028 2975 5300 0070 145c 4e00 0050 e553     (.u).Sp.\..NP.S.
    13a8:	5300 0006 8c51 5300 006f af72 5900 0016     .S..Q..So.r..Y..
    13b8:	0459 5100 00ac 1f9e 5200 00a1 0553 9900     Y..Q.....R..S...
    13c8:	0065 3b4e 5e00 0002 cb7a 5100 00af 8473     e.N;.^..z..Q..s.
    13d8:	9500 00ea 7051 5300 004a 416c 6c00 0047     ....Qp.SJ.lA.lG.
    13e8:	3459 6c00 0049 815b 7a00 0074 835b 8b00     Y4.lI.[..zt.[...
    13f8:	00a8 9951 8b00 00a9 3c79 8b00 00ad ae8b     ..Q.....y<......
    1408:	5f00 00c5 af8b 8b00 00b0 386c 5300 00f8     ._........l8.S..
    1418:	3c5c 6c00 0011 175f 5f00 0018 fa51 8f00     \<.l.._.._..Q...
    1428:	00bd 7659 5900 0074 ec53 5200 00a0 ae76     ..Yv.Yt.S..R..v.
    1438:	8f00 00b9 555b 5300 00d1 2357 5b00 00f9     ....[U.S..W#.[..
    1448:	f053 7700 00db a07e 6b00 00cd 7c5e 4e00     S..w..~..k..^|.N
    1458:	001d a690 5f00 000f c28f 5200 0011 0e62     ....._.....R..b.
    1468:	5200 00a8 5b62 5b00 00fa 0954 6200 0063     .R..b[.[..T..bc.
    1478:	0380 6200 0058 0180 5d00 00e9 3e57 6200     ...bX....]..W>.b
    1488:	0067 6962 6200 006b 3057 5700 003a 6c62     g.bi.bk.W0.W:.bl
    1498:	8000 0033 8b82 5100 0071 9282 4e00 009a     ..3....Qq....N..
    14a8:	9d82 6700 003d 3467 6700 003a 4367 8f00     ...g=.g4.g:.gC..
    14b8:	00c7 e381 5400 000f 8d51 5300 004f 7f89     .....T..Q..SO...
    14c8:	5300 008b 8c53 6200 000c 2857 7600 007e     .S..S..b..W(.v~.
    14d8:	0967 5b00 0058 0c80 9800 0075 2053 5900     g..[X.....u.S .Y
    14e8:	0038 3a59 7000 0070 be8f 5200 0017 7b6b     8.Y:.pp....R..k{
    14f8:	6200 0010 3959 5900 0037 688f 9000 00aa     .b..Y9.Y7..h....
    1508:	275c 5200 0012 c88f 6b00 00d5 f381 6b00     \'.R.....k.....k
    1518:	0064 1e8d 5e00 0008 185c 5c00 0016 a352     d....^..\..\..R.
    1528:	5100 0049 535f 6500 00e9 0154 5400 0010     .QI._S.e..T..T..
    1538:	1354 8600 006b f266 5600 00e2 1554 5400     T...k.f..V..T..T
    1548:	000c 0a54 5400 0003 e056 5400 0038 1754     ..T..T..V..T8.T.
    1558:	5400 0006 7f5c 5c00 0079 815c 5e00 0006     .T..\..\y.\..^..
    1568:	de56 5c00 0082 1952 5200 001a 517f 8000     V..\..R..R...Q..
    1578:	0089 745e 6700 0031 4851 4e00 0022 f75e     ..^t.g1.QH.N".^.
    1588:	8200 000c f97a 8f00 00c1 544e 8f00 00c4     ....z.....NT....
    1598:	1f4f 4f00 0020 524e 4e00 0053 114f 4f00     O..O .NR.NS.O..O
    15a8:	000d 0f4f 4f00 0018 fc81 4f00 0010 f65e     ..O..O.....O..^.
    15b8:	4e00 00f2 f64e 4e00 00fb 244f 4e00 00f7     .N..N..N..O$.N..
    15c8:	264f 4e00 00fd 4e53 4e00 00f0 ff4e 4f00     O&.N..SN.N..N..O
    15d8:	0019 2a4f 8100 00ea 0a4f 8800 0040 1154     ..O*....O...@.T.
    15e8:	4f00 003c 0e54 8800 004c 1f82 5100 0068     .O<.T...L....Qh.
    15f8:	1a4f 6700 0040 0854 5100 0046 014f 4f00     O..g@.T..QF.O..O
    1608:	0017 3772 4f00 001e 1b52 8000 008c 8b80     ..r7.O..R.......
    1618:	6700 0035 4267 5300 0071 ec65 6500 00e8     .g5.gB.Sq.e..e..
    1628:	ed65 8d00 001f 0853 5400 000d 0454 5900     e.....S..T..T..Y
    1638:	001a 894e 8200 0072 ee58 5100 00b2 8659     ..N...r.X..Q..Y.
    1648:	5100 00b0 845e 5e00 0086 a64e 5200 0018     .Q..^..^..N..R..
    1658:	509f 4e00 00a4 6388 6b00 0021 a74e 5100     .P.N...c.k!.N..Q
    1668:	00b3 a54e 5100 0045 8459 9500 00ed ee95     ..N..QE.Y.......
    1678:	9500 00ef 8a7f 5e00 0076 7351 7c00 0073     .......^v.Qs.|s.
    1688:	6f70 5d00 00de 576c 6c00 0061 5f6c 6c00     po.]..lW.la.l_.l
    1698:	005b 606c 6c00 005d 646c 5f00 00d9 7451     [.l`.l].ld._..Qt
    16a8:	5b00 0087 885b 5b00 0085 575b 5b00 0089     .[..[..[..[W.[..
    16b8:	b28b 8b00 00b3 9b51 8b00 00b6 b88b 8b00     ......Q.........
    16c8:	00b9 ba8b 8b00 00bc 9c51 8b00 00bd be8b     ........Q.......
    16d8:	8b00 00bf c08b 5b00 00fb a390 8f00 00c5     .......[........
    16e8:	3d5c 5b00 00fc 025f 5f00 001b 595b 9600     \=.[.._.._..[Y..
    16f8:	0035 3396 6500 0036 3696 9600 0034 3296     5..3.e6..6..4..2
    1708:	5900 0078 8259 5900 0087 8359 5900 007d     .Yx.Y..Y..Y..Y}.
    1718:	7959 5900 0088 0f62 7f00 00bd c289 6b00     Yy.Y..b........k
    1728:	0022 704e 7e00 00a2 6e9a 7e00 00a4 6f9a     ".Np.~...n.~...o
    1738:	7e00 00a6 a77e 7e00 00aa 709a 7e00 00ab     .~..~..~...p.~..
    1748:	e15d 5b00 00ff 045f 9e00 00a6 9673 7300     ]..[.._.....s..s
    1758:	009b 625f 8f00 00db 1262 5400 001e dc8f     .._b....b..T....
    1768:	8f00 00dd e797 8f00 00d0 7662 6200 009a     ..........bv.b..
    1778:	5b57 6200 0080 4f57 6200 00a0 7062 6200     W[.b..WO.b..bp.b
    1788:	007c d262 6200 007e 7962 5700 0040 6f62     |.b..b~.by.W@.bo
    1798:	8d00 0070 8462 8d00 0021 5e6c 5700 005d     ..p.b...!.l^.W].
    17a8:	3b65 8d00 0064 9862 6200 0093 7362 6200     e;..d.b..b..bs.b
    17b8:	00a1 6e62 6200 00a2 5d5b 5700 004e 4757     ..bn.b..[].WN.WG
    17c8:	6200 0091 9b62 6200 0095 5f57 5700 0051     .b..b..b..W_.WQ.
    17d8:	9762 5700 004a 9662 6200 00a4 f358 5f00     b..WJ.b..b..X.._
    17e8:	00d7 5757 6200 006d f058 6200 008a a562     ..WW.bm.X..b..b.
    17f8:	6200 00df 7453 6200 0092 ab52 8200 0099     .b..St.b..R.....
    1808:	9c82 8200 00c7 bd82 8200 00b1 b982 8200     ................
    1818:	00a5 ac82 8200 00cd b382 4e00 0025 a682     ...........N%...
    1828:	8200 00af b352 5100 004b ad82 8200 00cf     ....R..QK.......
    1838:	4667 6700 0060 5c67 6700 0050 5167 6700     gF.g`.g\.gP.gQ.g
    1848:	0056 4f67 6700 0049 eb5d 6700 0081 4e67     V.gO.gI.]..g..gN
    1858:	6700 0068 426c 7500 002b 2353 6600 00f4     .gh.lB.u+.S#.f..
    1868:	5f67 5400 003e 468c 4e00 0024 4991 4e00     g_.T>..F.N$..I.N
    1878:	003d 3b53 8f00 00b0 b152 5400 0026 d88f     =.S;....R..T&...
    1888:	5c00 002c 7c6b 6700 0065 de8f 8f00 0069     .\,.k|.ge.....i.
    1898:	656b 5300 0064 5a57 8000 0096 f165 7600     ke.Sd.WZ....e..v
    18a8:	00ef 4854 6500 00f6 3454 5200 00a9 bf53     ..TH.e..T4.R..S.
    18b8:	9100 00cc 4654 5400 0031 2054 5400 0055     ....TF.T1.T .TU.
    18c8:	ed56 6500 00f7 f456 5400 0040 2854 8d00     V..e..V..T@.T(..
    18d8:	00b3 ae90 7500 0037 f056 5400 0035 324e     .....u7.V..T5.N2
    18e8:	5400 0058 5054 5400 002c 1f54 5400 0029     .TX.TP.T,.T..T).
    18f8:	5b54 5400 003b 3954 5400 005c 2d54 5400     T[.T;.T9.T\.T-.T
    1908:	0027 9190 5400 003c e456 5200 002b 2e54     '....T<.V..R+.T.
    1918:	5c00 0096 975c 5e00 0010 228d 9400 0088     .\..\..^..."....
    1928:	8994 7200 0061 4a54 6200 0011 714e 5200     ...ra.TJ.b..Nq.R
    1938:	0029 c379 7900 00c0 c179 6b00 00cf 7551     ).y..y..y..k..Qu
    1948:	4f00 0030 534f 4f00 0055 504f 4f00 0051     .O0.OS.OU.OP.OQ.
    1958:	464f 4f00 0038 434f 4f00 005c 2f4f 4f00     OF.O8.OC.O\.O/.O
    1968:	0036 634f 4f00 004e 604f 4f00 004f 4d4f     6.Oc.ON.O`.OO.OM
    1978:	4f00 0034 ab8e 7600 0082 3a4f 4f00 005b     .O4....v..O:.O[.
    1988:	f156 8f00 00d1 7b5f 5f00 0079 d48f 4f00     V....._{._y....O
    1998:	0059 0c5e 5700 0050 378c 5900 00a5 2b54     Y.^..WP..7.Y..T+
    19a8:	9000 00bb 945c 8000 009d 9b80 8000 009a     ....\...........
    19b8:	9880 8000 00a0 9f9f 7500 0038 4d51 7200     .........u8.QM.r
    19c8:	00c2 b972 7200 00c8 d289 5200 0020 6167     ..r..r.....R .ga
    19d8:	5f00 0064 7553 7000 0078 9b5c 5200 0028     ._d.Su.px.\..R(.
    19e8:	ce8f 9900 006d 6e99 7c00 00fb 008a 5100     ....m..n.|.....Q
    19f8:	00bb b672 4e00 00a9 b551 5e00 008a 935e     ..r..N..Q..^..^.
    1a08:	5e00 0087 9775 5400 001d 945e 8f00 00d9     .^..u..T..^.....
    1a18:	b751 5e00 0090 8f5e 8f00 009b 035f 5100     Q..^..^....._..Q
    1a28:	00b6 d85f 9500 00f0 f295 9500 00f4 f795     .._.............
    1a38:	5200 0024 5151 7000 0076 7f70 7000 007c     .R$.QQ.pv.p..p|.
    1a48:	1f5f 6c00 006a 906c 6c00 009b 706c 6c00     _..lj.l..l..lp.l
    1a58:	00a5 996c 6c00 007d 836c 6c00 00a6 796c     ..l..l}.l..l..ly
    1a68:	6c00 00db a76c 6c00 00a1 9f6c 6c00 00aa     .l..l..l..l..l..
    1a78:	886c 6c00 0089 816c 6000 0000 e75f 5f00     l..l..l..`.._.._
    1a88:	00f1 eb5f 5b00 008c 8b5b 5b00 008f 6272     .._..[..[..[..rb
    1a98:	7a00 0076 777a 7000 007e 6f82 8b00 00c1     .zv.zw.p~..o....
    1aa8:	2f54 8b00 00c4 6588 5200 001d 3e79 7900     T/.....e.R..y>.y
    1ab8:	0040 c68b 8b00 00c8 c98b 7f00 0055 ca8b     @...........U...
    1ac8:	8b00 00cd d18b 5400 001b 7570 5300 0073     .......T..pu.Ss.
    1ad8:	425c 5c00 0041 3f5c 5c00 003e df8f 5c00     \B.\A.\?.\>....\
    1ae8:	0040 3965 5f00 0020 cc5f 9600 0045 4696     @.e9._ ._...E..F
    1af8:	9600 003f 4896 9600 003b 4496 5700 0060     ..?..H..;..D.W`.
    1b08:	9359 5900 0099 9659 5900 00ca a859 5900     Y..Y..Y..Y..Y..Y
    1b18:	0092 aa52 5f00 00cd b252 7700 00e3 219e     ..R.._..R..w...!
    1b28:	7e00 00ac 719a 7e00 00af b17e 7e00 00b2     .~...q.~..~..~..
    1b38:	b37e 9a00 0073 b57e 7e00 00b7 b87e 7e00     ~...s.~..~..~..~
    1b48:	00b9 ba7e 9a00 0074 bd7e 5900 0049 a973     ..~...t.~..YI.s.
    1b58:	7300 00af 666b 9700 0052 238d 7300 00b0     .s..kf..R..#.s..
    1b68:	ab73 8800 0068 c489 6200 00b9 6653 5700     s...h....b..Sf.W
    1b78:	0077 6f57 6200 00d3 e262 6200 00d4 6a57     w.Wo.b..b..b..Wj
    1b88:	6200 00e3 6657 6200 00c5 6457 6200 00bc     .b..Wf.b..Wd.b..
    1b98:	bd62 6200 00d0 d662 8000 0005 cd62 9800     b..b..b.....b...
    1ba8:	0076 c662 6200 00ce e562 6200 00b5 d862     v.b..b..b..b..b.
    1bb8:	5200 00bf b162 6200 00c4 8357 6200 00c9     .R..b..b..W..b..
    1bc8:	e662 5e00 0078 cc62 6200 00e7 c262 6200     b..^x.b..b..b..b
    1bd8:	00d9 db62 5700 0061 ab62 6200 00e8 e962     ..b..Wa.b..b..b.
    1be8:	6200 00ac c762 6200 00d7 7651 5300 00d6     .b..b..b..Qv.S..
    1bf8:	0983 8200 00e6 1466 8200 00db e582 8300     ......f.........
    1c08:	0002 f982 8200 00d7 f182 8200 00df d182     ................
    1c18:	8200 00de 0383 7600 00f4 0183 8300 0004     .......v........
    1c28:	0e83 8200 00d4 0583 6700 0089 9767 6700     .........g..g..g
    1c38:	009d 6f67 6700 00a2 dc67 6700 009a 9067     ..go.g..g..g..g.
    1c48:	6700 007f 7e67 6700 00aa ab67 6700 0084     .g..g~.g..g..g..
    1c58:	6d67 6700 0070 f08f 6700 0095 274e 6200     gm.gp....g..N'.b
    1c68:	0016 3b75 5300 0067 8b4e 5200 003a a367     ..u;.Sg.N..R:.g.
    1c78:	9600 00e8 5653 9000 00c1 fe77 7700 00ff     ....SV....w..w..
    1c88:	0178 5300 0095 4859 5900 0054 4759 5900     x..S..YH.YT.YG.Y
    1c98:	004b 0160 6b00 0027 b46b 5700 0084 bb59     K.`..k'.k..W..Y.
    1ca8:	8f00 0070 7798 8f00 006c a965 8f00 006e     ..p..w..l.e...n.
    1cb8:	6f8f 5200 0030 5e97 5300 00d4 676b 8000     .o.R0..^.S..kg..
    1cc8:	00af 7f9f 4e00 009b 5353 8600 004e 4f86     .....N..SS..N..O
    1cd8:	8000 00be 248d 5c00 001a fa65 5100 0077     .....$.\..e..Qw.
    1ce8:	7354 6700 009c 0666 5600 00fd ce54 5400     Ts.g..f..V..T..T
    1cf8:	0095 0c66 5400 0075 4575 6600 000e 1366     ..f..Tu.uE.f..f.
    1d08:	5400 0099 0266 8f00 00ea 7851 5600 00fa     .T..f.....Qx.V..
    1d18:	e05f 5400 007b 9254 5400 008b 9054 5400     _..T{.T..T..T..T
    1d28:	007c 239e 5400 008f 6254 5400 0084 9654     |..#.T..Tb.T..T.
    1d38:	5c00 00b8 a95c 5e00 0016 577f 5e00 001c     .\..\..^...W.^..
    1d48:	155e 5c00 00ad ef51 8d00 0025 268d 8d00     ^..\..Q...%..&..
    1d58:	0029 2c8d 8d00 002d 2e8d 5600 00fe 9394     )..,..-....V....
    1d68:	5200 0036 e577 8f00 00ed 1b6c 5700 0082     .R6.w.....l..W..
    1d78:	6772 7200 0069 564e 5200 002e c679 5400     rg.ri.NV.R..y..T
    1d88:	008c 635b 5900 00d4 c979 4f00 0073 8d4f     ..[c.Y..y..Os.O.
    1d98:	5c00 00b3 9b4f 4f00 007f 8b4f 4f00 00a0     .\..O..O..O..O..
    1da8:	a54f 7200 0048 844f 4f00 00a6 a34f 4f00     O..rH.O..O..O..O
    1db8:	00a7 ed51 4f00 00a8 694f 8d00 0027 884f     ..Q..O..Oi..'.O.
    1dc8:	4f00 009d 5153 7600 0084 eb8f 8d00 0028     .O..SQ.v......(.
    1dd8:	236b 5f00 0081 805f 7200 002c 7c5f 5f00     k#._.._..r,._|._
    1de8:	0084 4062 8200 000d d191 5200 0039 7d54     ..b@.......R9.T}
    1df8:	8000 00b4 a765 7200 0038 c791 8900 00c5     ....e..r8.......
    1e08:	d753 4e00 0073 2a8d 5f00 00f5 2b8d 5f00     S..Ns..*._...+._
    1e18:	00ff a480 8000 00ba a280 8000 00bf c080     ................
    1e28:	6700 000b a180 8000 00ae aa80 8000 00a5     .g..............
    1e38:	0d67 8000 00c1 6854 6600 000f 7c9c 5100     g.....Th.f...|.Q
    1e48:	0054 d072 5f00 00fd d772 7200 00de 0759     T.r.._..r..r..Y.
    1e58:	9900 0070 7199 9900 0072 d853 4e00 00ac     ..p..q..r.S..N..
    1e68:	ab4e 5e00 009e 975e 5900 001c 995e 5e00     N..^..^..Y..^..^
    1e78:	009c 955e 7500 009f 9975 7500 009a 4252     ..^..u..u..u..RB
    1e88:	5300 0052 ca90 5e00 009a 9f5e 5100 00c0     .SR....^..^..Q..
    1e98:	f276 6500 003e 3b52 8000 00b2 136c 9500     v..e>.R;....l...
    1ea8:	00f8 f995 9000 00d1 3852 5300 0077 5553     ........R8.Sw.SU
    1eb8:	7000 00ac 9270 7000 008a 9570 7000 008e     .p..p..p..p..p..
    1ec8:	8970 6c00 00ab 456d 6c00 00d5 c46c 6c00     p..l..mE.l..l..l
    1ed8:	00bd b36c 6c00 00be ea6c 6c00 00ae b96c     ..l..l..l..l..l.
    1ee8:	6c00 00ca bf6c 6c00 00e1 e86c 6c00 00e3     .l..l..l..l..l..
    1ef8:	de6c 6c00 00fb cc6c 6c00 00f3 e56c 6c00     l..l..l..l..l..l
    1f08:	00b8 bc6c 6c00 00e2 fc6c 6c00 00fd bb6c     ..l..l..l..l..l.
    1f18:	6000 0014 2f60 6000 0016 2760 6000 0015     .`..`/.`..`'.`..
    1f28:	1c60 6000 002a 2160 5b00 0066 9d5b 5b00     `..`*.`!.[f.[..[
    1f38:	0097 9a5b 5b00 00a0 9c5b 5b00 00a1 995b     ..[..[..[..[..[.
    1f48:	5b00 0098 7a7a 5e00 0018 9b5b 5b00 009e     .[..zz.^..[..[..
    1f58:	d58b 9000 00ce d78b 8000 00a9 3f62 8b00     ............b?..
    1f68:	00da 6c88 8800 006b c689 7900 0048 dd8b     ...l..k....yH...
    1f78:	8b00 00de e18b 8b00 00e2 e58b 8b00 00e6     ................
    1f88:	fa5e 8000 0083 555f 9600 00b6 1a5e 5c00     ^....._U....^..\
    1f98:	0049 455c 5c00 004a 3752 5c00 0048 275f     I.\E.\J.R7.\H._'
    1fa8:	5f00 0025 265f 6200 007f 5f5b 9600 004b     ._%._&.b..[_..K.
    1fb8:	4c96 5b00 0064 5596 9600 004d fd51 9600     .L.[d..U..M.Q...
    1fc8:	0050 b959 5900 00d1 d059 5900 00d3 ae59     P.Y..Y..Y..Y..Y.
    1fd8:	5900 00cb c659 8f00 00e2 7e9a 5300 00c1     .Y..Y......~.S..
    1fe8:	c253 8200 0070 bf7e 7e00 00c3 c47e 7e00     S...p.~..~..~..~
    1ff8:	00c5 c67e 9a00 0076 c77e 9a00 0079 c87e     ..~...v.~...y.~.
    2008:	9a00 007b ca7e 9a00 007c cd7e 7e00 00ce     ..{.~...|.~..~..
    2018:	cf7e 8d00 002f 5159 8d00 0030 4f59 6600     ~.../.YQ..0.YO.f
    2028:	0025 2e5e 7300 00b7 cd73 7300 00b2 ca73     %.^..s..s..s..s.
    2038:	7300 00bb d26b 5700 008b ed62 6300 0002     .s..k..W..b..c..
    2048:	015c 6300 0001 f762 6200 00f1 7998 5700     \..c..b..b...y.W
    2058:	00ae 0e63 5700 00ce 1f63 6300 0020 3f65     ..c..W..c..c .e?
    2068:	8d00 0074 758d 6300 0021 fd62 5400 00c9     ..t..u.c!.b..T..
    2078:	3a63 6200 00ec a257 6200 00f4 fe62 6300     c:.b..W..b..b..c
    2088:	0011 9b57 6300 0007 ab57 6300 0023 2463     ..W..c..W..c#.c$
    2098:	6200 00fc 1663 6300 0009 2563 6300 002a     .b..c..c..c%.c*.
    20a8:	ef62 6700 00d0 1a75 8300 0046 3883 9700     b..g..u...F..8..
    20b8:	0069 2c83 8300 0050 f75d 5e00 0026 4983     i..,..P.]..^&..I
    20c8:	8300 0027 3583 8300 0036 5283 8300 002b     ..'..5..6..R..+.
    20d8:	6183 8300 0063 6483 8300 0067 4565 8000     .a..c..d..g.eE..
    20e8:	00e1 6b83 8300 0054 5753 8300 006f 0768     ...k..T.SW..o.h.
    20f8:	6800 0008 d167 6700 00af c467 6800 000b     .h..g..g..g..h..
    2108:	f876 6700 00e5 cf67 6800 0005 f367 6700     v..g..g..h..g..g
    2118:	00f1 ff67 6800 000f e067 6800 0011 c352     ..g..h..g..h..R.
    2128:	8900 0081 ec67 5400 00b8 015a 6b00 006a     ....g..T..Z..kj.
    2138:	1478 7800 0016 9853 5300 009a 0c78 7800     x..x..S..S..x..x
    2148:	0002 f56c 7800 001a 0d78 9700 0062 1080     ..l..x..x...b...
    2158:	8000 000d 7572 9e00 0025 8b6b 6b00 0083     ....ru..%.k..k..
    2168:	748f 8f00 007b 269e 7600 0086 ed97 8000     .t..{..&.v......
    2178:	00cc 1862 7000 00b9 5086 4e00 0034 c889     ..b..p...P.N4...
    2188:	7a00 00d6 0177 5200 004a 1d5c 6600 0027     .z..w..RJ.\..f'.
    2198:	f976 6600 002f fc76 7700 0028 c754 5400     v..f/.v..w(.T..T
    21a8:	00c4 d154 6600 003e 9251 6600 0020 1f66     ..T..f>.Q..f .f.
    21b8:	6600 0028 a754 6600 002d 4f75 8d00 00b4     .f(.T..f-.uO....
    21c8:	c380 8d00 0035 4c75 8600 0079 7e86 8600     ....5.uL..y..~..
    21d8:	0081 1d60 8600 0082 7d86 5400 00c1 bd54     ..`......}.T..T.
    21e8:	9a00 0082 cb52 5400 00d7 b154 5400 00cd     ....R..T..T..T..
    21f8:	c854 5400 00c6 ac54 5400 00b3 aa54 5400     T..T..T..T..T..T
    2208:	00ea df54 7000 00ad e15c 7f00 005a 318d     ..T..p..\...Z..1
    2218:	8d00 0034 3b8d 9a00 00a8 7d5e 9400 0099     ..4..;....^}....
    2228:	9d94 9400 009e 9f94 9400 00a2 a094 9400     ................
    2238:	00a5 a694 9400 00a7 a994 9400 00ae 7853     ..............Sx
    2248:	7f00 0038 dc62 7700 000b e977 6b00 00e1     ..8.b..w..w..k..
    2258:	226c 6000 000e 7272 9000 0009 0290 7900     l".`..rr.......y
    2268:	00d2 9999 7900 00cd cb79 7900 00d1 cd91     .....y..y..y....
    2278:	5900 000d ff7a 6b00 00b5 bf4f 4f00 00e9     .Y..z..k..O..O..
    2288:	378d 9800 007a ee4f 4f00 00cf dd4f 4f00     .7..z.O..O..O..O
    2298:	00c3 c44f 4f00 00d0 ae4f 4f00 00ed d74f     ..O..O..O..O..O.
    22a8:	4f00 00d8 e14f 7600 0087 c96c 9b00 003c     .O..O..v..l...<.
    22b8:	b54f 7900 00b9 af4f 8f00 00fd ca4f 7600     O..y..O.....O..v
    22c8:	00fe 855f 5f00 008a 4d88 5f00 008b 885f     .._.._...M._.._.
    22d8:	9800 007b d953 5200 0051 0390 9800 00df     ..{.S..RQ.......
    22e8:	c676 8000 00da e780 8000 00c6 dc80 8000     v...............
    22f8:	00de d680 8100 0009 ce80 5200 00c9 ed72     ...........R..r.
    2308:	7200 00ee ec72 7200 00f0 e172 7200 00f1     .r..r..r..r..r..
    2318:	e072 8d00 0038 2860 6000 0025 7599 9900     r...8.`(.`%..u..
    2328:	0076 8086 9900 007a 7c99 5c00 00e6 2f5f     v.....z..|.\.._/
    2338:	5c00 0006 5659 5400 00c0 ad4e 4e00 00ae     .\..YV.T..N..N..
    2348:	a65e 8f00 00f9 ad5e 7500 00ae af75 7500     ^.....^..u..u..u
    2358:	00ab a475 5400 00a8 ff59 4e00 00b2 f397     ..u..T..Y..N....
    2368:	5e00 001d bd65 9500 00fa fb95 9500 00fd     .^..e...........
    2378:	0096 9600 0001 ee5d 5100 007b 8e7f 5900     ......]..Q{....Y
    2388:	00dc db53 9000 0001 7b7c 8f00 00f7 7d7c     ..S.....|{....|}
    2398:	5a00 0004 4d52 9900 0096 0690 5100 0079     .Z..RM.......Qy.
    23a8:	3b60 7000 00bc b870 7000 00c1 ae70 7000     `;.p..p..p..p..p
    23b8:	00ab c270 5200 0043 3c6d 6d00 0001 2a6d     ..p..RC.m<.m..m*
    23c8:	6d00 0012 d267 6d00 0047 4a6d 6d00 001e     .m..g..mG.mJ.m..
    23d8:	4b6d 6d00 0017 3b6d 6d00 003e 3d6d 6700     mK.m..m;.m>.m=.g
    23e8:	00d3 1b6d 6d00 004f 4e6d 6d00 000b 326d     ..m..mO.mN.m..m2
    23f8:	6d00 0051 536d 6d00 0025 4360 6000 0052     .mQ.mS.m%.`C.`R.
    2408:	6260 6000 004d 6c60 6000 0064 7060 6000     `b.`M.`l.`d.`p.`
    2418:	007c 6860 4e00 003e c989 5b00 00a3 a65b     |.`h.N>....[..[.
    2428:	5b00 00a4 ab5b 5b00 00aa 817a 7a00 007f     .[..[..[..z..z..
    2438:	837a 5b00 00a2 eb8b 5100 00a0 ec8b 8b00     z..[.....Q......
    2448:	00ed 4162 8800 0084 5679 7900 005e 5d79     ..bA....yV.y^.y]
    2458:	7900 0060 ef8b 8b00 00f1 f28b 8b00 00f4     .y`.............
    2468:	f58b 5700 00a6 0090 6500 00e2 4b5c 6600     ...W.....e..\K.f
    2478:	003c 4f5c 5c00 004e 398d 9600 0061 0a90     <.\O.\N..9..a...
    2488:	7700 0009 695b 9600 0068 6496 9600 0069     .w..[i..h..d..i.
    2498:	6296 5a00 0003 e559 5900 00e8 fb59 5a00     .b.Z..Y..Y..Y..Z
    24a8:	0007 da59 5a00 001c 1260 6700 00b6 3a8d     ..Y..Z..`..g...:
    24b8:	7600 00c8 c752 6000 0020 7876 8600 00a4     .v..R..` .vx....
    24c8:	d467 5700 0092 d17e 7e00 00d2 d37e 7e00     g..W..~..~..~..~
    24d8:	00d5 849a 7e00 00d8 d97e 7e00 00da 869a     .....~..~..~....
    24e8:	7e00 00dc dd7e 7e00 00de 879a 7e00 00df     .~..~..~.....~..
    24f8:	1580 8000 0018 1780 8000 0019 7382 6c00     .............s.l
    2508:	00f0 e679 7300 00e0 ed73 7d00 0020 3f53     ..y..s..s..} .S?
    2518:	8600 0095 7d98 7600 00cf 2a53 6300 005e     .....}.v..S*.c^.
    2528:	3d68 6300 0055 c257 6300 0042 2f63 8f00     h=.cU.W..cB.c/..
    2538:	007d 768d 8d00 0077 d076 6300 004e 4d63     }..v..w.v..cN.cM
    2548:	6300 004f cb57 6300 0049 4663 6300 0050     .cO.W..cI.cF.cP.
    2558:	5f63 8800 0081 4c63 9000 00fd f254 9000     c_....cL....T...
    2568:	001d 6163 6300 002b 6263 6300 003d 1a63     ..ca.c+.cb.c=.c.
    2578:	7000 00ed 5060 6300 0063 f658 6300 0045     .p..`P.cc.X..cE.
    2588:	c357 6300 0028 3b80 8000 003f 3d80 8000     W..c(..;..?..=..
    2598:	0042 6d60 8300 00bd b183 8300 00b2 ab83     B.`m............
    25a8:	8300 0089 7783 8300 00b7 4b66 6000 0076     .....w....fK.`v.
    25b8:	b983 8300 00ba 1f77 6800 0046 8668 6800     ......w..hF.h..h
    25c8:	0042 5468 6800 0016 6368 6800 0050 2a68     B.hT.h..hc.hP.h*
    25d8:	6800 0065 6668 6800 0013 4368 6800 003c     .he.hf.h..hC.h<.
    25e8:	6968 6800 0021 3868 6800 0037 3968 7d00     hi.h!.h8.h7.h9.}
    25f8:	0022 e554 9000 001f 1790 6800 0017 3e8d     ".T........h...>
    2608:	9100 004c 4d91 7f00 00c5 b18f 5500 0007     ..L..M.......U..
    2618:	0f59 7800 0038 3078 7800 003e 4078 7800     Y..x8.x0.x>.x@.x
    2628:	0034 9f53 5900 0057 1090 7000 00c8 8a6b     4.S..YW....p..k.
    2638:	6b00 0089 7e98 8f00 007f 838f 9800 007f     .k...~..........
    2648:	d96b 8100 00f4 f467 6800 004c 5186 7600     k.....g..hL..Q.v
    2658:	00d1 277d 5100 005a 1e90 6600 0052 2077     ..}'.QZ....fR.w 
    2668:	6600 0053 ee54 5500 0020 2d9e 6600 0043     .fS.T..U ..-.fC.
    2678:	fa54 6600 004c 5452 6600 0055 8c86 7500     T..fL.RT.fU....u
    2688:	0054 a386 8600 008a aa86 8600 0093 e854     T.............T.
    2698:	5400 00e9 0357 5400 00ed e654 6000 0069     .T..W..T..T..`i.
    26a8:	2f9e 5500 0024 0155 5400 00fc 2755 5500     ./.U$.U..T..U'.U
    26b8:	004a 0955 5500 0006 627f 5c00 00ed e85c     J.U..U...b.\..\.
    26c8:	5c00 00f0 0657 5c00 00fb 3c8d 8d00 003f     .\..W..\...<..?.
    26d8:	428d 8d00 0043 b194 9400 00b3 bb94 9400     .B..C...........
    26e8:	00be c194 9400 00c3 c594 7f00 003a 276c     ............:.l'
    26f8:	6c00 0028 7972 7200 007a 2090 4e00 0058     .l(.ry.rz.. .NX.
    2708:	4c65 7900 00e4 df79 7900 00ef e779 7900     eL.y..y..y..y..y
    2718:	00e9 f079 7900 00d8 0f90 7b00 0014 117b     ..y..y.....{..{.
    2728:	7b00 000b 3a50 5000 001f 3c50 5000 001a     .{..P:.P..P<.P..
    2738:	fa4f 5000 003e 1250 5000 0018 f14f 5000     O..P>.P..P..O..P
    2748:	0021 1950 8d00 0041 ef4f 5000 000d 2650     !.P...A.O..P..P&
    2758:	5000 0065 ed81 5c00 0004 ac8e 6000 006f     .Pe....\.....`o.
    2768:	1450 5f00 0092 905f 6b00 00b7 3082 8200     P.._.._..k...0..
    2778:	0031 2c82 8200 002a 1490 6200 00ff 3880     1..,..*....b...8
    2788:	7200 0039 0082 7200 0031 7a8c 8c00 0079     .r9....r1..z..y.
    2798:	8198 9800 0082 c17f 8000 00f0 0681 8100     ................
    27a8:	0002 f880 8000 00f3 0f81 8100 0010 f680     ................
    27b8:	8100 0011 1381 9000 001b f872 7200 00fc     ..........r..r..
    27c8:	7f53 9000 0022 359e 7500 0059 339e 7600     S..."..5.uY..3.v
    27d8:	00b1 7f99 9900 0081 cc51 5100 00c4 4b60     ........Q..Q..`K
    27e8:	6800 0068 466d 8800 0070 7788 9a00 00d8     .hh.mF..p..w....
    27f8:	ed90 5e00 002d c651 5e00 00a7 c775 7500     ...^-.Q..^..u..u
    2808:	00c5 be75 6500 008b b975 7500 00bc b275     ..u..e..u..u..u.
    2818:	8100 000a 4865 7900 00bb 0a7d 5500 0010     ....eH.y..}..U..
    2828:	f774 8d00 0044 c951 7a00 00d9 5652 7a00     t...D.Q..z..RV.z
    2838:	00de e890 6500 00c1 c565 7500 005c 0596     .....e..e..u\...
    2848:	7f00 009e 947f 7400 00f6 f362 7c00 0089     .......t..b..|..
    2858:	9965 7600 00ca 7c51 7000 00e4 d870 7000     e..v..Q|.p..p..p
    2868:	00e6 e770 7000 00db df70 7000 00d9 1290     ..p..p..p..p....
    2878:	6d00 009b 596d 6d00 009d 666d 9100 0052     .m..mY.m..mf..R.
    2888:	896d 6d00 0088 a16d 6d00 0069 776d 6d00     m..m..m..mi.mw.m
    2898:	0082 746d 6d00 006e a36d 6d00 00a4 416d     ..mt.mn.m..m..mA
    28a8:	6d00 00a6 a76d 6d00 0095 6a6d 6d00 0078     .m..m..m..mj.mx.
    28b8:	a86d 7000 00eb a96d 6d00 008c 9660 6000     m..p..m..m..`..`
    28c8:	009f 8460 6000 008d 9460 6000 00af a660     ..`..`..`..`..`.
    28d8:	5b00 00b3 bd5b 5b00 00b6 b55b 5b00 00b4     .[..[..[..[..[..
    28e8:	be5b 7a00 008d 847a 5b00 00b9 b05b 6800     [..z..z..[..[..h
    28f8:	0048 f78b 6700 0017 f88b 8b00 00fa fb8b     H....g..........
    2908:	6200 0047 fd8b 8800 009c 9688 8800 008d     .bG.............
    2918:	ab88 7900 0065 fe8b 5100 00a5 018c 8c00     ...ye....Q......
    2928:	0003 a451 8c00 0005 068c 8c00 0008 0a8c     ..Q.............
    2938:	5200 0065 7360 5c00 0055 6752 5c00 0051     .Re.`s.\U.Rg.\Q.
    2948:	315f 9600 0075 5f79 9600 0076 7796 9600     _1..u.y_..v..w..
    2958:	006a 315a 5a00 001f 5560 5a00 0025 185a     j.Z1.Z..`U.Z%.Z.
    2968:	9000 001a fd80 9600 00be 8498 6800 0051     .............hQ.
    2978:	e27e 7e00 00e3 8c9a 7e00 00e7 8f9a 7400     ~..~.....~.....t
    2988:	0003 1074 7400 0006 0974 7400 0005 6763     ..t..t..t..t..cg
    2998:	5800 0035 aa63 6300 00cf df57 6300 007a     .X5.c..c..W..cz.
    29a8:	a963 6300 0077 9263 7100 0009 8963 6300     c..cw.c..q..c..c
    29b8:	0076 668d 5800 0006 a863 5700 00e0 8063     v..f.X..c..W..c.
    29c8:	6300 0088 7b63 6500 0059 8f63 6300 0090     .c..c{.eY.c..c..
    29d8:	a063 6300 0082 f957 6300 00a5 b763 6300     c..c..W..c..c..c
    29e8:	00a7 a263 6300 006e 9863 6300 00ba 4c80     ..c..cn.c..c...L
    29f8:	5700 00fa 4680 5200 00d8 4a80 5a00 0036     .W...F.R...J.Z6.
    2a08:	5784 8300 00f1 d252 9e00 00c4 f283 8400     .W....R.........
    2a18:	000c 1d84 8300 00cc 0e84 8300 00dc 0484     ................
    2a28:	8300 00ca e983 8400 000d e083 8400 0024     ..............$.
    2a38:	2584 4e00 007e 2784 8400 0028 c783 6800     .%.N~..'..(....h
    2a48:	00b0 6c5f 6800 00a6 6a5a 6800 0097 a768     .._l.h..Zj.h..h.
    2a58:	6800 00a2 8568 6800 00c0 b368 6800 00af     .h..h..h..h..h..
    2a68:	7668 6800 00ad 5165 6600 00f9 6f52 7900     hv.h..eQ.f..Ro.y
    2a78:	0068 5d91 9100 0057 a253 6200 001a 4578     h..]..W.S..b..xE
    2a88:	7800 0055 6259 7600 00d4 3d72 8000 004b     .xU.Yb.v..r=..K.
    2a98:	ad88 7600 00db 3e53 9600 00ea 858f 8f00     ...v..S>........
    2aa8:	0086 8598 8600 005a 6a5f 9600 00c0 0258     ......Z._j....X.
    2ab8:	5e00 0038 3677 5300 0019 6866 7700 0041     .^8.w6.S..fh.wA.
    2ac8:	2f77 7700 003c ac60 9100 00ce 6a55 5500     w/.w<.`.....Uj.U
    2ad8:	0066 fc66 6600 0066 5a66 5500 0044 6155     f.f..ff.fZ.UD.Ua
    2ae8:	8d00 00dd be8d 5500 0043 c38d 7500 0065     .......UC....ue.
    2af8:	af86 8600 00c0 c786 5500 002c 2f7d 9100     .........U,.}/..
    2b08:	0002 3155 6000 00a3 7055 5500 003e 2f55     ..U1.`..Up.U>.U/
    2b18:	5500 0064 6555 5500 0078 165d 5d00 000e     .Ud.Ue.Ux.]..]..
    2b28:	2d5d 9000 003b 145d 5e00 0037 295d 5d00     ]-..;.]..^7.]).]
    2b38:	0007 1b5d 5a00 0074 0857 9400 00d0 db94     ..]..Zt.W.......
    2b48:	9400 00dd dc94 9400 00ed f294 9400 00f6     ................
    2b58:	eb77 7500 001c f879 6800 00a8 8172 7900     w..u..y..h..r..y
    2b68:	00fd fb79 7b00 0028 3c7b 7b00 001b 197b     ..y..{(.{<.{..{.
    2b78:	7b00 0026 2c7b 6500 004f 5a50 8800 008b     .{&.{,.eO.PZ....
    2b88:	a060 5000 007f 7650 5000 004e 7750 6000     `..P..Pv.PN.Pw.`
    2b98:	00a8 2e55 5000 005c 4f50 8e00 00af 5c51     ..U..P\.PO....Q\
    2ba8:	5000 0047 4588 5f00 0098 995f 5f00 0097     .PG..E._.._.._..
    2bb8:	5488 7600 00d8 3682 8200 0039 3582 6500     .T.v...6..9..5.e
    2bc8:	009c d276 9e00 003d 5b65 6000 0089 326b     ..v...=.e[.`..k2
    2bd8:	5f00 0069 8698 8100 001a 1681 8100 002f     ._i.........../.
    2be8:	5a8c 8100 0038 3181 8c00 0061 1f59 9000     .Z..8..1..a.Y...
    2bf8:	0038 1c73 7300 002a 0e73 7300 002b f051     8.s..s*.s..s+.Q.
    2c08:	7300 0016 1b73 7900 006d 8599 9900 0086     .s..s..ym.......
    2c18:	d151 5100 00cf eb6b 7000 00f9 b65e 9e00     Q..Q..k..p..^...
    2c28:	00bb b55e 7500 00ca d275 7500 00d5 ca5e     ..^..u..u..u..^.
    2c38:	5e00 00b7 b85e 9e00 007f d776 7a00 00e0     .^..^.....v..z..
    2c48:	df7a 5500 0046 cf65 6500 00cb 1b67 7300     z..UF.e..e..g..s
    2c58:	0087 0e96 9600 0010 4077 7f00 009a d676     ........w@....v.
    2c68:	7700 0037 987c 7c00 0097 927c 6500 00ad     .w7.|..|..|..e..
    2c78:	6a52 5100 007d 0a71 7100 0015 056e 6d00     Rj.Q}.q..q..n..m
    2c88:	00fb 3f9e 6d00 00cb af6d 6d00 00f9 206e     ...?.m..m..m..n 
    2c98:	6e00 0010 d16d 6d00 00cc f76d 6d00 00ee     .n..m..m..m..m..
    2ca8:	c66d 6e00 000a eb6d 6e00 0014 d86d 6d00     m..n..m..n..m..m
    2cb8:	00f3 b26d 6d00 00e4 e16d 6d00 00c0 f16d     ..m..m..m..m..m.
    2cc8:	6d00 00ae b56d 5a00 0046 8168 6e00 0017     .m..m..ZF.h..n..
    2cd8:	c560 6000 00dc ed60 6000 00bc e760 6000     `..`..`..`..`..`
    2ce8:	00d5 df60 6000 00ca e660 6000 00b4 cb60     ..`..`..`..`..`.
    2cf8:	6000 00e8 ef60 5b00 00c7 c55b 5b00 00c4     .`..`..[..[..[..
    2d08:	c25b 5b00 00bf 927a 7a00 0091 c65b 8c00     [..[..z..z..[...
    2d18:	000b 0d8c 8c00 000e 108c 8800 00b1 7779     ..............yw
    2d28:	7900 0078 138c 8c00 001a 1c8c 9000 002e     .yx.............
    2d38:	6265 5c00 0009 605c 5f00 0039 8b96 5800     eb.\..\`._9....X
    2d48:	0015 8f96 8600 00cb 8596 9600 0086 9096     ................
    2d58:	5a00 005a 765a 5a00 0049 8798 9800 0088     .ZZ.Zv.ZI.......
    2d68:	e97e 7e00 00ea ed7e 9a00 0091 f07e 7e00     ~..~..~.....~..~
    2d78:	00f3 f47e 7e00 00f5 f77e 7e00 00f8 fc7e     ..~..~..~..~..~.
    2d88:	7e00 00fd ff7e 7f00 0000 e25d 7400 0034     .~..~.....]..t4.
    2d98:	3374 7400 0022 3c74 6500 0091 ff66 6300     t3.t".t<.e..f..c
    2da8:	00cd 3e6b 5800 002a 5458 6400 002d 3058     ..k>.X*.XT.d-.X0
    2db8:	6300 00e9 8a8d 8d00 0081 8b8d 8d00 0085     .c..............
    2dc8:	fd63 5800 0024 d063 5300 005a ed63 5500     c..X$.c..SZ.c..U
    2dd8:	009c 6d5f 6300 00e3 d263 6300 00ea 1c64     .._m.c..c..c..d.
    2de8:	7100 006e f463 6400 0000 c188 6400 0001     .qn.c..d.....d..
    2df8:	1364 6400 0002 0564 5800 00f9 e163 6400     d..d..d..X..c..d
    2e08:	0014 c963 6500 00af 1f67 6b00 003a 5480     ..c..e..g..k:..T
    2e18:	8400 006b 6365 6000 00f9 6c84 5200 00df     ..k.ec.`...l.R..
    2e28:	5b84 8400 0063 6184 6500 006c 7184 8400     .[..c..a.el..q..
    2e38:	008b 8284 8400 003d e997 6700 001d 9c8f     ......=....g....
    2e48:	8400 0075 d268 6800 00f1 cb68 6900 0030     ..u.h..h..h..i0.
    2e58:	0d69 6800 00ee 1a71 6900 0005 1269 6800     i..h..q..i..i..h
    2e68:	00f5 cd68 6900 000e c968 6800 00da d568     ..h..i..h..h..h.
    2e78:	6800 00fa 9469 6900 002d e060 6000 00d1     .h..i..i-.`..`..
    2e88:	3c90 7c00 009f d868 9100 0063 6591 5300     .<.|..h...c..e.S
    2e98:	00a8 a653 7800 006c 5d78 7800 006e 6b78     ..S..xl.x].xn.xk
    2ea8:	9600 00c1 966b 8800 00c2 c496 9800 008a     ....k...........
    2eb8:	f396 6600 0082 c596 7f00 00d8 888f 6000     ...f...........`
    2ec8:	00b2 2b7d 5100 00ff 898f 6500 005e e068     ..}+.Q.....e^.h.
    2ed8:	8d00 004f 8c63 6600 0074 5077 6600 0091     ..O.c..ft.wP.f..
    2ee8:	0067 6600 0070 cf91 9f00 000e b755 5500     g..fp.......U..U
    2ef8:	00b3 7666 5500 0087 4790 5500 008a 4f90     ..fv.U...G.U...O
    2f08:	6600 007e 6f66 7500 0074 f58d 8d00 00cb     .f~.fo.ut.......
    2f18:	cc8d 8d00 00d1 db8d 9000 0057 d986 8600     ..........W.....
    2f28:	00db 1387 8700 0012 e486 5500 009d 439e     ...........U...C
    2f38:	5500 0082 9855 5500 0089 bb55 5500 007c     .U..U..U..U..U|.
    2f48:	a755 5d00 004c 455e 5e00 003d 4b8d 8d00     U..]L.^E.^=..K..
    2f58:	004c 4e8d 8d00 0050 548d 9e00 00d1 f894     L..N..P..T......
    2f68:	9400 00fa fe94 9500 0000 0195 9500 0004     ................
    2f78:	0595 9500 0008 0b95 9500 000c 1095 7500     ...............u
    2f88:	0025 b063 7700 00ed 7a66 6c00 002e ef6b     %.c..w..fz.l..k.
    2f98:	6c00 002f 459e 5200 0069 0d7a 7a00 000b     .l/..E.Ri.z..z..
    2fa8:	007a 7a00 000e 507b 7b00 0049 517b 7b00     z..z..{P.{I.{Q.{
    2fb8:	0056 5b7b 7b00 0052 4f7b 7b00 0054 4b7b     V.{[.{R.{O.{T.{K
    2fc8:	7b00 005d b250 5000 0085 4c72 5800 0021     .{].P..P..rL.X!.
    2fd8:	c696 7100 0026 8d50 5000 00a8 9376 7600     ...q&.P..P..v..v
    2fe8:	0096 a47c 5900 0065 5788 6000 00e9 a15f     ..|..Ye..W.`.._.
    2ff8:	5f00 00aa 4782 8200 0012 3e90 7500 006a     ._...G.....>.uj.
    3008:	ca91 7900 00bd 4a81 8100 003e 4b81 8100     ...y...J..>..K..
    3018:	0054 5581 9c00 0081 2973 7300 002c 3e73     T..U....s).s,.s>
    3028:	7300 0034 eb60 7100 0036 8899 9900 008b     .s4.`..q6.......
    3038:	c588 8600 00ee 315c 6500 0066 8c65 7500     ......\1.ef.e..u
    3048:	00d8 e275 7500 00ea db75 7a00 00e5 e37a     ..u..u..u..z..z.
    3058:	9600 0014 8455 7f00 00d4 a17f 6600 006e     ....U........fn.
    3068:	aa7c 5c00 000a 6059 9000 0053 4290 6600     |..\..Y`..S..B.f
    3078:	00fe 3071 6e00 002f de6e 6e00 0056 586e     ..q0.n/.n..nV.nX
    3088:	6e00 0023 246e 6e00 003a 7f6e 6e00 0029     .n#.n$.n:.n..n).
    3098:	346e 6e00 0083 856e 6e00 00d1 436e 6e00     n4.n..n..n..nC.n
    30a8:	001d 7e6e 6e00 0021 386e 6e00 00cb 326e     ..n~.n!.n8.n..n2
    30b8:	6e00 0089 2461 6100 004c f060 6100 0015     .n..a$.aL.`..a..
    30c8:	2361 6000 00f6 2761 6100 0009 6861 5200     a#.`..a'.a..ah.R
    30d8:	0072 d25b 5b00 00cc d35b 7a00 009c 9d7a     r.[..[..[..z..z.
    30e8:	7a00 0096 977a 7a00 0098 4d90 9600 00c7     .z..z..z...M....
    30f8:	d588 8800 00e4 d988 7900 0085 8479 8c00     .........y..y...
    3108:	0022 238c 8c00 0024 268c 7200 0080 5e5c     "..#..$..&.r..\^
    3118:	5c00 0061 3a5f 7c00 00a5 8f75 9600 0094     .\a._:.|..u.....
    3128:	9996 9600 0098 925a 7d00 006e c25a 5a00     ......Z..}n.Z..Z
    3138:	009a 7f5a 7600 007b 057f 7f00 0006 097f     ..Z..v{.........
    3148:	7f00 000e 137f 7f00 0014 157f 9a00 0097     ................
    3158:	167f 9a00 009a 187f 7400 005f 499e 7400     .........t_..I.t
    3168:	005e 7074 7400 0059 429b 8000 0086 4464     ^.tp.tY..B....dD
    3178:	6400 0078 6b58 6400 000f 4c58 9f00 0013     .dx.Xk.d..XL....
    3188:	4664 6400 003a 2c64 6400 0047 1e64 5800     dF.d:.d,.dG.d..X
    3198:	0058 4a64 8000 0058 9f65 8400 009c e452     X.dJ..X.e.....R.
    31a8:	9700 0074 7697 9e00 004a dd84 5800 0093     ..t..v..J....X..
    31b8:	555e 8400 00ec c484 8400 00b2 c984 8400     ^U..............
    31c8:	0099 b884 7300 002e 3f69 7900 0081 5a69     .....s..i?.y..iZ
    31d8:	6900 0077 8469 6000 00f3 d069 6900 0086     .iw.i..`..i..i..
    31e8:	7c69 6900 0082 568d 9100 006a 6c91 6100     i|.i...V..j..l.a
    31f8:	001f 8d78 7800 0098 9178 7800 008e b078     ..x..x..x..x..x.
    3208:	7800 0097 8c78 5c00 0034 f796 9600 00f6     .x..x..\4.......
    3218:	fe96 9600 00f9 908f 8f00 0091 938f 7700     ...............w
    3228:	0063 9198 9f00 0084 7492 7700 005b 7977     c........t.w[.wy
    3238:	7700 0066 8477 7700 006b 6177 7700 006c     .wf.w..wk.wa.wl.
    3248:	dc55 9100 0019 e655 6100 001a 9666 7600     U.....U..a..f..v
    3258:	00df 476b 6600 0097 8766 7100 0067 7875     ..kG.f..f..qg.ux
    3268:	8d00 00e8 f78d 8d00 00f3 fa8d 8d00 00ea     ................
    3278:	ef8d 8d00 00e4 df8d 9000 0063 0887 8700     ..........c.....
    3288:	0017 fe86 8700 0002 1587 5500 00c5 e155     ...........U..U.
    3298:	5500 00d3 727f 7f00 006e 6a7f 7f00 0069     .U...r..n..j..i.
    32a8:	0087 5e00 004c 1995 9500 001a 2195 9500     ...^L........!..
    32b8:	0023 2495 9500 0025 2695 9500 002e 2f95     #..$..%..&...../
    32c8:	9500 0030 ee77 8f00 009e 1a7a 7a00 0020     ..0.w.....z..z .
    32d8:	9398 6100 0001 797b 7b00 007e 807b 7b00     ...a..{y.{~.{..{
    32e8:	0077 c16b 8200 0005 209f 5000 00ac bb50     w.k...... .P..P.
    32f8:	5000 00cf b28e 9b00 0041 5988 5f00 00ae     .P......A..Y._..
    3308:	0861 9000 0065 7b81 8100 0070 6581 8100     a...e..{..p..e..
    3318:	006e 7981 8100 007a 4f9e 8100 007e 7f81     n..y..z..O..~...
    3328:	9c00 008d 3f73 9800 0096 e689 8900 00e3     ....s?..........
    3338:	5e71 9600 00cf 8d99 9900 008f 7191 7900     q^...........q.y
    3348:	0080 f975 5e00 00d3 f475 7500 00f0 c95e     ..u..^..u..u..^.
    3358:	9700 0056 b065 9700 00f5 0f61 8a00 008a     ..V.e.....a.....
    3368:	ae7c 6500 0070 4e71 5800 0051 4861 7100     |..ep.qN.XQ.aH.q
    3378:	0064 4c71 6e00 00e1 206f 6e00 00c7 906e     d.qL.n..o .n..n.
    3388:	6e00 00e4 e56e 6e00 00d4 aa6e 6e00 009c     .n..n..n..n..n..
    3398:	136f 6e00 00da a26e 6e00 00af e86e 6e00     o..n..n..n..n..n
    33a8:	00b6 ba6e 7c00 00b1 e96e 6100 004e 898a     ..n..|..n..aN...
    33b8:	5800 005e de5b 7a00 00a5 9f7a 5b00 00dd     .X^.[..z..z..[..
    33c8:	288c 8900 0002 f888 7900 008f 2c8c 7f00     .(.......y...,..
    33d8:	00a4 bf6b 8f00 009f 9c96 5a00 00b3 c95a     ..k........Z..Z.
    33e8:	5a00 00cc c15a 5300 00e0 1a7f 7f00 001d     .Z..Z..S........
    33f8:	207f 7f00 0024 7f52 9700 0059 a778 7400     . ..$.R...Y.x..t
    3408:	0083 588d 7100 00ac 9958 5800 009f 0956     ...X.q..X..X..V.
    3418:	6400 0067 6b8d 6200 002a 938a 5800 0083     .dg..k.b*....X..
    3428:	5864 6400 0054 8764 8000 005a 5561 6600     dX.dT.d...Z.aU.f
    3438:	00ae 7964 8500 0013 1185 8500 0021 1785     ..dy........!...
    3448:	8500 003d 3c85 7100 0099 1a85 5100 0062     ..=..<.q.....Qb.
    3458:	216a 6900 00db b469 6900 009c a869 6900     j!.i..i..i..i..i
    3468:	0095 4c6b 9000 006d 7591 9100 0077 7f91     ..kL..m..u..w...
    3478:	9100 0078 9f78 7800 00b1 b378 7800 00c1     ..x.x..x..x..x..
    3488:	3f61 9700 0000 968f 8f00 0097 cc96 8800     a?..............
    3498:	00f3 9798 7700 0085 8558 5500 00fd 0a8e     .....w..X..U....
    34a8:	8700 003b 2187 8700 0047 1887 8700 0049     ..;..!..G.....I.
    34b8:	1b56 5600 0000 5a8d 9500 0039 3b95 9500     V..V...Z..9..;..
    34c8:	0040 1e82 8200 0014 337a 7100 008f 957b     @.......z3.q..{.
    34d8:	7b00 0097 a97b 7b00 00a1 ab7b 8200 0006     .{..{..{..{.....
    34e8:	da50 5000 00e7 3b9f 9b00 0044 459b 8c00     P..P...;..D..E..
    34f8:	008c 9c81 8100 008a 8081 9c00 009c 9175     ..............u.
    3508:	5b00 0075 9299 8800 00f9 7265 8c00 006a     .[u.......er..j.
    3518:	8f81 9000 006e 5081 7600 0029 1f76 7600     ....n..P.v).v..v
    3528:	0026 a38f 5f00 0070 ed7a 7a00 00ef d765     &...._p.z..z..e.
    3538:	7c00 00be b97c 6b00 0049 0a5f 7100 0084     .|..|..kI._..q..
    3548:	9471 7100 007d 476f 6f00 0006 316f 6f00     q..q}.oG.o..o1.o
    3558:	0002 2b6f 6e00 00f4 3e6f 6f00 0014 0f6f     ..o+.n..o>.o..o.
    3568:	6100 0062 7761 5b00 00e8 5b8d 5b00 00e1     .ab.aw.[...[.[..
    3578:	df5b 8700 001c e55b 8c00 002d 8780 8900     [.....[...-.....
    3588:	0010 2a89 8c00 0031 a796 5a00 00e9 e07f     ...*..1....Z....
    3598:	7100 008a f351 9a00 00a1 297f 6100 0067     .q..Q......).ag.
    35a8:	b564 6400 0095 9264 6400 00a9 a38d 8d00     d..d..d..d......
    35b8:	009f 9164 6400 00ae ac64 6400 00ad d264     ..d..d..d..d..d.
    35c8:	5800 00a9 9e64 6400 00a4 9e58 6400 00b0     .X..d..d..X..d..
    35d8:	6a80 9700 008b 8d97 8500 0049 4a85 8500     .j........I..J..
    35e8:	002c 7485 6a00 002a fd69 6a00 0031 616a     ,..t.j*.i..j1.ja
    35f8:	6a00 001f 446a 6500 0077 4c8c 9800 00d8     .j..jD.ew..L....
    3608:	8b91 9100 0087 8991 7800 00d5 ca78 7800     .........x..x..x
    3618:	00c5 be78 9700 0007 0497 9700 0009 9277     ..x...........w.
    3628:	9800 0098 b466 7700 008e 3b56 5600 0036     ....f..w..V;.V6.
    3638:	3256 5600 0039 715f 8e00 0022 0f8e 8e00     V2.V9._q..".....
    3648:	0029 2a8e 8700 0076 7487 8700 0060 4e87     )..*..v..t..`..N
    3658:	8700 004c 5787 8700 0059 3f56 5600 0031     ..L..W..Y.V?.V1.
    3668:	625e 5800 00a8 4795 9500 0050 5195 9700     ^b.X...G..P..Q..
    3678:	0060 3d7a 7a00 003b ce9e 7a00 003f 3c7a     `.z=.z;....z?.z<
    3688:	7b00 00b1 d37b 7b00 00ad c77b 5000 00f5     .{..{..{..{..P..
    3698:	ba8e 5000 00fb b75f 8200 0058 9d81 8100     ...P.._...X.....
    36a8:	009b a49c 9c00 00ab 9f71 6400 0069 1289     ........q..di...
    36b8:	7600 002a 2476 7600 002b db51 9800 009c     .v*.v$.v+.Q.....
    36c8:	c56b 7c00 00ca 7590 6100 008b 5c6f 6f00     k..|...u.a..o\.o
    36d8:	008e 6e6f 6f00 006d a89c 6f00 00b3 586f     ..on.om....o..oX
    36e8:	6f00 0088 9c6f 6f00 0084 c261 6100 0094     .o..o..o..a..a..
    36f8:	ca61 6100 008e 9d98 7f00 00e9 2589 8c00     a..a.........%..
    3708:	0034 649e 6100 00a8 7061 5200 0088 655c     4..d.a..ap.R..\e
    3718:	8c00 006b 2d7f 6400 00bc c264 6400 00cd     ..k..-.d..d..d..
    3728:	c564 7100 00d5 7e85 8500 00af 9b85 8500     d..q...~........
    3738:	0087 ce64 8500 00aa 8485 9800 00a0 f07f     ..d.............
    3748:	5600 0069 716a 6a00 0059 586a 6500 0074     .Vi.jq.jY.jX.et.
    3758:	8d87 7400 00e2 9291 9700 000d 0e97 8f00     ...t............
    3768:	0099 8051 9900 0010 3456 8e00 0031 448e     ..Q.....V4..1..D
    3778:	8e00 0042 c687 8700 0083 6856 5600 006a     ..B.......Vh.Vj.
    3788:	669e 8d00 0060 d89e 9e00 00d4 5c95 8d00     .f..`........\..
    3798:	005e 467a 7b00 00ee e17b 7b00 00f7 f17b     ^.zF.{..{..{..{.
    37a8:	5100 0012 8090 8800 0061 a881 9600 00d5     .Q......a.......
    37b8:	b89c 7800 00e8 3e76 7600 0038 dd51 8f00     ...x..v>.v8.Q...
    37c8:	00a8 a98f 7c00 00d9 d67c 7c00 00d5 c371     .....|..|..|..q.
    37d8:	6f00 00d2 a16f 6f00 00c0 d261 6100 00be     .o..o..o..a..a..
    37e8:	c861 7a00 00bf c158 9000 007f 307f 7f00     a..z..X......0..
    37f8:	0034 3462 6400 00e6 c985 9700 00a0 cf85     4.b4.d..........
    3808:	8500 00d0 ac6a 6a00 0090 806a 7900 0001     ....j..j..j..y..
    3818:	f778 9700 001c 1e97 7700 00ad a777 7700     x........w..w..w
    3828:	00ac b377 7700 00a9 aa77 6600 00d9 4b8e     ..w..w..w..f...K
    3838:	8e00 0048 ba87 8700 00cb c087 5600 008e     ..H..........V..
    3848:	618d 7a00 0057 4f9b 7c00 0027 077c 7e00     .a.zW..O.|'.|..~
    3858:	0041 bd5f 7200 0035 2667 8100 00ca c49c     A._..r5.g&......
    3868:	7600 004c ab8f 8d00 0062 df7c 7c00 00e0     .vL.....b.|..|..
    3878:	e571 6100 00e6 418c 8100 00c0 c281 7f00     q..a...A........
    3888:	00fc a49a 8500 00d5 ad97 8500 00e4 8689     ................
    3898:	7700 00bb 668e 5600 00a3 7095 7f00 00fb     .w...f.V...p....
    38a8:	cd9c 9e00 0070 1170 8900 005f a774 6200     ....p.p..._.t..b
    38b8:	0033 7d5b 8b00 0066 1186 8500 00fb 0065     3.[}..f.......e.
    38c8:	6600 00dd 728e 8e00 006d 6c8e 5d00 00c5     .f...r..m..l.]..
    38d8:	387c 7c00 003f f987 9800 00a4 6197 7600     |8.|?........a.v
    38e8:	0063 e374 7f00 00b9 d69c 7200 0006 8675     c.t........r..u.
    38f8:	9b00 0013 e458 9900 00a8 0080 8e00 0081     ....X...........
    3908:	1588 5600 00bc b756 5d00 00cd 4d7c 9c00     ...V..V..]..|M..
    3918:	00de 549b 7c00 00ef 4c70 8b00 006c 2288     ...T.|..pL..l.."
    3928:	9700 0038 3297 9700 0039 8f8e 9e00 00ef     ..8..2..9.......
    3938:	d39a 8d00 0063 ca56 9500 0076 e474 7f00     ....c.V...v.t...
    3948:	0050 d777 4e00 0042 5c4e 5100 0040 0b5f     P.w..NB.N\.Q@._.
    3958:	5b00 0051 535b 5e00 007a 934e 9700 00e6     .[Q.[S.^z.N.....
    3968:	ff5e 4e00 000f 4553 4e00 00c4 8453 4e00     ^..N..SE.N..S..N
    3978:	00c3 c94e 4e00 00c2 6e51 5200 0008 3b72     ..N..N..Qn.R..r;
    3988:	5300 005e e995 8b00 00a3 395c 5900 002c     .S^.......\9.Y,.
    3998:	3f72 6b00 00cb 9790 9000 009b 7d82 8200     r?.k.........}..
    39a8:	007f 2d67 5300 00f5 1d53 4e00 0015 1c53     ..g-.S..S..N..S.
    39b8:	5200 00a2 5f53 5300 00f1 fb53 4e00 00e8     .R..S_.S..S..N..
    39c8:	d54e 4e00 00df e14e 4e00 00eb de4e 5300     N..N..N..N..N..S
    39d8:	006e 106c 7200 00b0 0d52 9000 009d 9990     n.l..r..R.......
    39e8:	6c00 0040 a68b 8b00 00a7 aa8b 8b00 00ab     .l@.............
    39f8:	3b5c 9600 0021 155c 5f00 0001 6d9a 5300     \;..!.\.._...m.S
    3a08:	0021 1280 7300 008e 9173 9000 00a2 2957     !....s..s.....W)
    3a18:	5700 002c 2d57 6200 0066 2a57 5700 0033     .W,.W-.bf.W*.W3.
    3a28:	3957 6200 006a 2e57 5700 002f 8a82 8200     W9.bj.W..W/.....
    3a38:	008d 8482 8200 00a8 9182 8200 008e 9782     ................
    3a48:	4e00 0098 8d53 5900 003c 0d62 5c00 0025     .N..S..Y<.b..\%.
    3a58:	694e 6500 00ef f366 5c00 008c 7a5c 5100     Ni.e..f..\..\z.Q
    3a68:	00fc e156 9400 0087 367f 6c00 0018 166c     ..V......6.l..l.
    3a78:	7200 005d 0e4f 4f00 001b 224f 4f00 0064     .r].O..O..O".Od.
    3a88:	f54e 4f00 0025 274f 4f00 0009 2b4f 5600     N..O%.O'.O..O+.V
    3a98:	00df 466c 5200 0016 1959 6500 00ee 0e52     ..lF.R..Y..e..R.
    3aa8:	7200 00b7 b872 8200 001b eb51 9000 00ac     .r..r.....Q.....
    3ab8:	6799 6c00 0055 546c 6c00 0050 726c 6c00     .g.lU.lT.lP.lr.l
    3ac8:	005c 4a6c 5f00 00d6 cf5f 8b00 00b4 b58b     \.lJ._.._.......
    3ad8:	7900 0041 b78b 8000 007f 6e82 5300 00be     .yA........n.S..
    3ae8:	3196 9600 002e 2a96 4e00 001e 8159 7200     .1.....*.N..Y..r
    3af8:	005f a17e 7e00 00a3 a57e 7e00 00a8 9573     _.~..~..~..~..s.
    3b08:	7300 0099 9f62 6200 0094 3b57 5700 0042     .s..b..b..W;.WB.
    3b18:	4d57 5700 005e 8362 6200 0089 d039 8200     WM.W^.b..b..9...
    3b28:	00ab af90 8200 00b8 be82 8200 00c8 e382     ................
    3b38:	8200 00b7 ae82 8200 00cb bc82 8200 00cc     ................
    3b48:	c182 8200 00a9 aa82 8200 00a1 9f82 8200     ................
    3b58:	00c4 ce82 8200 00e1 4c67 6700 0053 5e67     ........gL.gS.g^
    3b68:	6700 0048 d15f 5b00 005b b490 9000 00b3     .gH._..[[.......
    3b78:	f677 5900 0041 558c 5f00 00d2 246b 8f00     w..YA..U._..k$..
    3b88:	006b d38f 9000 00b6 d05f 5300 0063 ba90     k......._..Sc...
    3b98:	6500 00f0 4b54 5400 0052 5354 5400 0054     .e..TK.TR.TS.TT.
    3ba8:	5654 5400 0043 f865 5400 0021 3a75 8600     TV.TC.e..T!.u:..
    3bb8:	006c 5754 5400 003d 2354 5400 0032 0f5e     l.TW.T=.T#.T2.^.
    3bc8:	5c00 0090 885c 5c00 0098 915c 5c00 009a     .\..\..\..\..\..
    3bd8:	5551 5600 00f5 eb56 9400 008a 8b94 9400     QU.V..V.........
    3be8:	008c d58f 6c00 0019 1a6c 7200 0064 5e4f     .....l..l..rd.O^
    3bf8:	9000 00b1 3865 4f00 005a 5d4f 4f00 005f     ....e8.OZ.O].O_.
    3c08:	574f 4f00 003d 775f 4f00 0058 654f 5b00     OW.O=._w.OX.Oe.[
    3c18:	005a 788c 5700 004c 9f80 9000 00b8 4259     Z..x.WL.......YB
    3c28:	5200 00ac c472 7200 00c1 209e 9000 00b9     .R..r..r... ....
    3c38:	6899 9900 0069 6a99 9900 006b 6c99 4e00     .h..i..j..k..l.N
    3c48:	00a8 915e 5e00 008b 9475 7500 0096 9380     ..^..^..u..u....
    3c58:	9500 00f1 f395 9500 00f5 8c7f 7000 0080     .............p..
    3c68:	a36c 6c00 0085 946c 6c00 00a4 8c6c 6c00     l..l..l..l..l..l
    3c78:	008f 9a6c 6c00 0069 686c 6c00 0082 7e6c     ..l..li.lh.l..l~
    3c88:	6c00 00a8 746c 6c00 0076 866c 6c00 00a9     .l..lt.lv.l..l..
    3c98:	d06c 6000 0003 0460 5f00 00e1 e45f 5f00     l..`..`.._.._.._
    3ca8:	00fe 0560 5f00 00fb ea5f 6000 0006 ed5f     ..`.._.._..`.._.
    3cb8:	5f00 00f8 c28b 8b00 00c3 c58b 8b00 00cb     ._..............
    3cc8:	cc8b 8b00 00cf d28b 5b00 005c 4796 9600     .........[\..G..
    3cd8:	0040 4296 9600 0049 8d59 5900 00a9 aa59     @..B..I.Y..Y..Y.
    3ce8:	5900 00a3 8a59 5900 0097 ab59 5900 009e     .Y..Y..Y..Y..Y..
    3cf8:	d259 5900 00a4 b590 5200 00ad 2d52 7500     Y..Y.....R..R-.u
    3d08:	002c b090 7e00 00ad b07e 7e00 00b4 b67e     ,....~..~..~..~.
    3d18:	7e00 00be ae73 7300 00a1 ad73 7300 00a0     .~..s..s..s..s..
    3d28:	a273 7300 00a5 a673 7600 00c2 dd5f 5300     s..s..s..v.._..S
    3d38:	0026 6957 6200 00a8 e462 5700 006b c862     &.Wi.b..b..Wk.b.
    3d48:	5700 0086 bb62 5200 00bc c362 6200 00ca     .W..b..R..b..b..
    3d58:	7c57 5700 007b df39 5700 0068 6d57 6200     W|.W{.9..Wh.Wm.b
    3d68:	00bf 7357 8000 0036 f782 8200 00ef e482     ..Ws..6.........
    3d78:	8300 000f eb82 8200 00dc f482 8200 00d2     ................
    3d88:	d882 8300 000c fb82 8200 00d3 1a83 8300     ................
    3d98:	0006 1183 8300 0013 1483 8300 0015 0083     ................
    3da8:	8200 00d5 a567 6700 0087 6a67 6700 0073     ....g..g..gj.gs.
    3db8:	a767 6700 0075 a867 6700 009e 8b67 6700     g..gu.g..g..g..g
    3dc8:	007b 7767 6700 007c f877 7800 0000 3352     {.gw.g|.w..x..R3
    3dd8:	5900 0044 ef74 6b00 0081 cf90 8f00 006d     .YD.t..k......m.
    3de8:	c590 9e00 0022 f176 6600 000a 1966 6700     ....".v..f..f..g
    3df8:	0072 0366 5400 0082 7854 6600 0015 0066     r.f..T..Tx.f..f.
    3e08:	6500 00fb 0966 7000 0085 9454 7500 0040     .e..f..p..T..u@.
    3e18:	6e86 5400 0080 7754 9e00 00fe 7154 5400     .n.T..Tw....Tq.T
    3e28:	0064 9a54 5400 0086 9b54 5400 0076 6354     d.T..T..T..Tv.Tc
    3e38:	5400 0066 9d54 5c00 00a2 bf5c 5c00 00ac     .Tf.T..\..\..\..
    3e48:	ab5c 5e00 0019 a35c 5c00 00c1 3f52 8f00     \..^..\..\..R?..
    3e58:	00e5 b75c 5200 0040 145e 5c00 00c4 936c     ..\..R@.^..\..l.
    3e68:	5600 00f9 547f 9400 008d 8e94 9400 008f     .V...T..........
    3e78:	9294 9400 0095 9794 9000 00be ee8f 7200     ...............r
    3e88:	0066 fa7a 8f00 00e4 764f 4f00 006c 704f     f.z.....Ov.Ol.Op
    3e98:	4f00 0091 894f 8100 00fe b15c 4f00 0097     .O..O.....\..O..
    3ea8:	834f 4f00 008f a94f 4f00 007b 7e4f 4f00     O..O..O..O{.O~.O
    3eb8:	00aa 7c4f 4f00 006f ac4f 5e00 001b 1c96     ..O|.Oo.O..^....
    3ec8:	4f00 0094 825f 5200 003d c490 6000 0002     .O.._..R=....`..
    3ed8:	747c 7400 00ee 1762 8000 00bc dd43 8000     |t.t..b.....C...
    3ee8:	00bd b180 8000 00ab 4152 8f00 00e9 c790     ........RA......
    3ef8:	7200 00d9 ce72 7200 00cd d272 5400 008e     .r..r..r..r..T..
    3f08:	9970 6700 00ad 6f99 9900 0074 bd51 5100     p..g...o..t.Q..Q
    3f18:	00bc 965e 7500 00a0 9d75 7500 00a1 5651     ..^..u..u..u..QV
    3f28:	5900 00be be52 7000 029c 7cc2 7000 0096     .Y..R..p...|.p..
    3f38:	9870 7000 009d 9470 6c00 00d4 ad6c 6c00     p..p..p..l..l..l
    3f48:	00f7 f86c 6c00 00f1 c56c 6c00 00d7 e06c     ..l..l..l..l..l.
    3f58:	6c00 00fa d66c 6c00 00eb ee6c 6c00 00b1     .l..l..l..l..l..
    3f68:	ef6c 6c00 00d3 fe6c 6000 0019 3560 6000     l..l..l..`..`5.`
    3f78:	0026 1b60 6000 000f 0d60 3900 0018 2960     &.`..`..`..9..`)
    3f88:	6000 002b 3f60 5b00 0095 797a 5b00 0093     .`+.`?.[..zy.[..
    3f98:	d38b 8b00 00d4 d68b 8b00 00d8 3e62 8b00     ............b>..
    3fa8:	00d9 3d62 9000 00d3 6988 7900 0046 4e79     ..b=.....i.yF.yN
    3fb8:	7900 0049 4779 8b00 00db dc8b 8b00 00df     .yI.yG..........
    3fc8:	e08b 8b00 00e3 e48b 8b00 00e7 e88b 8b00     ................
    3fd8:	00e9 1562 5b00 0062 9f4e 9600 0054 b259     ..b..[b.N...T.Y.
    3fe8:	5900 00af d759 5e00 0011 295f 5b00 0065     .Y..Y..^.._).[e.
    3ff8:	7d9a 8600 0071 e68f 8f00 00e8 c07e 7e00     .}..q.......~..~
    4008:	00c1 c27e 9a00 0077 789a 7e00 00c9 cc7e     ..~...w..x.~..~.
    4018:	9a00 007f 809a 7500 003e cf73 7300 00d0     .......u>.s..s..
    4028:	c273 7300 00d1 b373 7300 00c0 7898 7300     s..s..s..s...x.s
    4038:	00c9 c873 6200 00ee ad57 6300 001d a357     ..s..b..W..c..W.
    4048:	6300 001e a457 8d00 0073 328d 5700 00b1     .c..W...s..2.W..
    4058:	8c57 9000 00dd a757 5700 0093 2663 5700     W.....W..W..c&.W
    4068:	00a0 1c83 8300 005a 5183 8d00 0033 5c83     ......Z..Q..3..\
    4078:	8300 0092 3c83 8300 0034 3183 8300 009b     .....<..4..1....
    4088:	5e83 8300 002f 4f83 8300 0047 4383 8300     .^../..O..G..C..
    4098:	005f 4083 8300 0017 6083 8300 002d 2883     _..@.....`..-..(
    40a8:	5700 00a9 6583 8300 0066 6883 8300 0069     .W...e..f..h..i.
    40b8:	4b52 8300 006a 3983 8300 006c 6e83 6700     RK..j..9..l..n.g
    40c8:	00f0 0968 6700 00ef d867 6800 000a e967     ..h..g..g..h..g.
    40d8:	6700 00b0 0c68 6700 00d9 b567 6700 00da     .g..h..g..g..g..
    40e8:	b367 6700 00de dd67 6800 0000 e267 6800     g..g..g..h..g..h
    40f8:	000e b867 6700 00c8 c167 6700 00b7 fd67     ..g..g..g..g..g.
    4108:	5200 004c 4a91 9000 00e6 2d75 7800 0017     .RL..J....u-.x..
    4118:	1878 7800 0012 ab65 7800 002d 1c78 5900     x..x..e..x-.x..Y
    4128:	004e 3780 8600 007a 826b 6b00 0087 846b     N..7..z.k..k..k.
    4138:	6b00 0086 718f 8f00 0072 738f 8f00 0076     .k...q..r..s..v.
    4148:	788f 8600 007f d66b 8900 00c7 1c5c 5400     .x....k.....\..T
    4158:	00d0 0477 7700 020d d00c 9000 00e2 0777     ..w..w........w.
    4168:	7700 000a 0877 7900 00ba c254 5400 00b4     .w..w..y..T..T..
    4178:	f766 6600 0034 3166 6600 0035 a654 5400     f..f4.f1.f5.T..T
    4188:	00d3 d454 7500 004e d76b 5400 0072 c480     ..T..uN.k..Tr...
    4198:	7500 004b 4875 8600 007c 7b86 7600 00c5     .uK.uH..|..{.v..
    41a8:	a354 5400 00d5 5052 9000 00e7 bb54 5600     T..T..RP....T..V
    41b8:	00ff bf54 5400 00cc d954 5400 00da af54     ..T..T..T..T..T.
    41c8:	5400 00a9 a454 5400 00dd cf54 5400 00de     .T..T..T..T..T..
    41d8:	d95c 5c00 00e3 587f 5e00 0027 d25c 5c00     \..\...X.^'.\..\
    41e8:	00e4 cb5c 5c00 00e5 368d 9400 009a 9b94     ..\..\...6......
    41f8:	9400 00a1 a394 9400 00a4 a894 9400 00ab     ................
    4208:	af94 6c00 0021 1f6c 7200 006f dc90 7900     ...l!.l..ro....y
    4218:	00d5 ed79 7a00 00fd 087b 7b00 0003 e64f     ..y..z..{..{..O.
    4228:	4f00 00e8 c54f 4f00 00ea df53 5700 00a1     .O..O..O..S..W..
    4238:	6e72 4f00 00e3 da4f 7600 0088 d14f 4f00     rn.O..O..v..O..O
    4248:	00df 0590 5f00 0087 895f 8200 0022 de4f     ....._.._...".O.
    4258:	9000 00d7 ce4f 9000 00e4 3072 9000 00db     ....O.....r0....
    4268:	f474 8000 00e8 ea80 8000 00db c280 8000     t...............
    4278:	00d9 cd80 8000 00d7 dd80 6700 0010 eb80     ...........g....
    4288:	9e00 0028 0d53 7200 00e8 ef72 9800 00d1     ..(.S..r..r.....
    4298:	e972 7200 00f2 078a 9000 0004 1d66 9900     r..r........f...
    42a8:	0077 7899 9900 0079 e480 5b00 006a 085a     w..x..y....[j.Z.
    42b8:	5f00 0008 5559 5e00 00a5 ac75 7500 00a3     ._..YU.^..u..u..
    42c8:	a575 7500 00ad a05e 7a00 00d1 665f 9800     u..u..^..z.._f..
    42d8:	00d2 fc95 9500 00fe ff95 9600 0002 917f     ................
    42e8:	8f00 00f8 7c7c 9100 004b b370 7000 00bb     ....||..K.p..p..
    42f8:	bd70 7000 00af c070 7000 00b7 c370 6d00     p..p..p..p..p..m
    4308:	0031 396d 6d00 0027 0c6d 6d00 0043 076d     1.m9.m'.m..mC.m.
    4318:	6d00 0004 196d 6d00 008e 0e6d 6d00 002b     .m..m..m..m..m+.
    4328:	4d6d 6d00 002e 356d 6d00 0052 546d 6d00     mM.m..m5.mR.mT.m
    4338:	0055 336d 6000 0078 5360 6000 0079 6b60     U.m3.`x.`S.`y.`k
    4348:	6000 007a 7b60 6000 0042 6a60 6000 007d     .`z.`{.`B.`j.`}.
    4358:	a55b 6200 0043 7288 8800 007d 7f88 8800     [..bC..r..}.....
    4368:	0082 5b79 7900 005c 5379 7900 005a ee8b     ..y[.y\.yS.yZ...
    4378:	7900 0057 6279 8b00 00f0 f38b 9e00 0029     .yW.yb........).
    4388:	3666 9000 00e1 ab54 5f00 002d 4172 8000     f6....T.._-.rA..
    4398:	00e5 5b96 9600 005f 055a 5900 00ee 065a     ...[.._.Z..Y..Z.
    43a8:	5900 00dd e359 5900 00d8 f959 6000 003c     .Y..Y..Y..Y..`<.
    43b8:	bf7f 7000 00b1 dc77 7e00 00d4 819a 9a00     ...p..w..~......
    43c8:	0085 d77e 7e00 00db 889a 8000 0016 0863     ..~..~........c.
    43d8:	7300 00e5 d973 9800 007c f073 7300 00e9     .s..s...|.s..s..
    43e8:	e773 7300 00e3 de73 7400 0024 f273 6500     s..s..s..t$.s..e
    43f8:	0056 5a60 5700 00d4 d557 5700 00d8 d957     V.`Z.W..W..W..W.
    4408:	5700 00da 3963 8000 0006 0480 5700 00d2     .W..c9.......W..
    4418:	4b63 8d00 003d b857 6300 0043 cd76 8300     cK..=.W..cC.v...
    4428:	0078 8683 8300 00b3 b483 8300 00aa a083     x...............
    4438:	8300 0093 9c83 8300 0085 7c83 8300 00a9     ...........|....
    4448:	7d83 8300 00b8 7b83 8300 0098 8e83 8300     .}.....{........
    4458:	009e a883 9e00 002a bc83 6800 0032 3368     ......*....h2.h3
    4468:	9000 00f4 5368 6800 0061 4e68 6800 0062     ....hS.ha.hN.hb.
    4478:	6468 6800 0083 1d68 6800 0055 4168 6800     hd.h..h..hU.hA.h
    4488:	0067 4568 6800 001f 4968 6800 0029 1190     g.hE.h..hI.h)...
    4498:	9000 000b 675f 9b00 0032 478c 9100 0050     ...._g..2..G..P.
    44a8:	2690 5300 009d 6c5b 7800 001d 3978 7800     .&.S..[l.x..x9.x
    44b8:	003a 2778 7800 0037 1f78 7800 003c 2578     :.x'.x7.x..x<.x%
    44c8:	7800 0023 5e52 7800 003b 7c8f 8f00 007e     .x#.R^.x;..|..~.
    44d8:	828f 9e00 002b b88d 9f00 0080 2c9e 8600     ....+........,..
    44e8:	0054 0d90 7700 002c 1b55 6600 005f 2977     T....w,.U..f_.w)
    44f8:	7700 0019 e754 5400 00fd 1455 6600 0041     .w..T..T..U..fA.
    4508:	4f66 9e00 002e b58d 8d00 00bf 5b75 8600     fO..........u[..
    4518:	00a8 9c86 8600 008d 8b86 8600 00ac 9d86     ................
    4528:	8600 00a7 2255 5700 0004 2355 5500 000f     ....U".W..U#.U..
    4538:	ce76 5500 0011 025d 5d00 0003 617f 7f00     v..U..]..]...a..
    4548:	005f ea5c 8900 00ca 458d 9400 00b0 b294     _.\......E......
    4558:	9400 00b4 b594 9400 00b9 ba94 9400 00bd     ................
    4568:	bc94 9400 00bf c094 9400 00c2 c494 9400     ................
    4578:	00c6 c894 9400 00c9 ca94 9400 00cb cc94     ................
    4588:	9400 00cd 7d49 9400 00ce 296c 6c00 0024     ....I}....l).l$.
    4598:	266c 6b00 00ea 1082 7900 00e3 eb79 7600     l&.k.....y..y..v
    45a8:	00c9 047b 7b00 0015 0a7b 7b00 000f 067b     ..{..{..{..{..{.
    45b8:	4f00 00f8 2950 4f00 00f5 4c50 4f00 00f3     .O..P).O..PL.O..
    45c8:	f64f 5000 002c 0f50 6000 0041 2d50 5000     O..P,.P..`A.P-.P
    45d8:	002a fe4f 5000 001c bc96 9600 00bd 0c50     *.O..P........P.
    45e8:	5000 0025 ec81 7600 008b eb90 5000 0028     .P%....v.....P(.
    45f8:	4488 9800 0080 955f 8200 002b dc91 5900     .D...._...+....Y
    4608:	005a 7e88 8000 00ef f180 8000 00f4 ed80     Z..~............
    4618:	8100 000d fc80 6700 0015 1281 8000 00fa     .......g........
    4628:	319e 7300 00ba 329e 7200 00f7 0173 7200     .1.s...2.r..s..r
    4638:	00f3 0373 7200 00fa 1690 6800 0040 8588     ..s..r.....h@...
    4648:	9900 007d c751 6800 003e 1b63 4e00 00b3     ..}.Q..h>.c..N..
    4658:	b375 7500 00b4 b875 7500 00bd c875 7500     u..u..u..u..u..u
    4668:	00b1 c275 7500 00c9 6e88 5100 00cb 8398     ..u..u...n.Q....
    4678:	6000 0063 c665 6500 00c4 c365 9600 0003     .`c.e..e..e.....
    4688:	0496 8a00 001a 0696 6000 0059 917c 6700     .........`Y.|..g
    4698:	0014 f890 7000 00dc e870 7000 00e9 ca70     .....p..p..p..p.
    46a8:	5200 0061 ef90 7000 00ec 916d 6d00 006f     .Ra....p..m..mo.
    46b8:	9e6d 6d00 009f 115a 6d00 0085 a06d 6d00     m..m..Z..m..m..m
    46c8:	005e 936d 6d00 0065 946d 6d00 005c 606d     ^.m..me.m..m\.m`
    46d8:	6d00 0063 5a6d 6000 009a ad60 6000 009d     .mc.mZ.`..`..`..
    46e8:	9260 6000 008c 9b60 5b00 00b8 887a 5200     `..`..`..[..z..R
    46f8:	005c f98b 5100 00a2 fc8b 8800 0092 a288     \....Q..........
    4708:	7900 006f ff8b 8c00 0000 028c 8c00 0004     .yo.............
    4718:	078c 5c00 0050 595c 9600 006c d052 5900     ...\P.\Y..l.R..Y
    4728:	0058 4272 8600 00a9 7296 5900 00ec 205a     X.rB.....r.Y..Z 
    4738:	5a00 000c 095a 5a00 0032 295a 5a00 0034     .Z..Z..Z2.Z).Z4.
    4748:	235a 5a00 0013 405a 7500 005a 2190 7e00     Z#.Z..Z@.uZ..!.~
    4758:	00e0 8a9a 7e00 00e1 8b9a 7e00 00e5 e67e     .....~.....~..~.
    4768:	7e00 00e8 8e9a 9000 0095 369e 5f00 0057     .~.........6._W.
    4778:	1c80 7100 0018 0282 7400 000f 0774 9e00     ...q.....t..t...
    4788:	00b8 f663 5700 00f4 ef57 6300 006f b363     ..c..W..W..co.c.
    4798:	6300 00b4 f857 5700 00f5 678d 5700 00e4     .c..W..W...g.W..
    47a8:	6d63 9000 0035 dd57 5800 000b 0d58 6300     cm..5.W..X..X..c
    47b8:	00ac 379e 6300 0096 7d63 6300 008a 0958     ...7.c..c}.c..X.
    47c8:	6300 00b8 6963 6300 00ae ab60 5700 00ed     .c..ci.c..`..W..
    47d8:	fd57 6300 0087 bc63 8000 0043 c183 8400     W..c..c...C.....
    47e8:	0001 d883 5800 0007 1884 8400 000b fd83     .....X..........
    47f8:	8300 00d6 1c84 8400 0038 1184 6800 00fb     ........8....h..
    4808:	d483 8300 00df 0f84 8400 0003 cf83 8300     ................
    4818:	00f9 ea83 8300 00c5 c083 8400 0026 f083     ............&...
    4828:	8300 00e1 b568 6800 00bf 8f68 8900 00cb     ....h..h..h.....
    4838:	7468 6800 0077 9368 6800 00c1 6b68 6800     ht.hw.h..h..hk.h
    4848:	00c2 6c55 9000 00fe 2e53 6500 0055 498c     ..Ul....S..eU..I
    4858:	9100 0004 5e91 9100 005a 1b62 7800 004e     .....^..Z.b..xN.
    4868:	6d78 7800 0052 5678 7800 0057 5078 7800     xm.xR.xV.xW.xP.x
    4878:	0047 4c78 9e00 0038 e074 5300 000f a953     G.xL..8.t..S..S.
    4888:	9f00 009a 926b 6b00 0093 8d6b 8d00 0049     ....k..k..k...I.
    4898:	e996 8f00 0084 1158 7700 002d 2677 5500     ......X..w-.w&.U
    48a8:	0067 6166 6600 0064 3a77 7700 0035 3877     g.fa.fd.w:.w5.w8
    48b8:	5700 000a 8f55 5500 00b5 4955 5200 00d6     .W..U..U..UI.R..
    48c8:	5e66 5500 0035 5766 5100 0095 6d55 7500     f^.U5.fW.Q..Um.u
    48d8:	0066 ba8d 5500 006e c48d 8600 00b6 c486     f....Un.........
    48e8:	8600 00ce c686 8600 00b0 ca86 5700 0009     .............W..
    48f8:	b186 8600 00c9 cf86 8600 00b4 4155 5500     ............UA.U
    4908:	0055 3f55 5500 0050 3c55 5500 0037 5655     U.U?.UP.U<.U7.UV
    4918:	5500 0075 7655 5500 0077 3355 5500 0030     .Uu.Uv.Uw.U3.U0.
    4928:	5c55 5e00 003b 1a5d 5d00 0026 3c5e 5d00     U\.^;.]..]&.^<.]
    4938:	002e 245d 5d00 0006 478d 8d00 0048 4a8d     ..]$.]...G..H..J
    4948:	9400 00d1 d294 9400 00d7 d994 9400 00df     ................
    4958:	e094 9400 00e1 e294 9400 00e3 e494 9400     ................
    4968:	00e7 e894 9400 00e9 ea94 9400 00eb ec94     ................
    4978:	9400 00ee ef94 9400 00f0 f194 9400 00f3     ................
    4988:	f594 9400 00f7 2a6c 7200 007e 399e 7900     ......l*.r~..9.y
    4998:	00fe 3690 7b00 003a 477b 7b00 0038 2a7b     ...6.{:.{G.{8.{*
    49a8:	7b00 002e 207b 7b00 0025 247b 7b00 0033     .{..{ .{%.{$.{3.
    49b8:	3e7b 7b00 001e 7e50 5000 0043 5550 5000     {>.{..P~.PC.PU.P
    49c8:	0048 8050 5000 006c 7b50 7600 0091 8e76     H.P..Pl.P{.v..v.
    49d8:	9e00 003b 9c5f 8200 0038 3b82 8200 0034     ..;._...8..;..4.
    49e8:	3782 9f00 009b ce7f 8100 002c 1881 8100     .7........,.....
    49f8:	0032 1053 7300 0017 2173 7300 001e 1d73     2.S..s..s!.s..s.
    4a08:	6500 009b 1573 9900 0097 8399 9900 0084     .e..s...........
    4a18:	3e9e 5b00 0070 b95e 5e00 00be d475 7500     .>.[p.^..^..u..u
    4a28:	00cd b575 7f00 00ca cc65 6500 00ce a488     ..u.....e..e....
    4a38:	9600 0007 0896 9600 0009 0a96 9600 000b     ................
    4a48:	0d96 9600 000f 9f7f 7c00 009d 957c 6500     .........|..|..e
    4a58:	005d 1071 7000 00ef 1371 7000 00fd 1671     ].q..p..q..p..q.
    4a68:	7000 00f7 1771 6e00 000d 1a6e 6d00 00c7     .p..q..n..n..m..
    4a78:	c56d 6d00 00de 0e6e 6d00 00bf d66d 6300     m..m..n..m..m..c
    4a88:	0032 e06d 6d00 00b8 116e 6d00 00e6 dd6d     2.m..m..n..m..m.
    4a98:	6d00 00ec aa6d 6d00 00d9 ab6d 6e00 000c     .m..m..m..m..n..
    4aa8:	c46d 6000 00ec bb60 6000 00b1 dd60 6000     m..`..`..`..`..`
    4ab8:	00d8 b860 6000 00c6 da60 6000 00c7 ee60     ..`..`..`..`..`.
    4ac8:	7a00 0095 0c8c 8c00 000f 4862 7600 00b2     .z........bH.v..
    4ad8:	118c 8800 00c6 b788 8800 00c9 128c 8c00     ................
    4ae8:	0014 158c 8c00 0016 178c 8c00 0019 1b8c     ................
    4af8:	8c00 001d 2f90 9000 00ff 8896 7c00 009c     ...../.......|..
    4b08:	8d96 9600 0097 675a 5a00 004a 555a 5a00     ......Zg.ZJ.ZU.Z
    4b18:	003c 625a 5a00 0075 ec80 8800 0088 cc7f     <.Zb.Zu.........
    4b28:	6000 007f 386b 7e00 00eb 909a 7e00 00ee     .`..k8.~.....~..
    4b38:	ef7e 7e00 00f1 929a 7e00 00f2 939a 7e00     ~..~.....~.....~
    4b48:	00f6 fa7e 7e00 00fb fe7e 9a00 0096 017f     ..~..~..~.......
    4b58:	8000 0020 2b74 7400 0035 3674 7400 002a     .. .t+.t5.t6.t*.
    4b68:	5b74 7400 0026 2574 7400 0028 5397 7400     t[.t&.t%.t(..S.t
    4b78:	0030 2e74 7400 002f 2c74 7400 001b 1a74     0.t..t/.t,.t..t.
    4b88:	8f00 0087 0b9f 6300 00f3 1e58 6400 003d     .......c..X..d=.
    4b98:	f863 6300 00e0 1958 8d00 0084 d663 9800     c..c..X.....c...
    4ba8:	0089 4458 6300 00ff 0b80 6300 00c4 e986     ..XD.c.....c....
    4bb8:	8600 00f0 4658 6400 0052 c663 6300 00be     ....XF.dR.c..c..
    4bc8:	5280 8400 0051 5a84 9700 0070 7897 8400     .R..Q..Z..p..x..
    4bd8:	0073 7a84 8400 0078 3c84 8400 0046 6984     s..z..x..<..F..i
    4be8:	8400 0076 8c84 8400 0031 1f62 8400 006d     ..v.....1.b...m.
    4bf8:	6e69 6800 00fc 1f69 6800 00f9 2469 6800     in.h..i..h..i$.h
    4c08:	00f0 4d8d 6900 000b 0169 6900 002a e368     ...M.i..i..i*.h.
    4c18:	6900 0010 419e 8900 0083 6491 9100 0062     .i...A.....d..b.
    4c28:	6191 9e00 0042 a553 6b00 009a 9b6b 9600     .a..B.S..k..k...
    4c38:	00ef f196 8f00 008a 8b8f 6900 0020 8d8f     ...........i ...
    4c48:	8f00 008e 9065 7700 0044 5177 7700 0047     ....e..wD.wQ.wG.
    4c58:	4377 6200 0022 8b55 5500 00d2 8355 5500     wC.b".U..U..U..U
    4c68:	00b1 b955 6600 0077 8855 8d00 00d6 d78d     ..U..fw.U.......
    4c78:	8d00 00de da8d 8d00 00ce cf8d 8d00 00c6     ................
    4c88:	f186 8600 00f2 ed86 8600 00f3 d086 8600     ................
    4c98:	00d4 de86 8600 00f4 df86 8600 00d8 8155     ..............U.
    4ca8:	5500 009f 7e55 5500 00d6 9155 5500 00df     .U..U~.U..U..U..
    4cb8:	bd55 5500 00de 8055 5500 0094 9955 5d00     U..U..U..U..U..]
    4cc8:	0058 565d 5d00 0034 4490 8a00 0048 4e5d     X.]V.]4..D..H.]N
    4cd8:	5d00 003d 6c5d 5d00 005b 6f5d 5d00 005d     .]=.]l.][.]o.]].
    4ce8:	6b5d 5e00 0044 4b5d 8d00 0055 fb94 9400     ]k.^D.]K..U.....
    4cf8:	00fc ff94 9500 0003 0295 9500 0006 0795     ................
    4d08:	9500 0009 0f95 9500 0011 1295 9500 0014     ................
    4d18:	1595 6300 00a3 ec77 6c00 0030 f36b 6b00     ...c..w..l0.k..k
    4d28:	00fd 8a72 7200 0084 8b72 9e00 0044 8d72     ..r..r..r...D.r.
    4d38:	5d00 0047 cd9e 7a00 0003 027a 7b00 005a     .]G....z..z..{Z.
    4d48:	757b 7b00 004c a350 5000 0088 0482 7200     {u.{L.P..P.....r
    4d58:	004d a550 5000 00a7 5190 5000 00a9 4190     M.P..P...Q.P...A
    4d68:	5f00 00a8 ad5a 7500 0072 115f 9800 008c     ._..Z..ur._.....
    4d78:	d57f 9100 00c9 469e 8200 001c 828c 8100     .......F........
    4d88:	0048 4c81 8100 0053 4681 8100 0074 5181     H..L..S..F..t..Q
    4d98:	8100 005a 7181 9c00 007f 809c 9c00 0082     ..Z..q..........
    4da8:	8d98 7300 0022 3973 7300 0025 d398 8900     ...s".s9.s%.....
    4db8:	00de da89 7300 0031 8e98 9800 00e7 8799     .....s1.........
    4dc8:	9900 008a b54e 8100 0014 d288 7500 00e3     ....N........u..
    4dd8:	e875 7500 00e6 de75 7500 00e4 eb75 7500     u..u..u..u..u..u
    4de8:	00e7 538d 7a00 00e6 ff74 5500 007b 8f98     ...S.z..t..U{...
    4df8:	9e00 0047 1196 9600 0012 1596 7c00 009e     ..G..........|..
    4e08:	5290 5b00 0073 2f71 7100 001c 1971 7100     .R.[s.q/.q..q..q
    4e18:	0031 489e 6e00 005b 2b6e 6e00 006e 4e6e     1..H.n[.n+.nn.nN
    4e28:	6e00 005c 2d6e 6e00 004d 6b6e 6e00 00b2     .n\.n-.nM.nk.n..
    4e38:	5f6e 6e00 0086 726e 6e00 0054 496e 6e00     n_.n..nr.nT.nI.n
    4e48:	0025 446e 6e00 00c1 2061 6000 00fa 2661     %.nD.n..a .`..a&
    4e58:	6000 00f4 0061 6100 000e 1461 5500 00be     .`..a..a..a..U..
    4e68:	d05b 8c00 001f 4962 8800 00e2 ce88 8800     [.....bI........
    4e78:	00e5 7e79 7900 007a 208c 5e00 0042 218c     ..y~.yz.. .^B..!
    4e88:	8c00 0025 278c 9000 0050 715b 5f00 003c     ..%..'..P.[q._<.
    4e98:	fd5d 9a00 0098 aa5a 5a00 009b 775a 5d00     ].....Z..Z..Zw.]
    4ea8:	00ef da7f 7600 00b4 7a5a 9a00 009b 027f     .....v..Zz......
    4eb8:	7f00 0003 047f 5f00 0058 077f 7f00 0008     ......._X.......
    4ec8:	0c7f 7f00 0011 127f 7f00 0017 e898 8000     ................
    4ed8:	0022 5a74 7400 0041 5c74 7400 0057 4474     ".tZ.tA.t\.tW.tD
    4ee8:	7400 0055 6890 9a00 009c eb97 9a00 00e1     .tU..h..........
    4ef8:	6c58 9100 0022 948d 8d00 0091 4564 6400     Xl..".......dE.d
    4f08:	0041 0787 6400 000b 2a64 6400 0010 1b64     A....d..d*.d..d.
    4f18:	6400 0020 4864 5f00 0040 c26b 6400 0026     .d .dH._@.k..d&.
    4f28:	2164 8400 00c1 2162 8400 00cd 1e91 9700     d!....b!........
    4f38:	0073 d084 8400 00e6 4b9e 8400 00bd d384     s........K......
    4f48:	8400 00d6 ca84 8400 00af df84 8400 00d1     ................
    4f58:	bf84 8400 00ba e084 8400 009f a184 8400     ................
    4f68:	00b9 b484 8400 0097 e584 9800 0090 5469     ..............iT
    4f78:	6900 0060 4269 6900 005d 6b69 6900 0078     .i`.iB.i].ik.ix.
    4f88:	3469 6900 00cc 6f69 7600 0099 8869 6900     i4.i..io.v..i..i
    4f98:	00ce 8969 6900 0066 6369 6900 0079 3d69     ..i..if.ic.iy.i=
    4fa8:	8800 00d8 7d52 7500 0004 6e91 9100 0070     ....R}.u...n..p.
    4fb8:	6f91 9100 0069 0387 7800 009b 9378 7800     .o..i....x..x..x
    4fc8:	007c 8978 7800 009a 8778 7800 009c 4c9e     |.x..x..x..x...L
    4fd8:	8f00 008f 839f 9f00 0085 3e8a 7c00 00b2     ...........>.|..
    4fe8:	5e86 7700 005a ea55 9700 00ea f755 5500     .^.wZ.U.....U..U
    4ff8:	00c9 6877 7700 0062 ce96 7700 0065 1f56     ..wh.wb....we.V.
    5008:	5500 00d1 eb55 5500 00ec d455 5500 00dd     .U..U..U..U..U..
    5018:	2562 5500 00c4 6671 6600 0084 6290 6600     b%.U..qf.f...b.f
    5028:	008c ec8d 8d00 00f6 f88d 8d00 00d0 e38d     ................
    5038:	8d00 00f9 fb8d 8600 00f8 0a87 8700 000d     ................
    5048:	0987 8700 0023 7975 8600 00f9 e355 5500     ....#.uy....U..U
    5058:	00ef e555 5500 00f2 f355 5500 00cc cd55     ..U..U..U..U..U.
    5068:	5500 00e8 d055 5500 00e4 f555 7f00 0068     .U..U..U..U...h.
    5078:	4a5d 5d00 0069 745d 9a00 00b0 1795 9500     ]J.]i.]t........
    5088:	001b 1c95 9500 001d 1e95 9500 001f 2295     ..............."
    5098:	9500 0028 2995 9500 002d 3195 9600 00c9     ..(..)..-..1....
    50a8:	326c 7200 008f 436b 7a00 001e 177a 7a00     l2.r..kC.z..z..z
    50b8:	0014 607b 7b00 0062 6e7b 7b00 0072 717b     ..{`.{b.{n.{r.{q
    50c8:	7200 0052 7271 6500 006b ad5f 6100 0006     .rR.qr.ek._..a..
    50d8:	4482 8900 00ce f96b 8c00 008a 858c 8c00     .D....k.........
    50e8:	0089 9498 8100 0060 6981 8100 007c 6d81     ......`..i..|..m
    50f8:	8100 0067 4d58 5a00 00b5 798a 9c00 0085     ..g.XM.Z...y....
    5108:	869c 9c00 0087 889c 7a00 0023 8b9c 9c00     .........z#.....
    5118:	0090 8480 9e00 0050 d598 8900 00e5 5b90     ......P........[
    5128:	9900 0090 519e 4e00 00b6 0376 7500 00f1     .....Q.N..v..u..
    5138:	fc75 7500 00ff 1076 7600 0001 0676 9e00     u..u..v..v..v...
    5148:	0082 d488 6b00 0046 d265 9600 00cd 1696     .....kF.e.......
    5158:	9600 0017 1996 7f00 00a7 628c 7c00 00b3     ...........b.|..
    5168:	3773 7100 0073 5c71 7100 0068 4571 7100     s7.qs.q\.qh.qE.q
    5178:	004a 7871 7100 007a df6e 6e00 00b1 986e     J.qx.qz.n..n..n.
    5188:	6f00 002d e26e 6e00 00a5 a76e 6e00 00bd     .o-.n..n..n..n..
    5198:	df88 6e00 00bb b76e 6e00 00d7 eb6e 6e00     ...n..n..n..n..n
    51a8:	00b4 cf6e 6e00 00c3 e66e 6e00 008f c26e     ..n..n..n..n..n.
    51b8:	6e00 00d3 9f6e 6e00 00ea 2b61 6100 0051     .n..n..n..a+.aQ.
    51c8:	4a61 9c00 008e 9e9a 7a00 00a6 a07a 7a00     aJ.......z..z..z
    51d8:	00a3 f188 8900 001a e888 8800 00fe f088     ................
    51e8:	7900 008a 298c 8c00 002a be5a 5a00 00eb     .y...)..*.Z..Z..
    51f8:	b25a 5a00 00d2 d45a 5a00 00b8 197f 7f00     Z..Z..Z..Z......
    5208:	001c 1b7f 8f00 0094 9d9a 7f00 001f 217f     ...............!
    5218:	7f00 0022 237f 9a00 009f 2580 7400 0088     .."..#.....%.t..
    5228:	7674 7400 006d 5273 8900 00cf 5d61 5a00     tv.tm.sR....a].Z
    5238:	00e0 ec97 5300 00c6 e69a 6400 007d 8158     .....S.....d}.X.
    5248:	6400 0082 5e64 6400 0084 e57f 8e00 0005     .d..d^.d........
    5258:	6d64 5800 0089 9258 6900 0096 a67d 8500     dm.X..X..i..}...
    5268:	002b 3785 9700 007a 7c97 9700 0085 7f97     +..7..z..|......
    5278:	7500 000d 3885 8500 001f 3a85 6200 002c     .u...8.....:.b,.
    5288:	5685 8500 003b ff84 6500 00a1 559e 8400     .V..;....e...U..
    5298:	00fc 9b69 6900 00a7 bb69 6900 00ab ad69     ..i..i..i..i..i.
    52a8:	6900 00d4 b169 6900 00c1 df69 6900 00e0     .i..i..i..i..i..
    52b8:	b769 5000 00f0 7d91 9100 0076 7991 5300     i..P...}..v..y.S
    52c8:	00ae a178 7800 00b4 a378 7800 00b2 cb78     ..x..x..x..x..x.
    52d8:	8100 00e7 688c 6b00 00a1 0697 9700 0001     .....h.k........
    52e8:	958f 8700 001a f488 7f00 00e1 879f 9f00     ................
    52f8:	0088 7f77 4000 0056 7d77 5600 001e 0856     ..w..@V.w}.V..V.
    5308:	5600 000c 0156 5600 000e a766 6600 009d     .V..V..V..f..f..
    5318:	0c8e 8e00 0009 1e87 8700 0025 2e87 8700     ..........%.....
    5328:	0048 3487 8700 0031 2987 8700 0037 3f87     H..4..1..)..7..?
    5338:	8700 0082 2287 5600 0018 2156 9e00 0057     .....".V..V!..W.
    5348:	2356 5600 0024 1a56 5500 00fe 2756 7f00     V#.V$.V..U..V'..
    5358:	0074 717f 5e00 0054 825d 5e00 005b 598d     t..q.^T.]..^[..Y
    5368:	7f00 0042 b79a 9a00 00b6 589e 9500 0032     ..B........X..2.
    5378:	3495 9500 0036 3795 9500 0038 3595 9500     .4..6..7..8..5..
    5388:	0041 4295 7200 0092 907b 7b00 00a6 a77b     A..B.r..{..{..{.
    5398:	7b00 008d b87b 7b00 00ac 857b 7b00 00aa     .{..{..{..{..{..
    53a8:	947b 7b00 009c a27b 7b00 0093 d36b 5000     {..{..{..{..k..P
    53b8:	00d6 0651 5000 00f3 ed50 5200 0081 ee50     ..Q..P..P..R..P.
    53c8:	9b00 0043 469b 7700 007e 4b82 9100 0031     ..C..F.w~..K..1.
    53d8:	8881 8100 0091 919c 9c00 0094 9a9c 9c00     ................
    53e8:	009b 9f9c 7300 0050 eb89 9600 00d2 2459     .....sP.......Y$
    53f8:	9900 0091 ae92 5800 007e bd9e 7600 000c     .......X~....v..
    5408:	0a76 7600 0018 1976 5e00 00d6 f697 6500     v..v..v..^.....e
    5418:	00d6 8281 9600 001a 2f91 9c00 009e bf7c     ........./....|.
    5428:	7c00 00bc bd7c 7c00 00c1 ca69 9e00 005a     .|..|..|..i...Z.
    5438:	9871 7100 00a5 626f 6f00 0015 f96e 6f00     q..q..ob.o..n..o
    5448:	002f 366f 6f00 004b 746f 6f00 002a 096f     /.o6.oK.ot.o*.o.
    5458:	6f00 0033 296f 6f00 0089 4d6f 6100 0075     .o3.o).o..oM.au.
    5468:	3464 7a00 00a8 e45b 7d00 00ae 2e8c 8900     d4.z..[..}......
    5478:	0021 1989 8900 0013 1b89 8900 000a 2f8c     !............../
    5488:	8c00 0030 328c 6600 00a8 635c 9e00 005b     ..0..2.f..\c..[.
    5498:	e35a 5a00 00f1 d65a 5a00 00e6 da5a 5a00     Z..Z..Z..Z..Z..Z
    54a8:	00d8 e15a 9f00 0010 df7f 7700 0080 5c9e     ..Z........w...\
    54b8:	9a00 00a0 257f 7f00 0026 277f 7f00 0028     .....%..&..'..(.
    54c8:	a29a 7f00 002a 2b7f 8000 0026 2780 7400     ....*..+..&..'.t
    54d8:	007e 9c74 7400 0080 8e74 7400 0081 8b74     ~.t..t..t..t..t.
    54e8:	7400 0087 6d59 9a00 00ef eb9a 6400 00b7     .t..Ym.......d..
    54f8:	8564 8d00 006d b864 9200 00c6 9964 6400     d...m.d.....d..d
    5508:	00ba 8058 8000 0069 d089 9700 0091 5985     ..X...i........Y
    5518:	9700 0092 4885 8500 0068 6485 8500 005e     .....H..h..d..^.
    5528:	7a85 7700 00a2 4385 8500 0072 5c8d 6900     .z.w...C..r..\.i
    5538:	00ff 2f6a 6900 00ed 176a 6a00 0018 0a6a     ..j/.i..j..j..j.
    5548:	6900 00f2 8c91 9100 0085 6597 9b00 0047     .i.........e..G.
    5558:	0d99 7800 00d4 d978 9700 0008 988f 9f00     ...x..x.........
    5568:	0089 8a9f 8900 00d1 8c77 7700 008b 9177     ........w..w..w.
    5578:	5600 002d 4e56 5600 0076 9998 6600 00b9     .V-.VN.Vv....f..
    5588:	5856 8e00 0014 1d8e 8e00 001f 128e 8e00     VX..............
    5598:	002c 2e8e 8e00 002f 3a8e 8e00 001e 7d87     ,...../..:.....}
    55a8:	8700 007e 7b87 8700 0070 6e87 8700 008b     ..~..{..p..n....
    55b8:	5387 8700 0063 7c87 5600 0057 2c56 9800     .S..c..|.VW.V,..
    55c8:	009a 4d56 5600 0062 5956 5600 005c 4c56     ..VM.Vb.VY.V\.VL
    55d8:	5600 0054 9b98 5e00 005e 615e 5d00 0099     .VT....^^.^a.]..
    55e8:	9d5d 9a00 00ba bc9a 9a00 00b8 4a95 9500     ]............J..
    55f8:	0049 4c95 9500 004d 4f95 9500 0052 5395     I..L..M..O..R..S
    5608:	9500 0054 377a 7b00 00b4 d17b 7b00 00c1     ..T.z7.{..{..{..
    5618:	cc7b 7b00 00c6 5672 5100 000b b55f 7800     {..{..rV.Q.._..x
    5628:	00d0 6286 9e00 005e 9881 6e00 00d5 a09c     ...b..^....n....
    5638:	9c00 00a1 a29c 9c00 00a3 a59c 9c00 00a7     ................
    5648:	a99c 7300 0057 6073 8900 00ef 9399 9900     ...sW.s`........
    5658:	0094 be9e 5e00 00db 1b76 7600 003c 2276     .....^..v..v<.v"
    5668:	7600 0020 519f 7f00 00af b07f 5e02 00d7     .v ..Q.......^..
    5678:	7490 7c00 00cc cd7c 7c00 00c5 9c71 7100     .t.|..|..|..q..q
    5688:	00b5 a071 6f00 008d 8c6f 6f00 0078 666f     ..q..o..o..ox.of
    5698:	6f00 0072 c892 6f00 005f 7c6f 6f00 007a     .or....o_.o|.oz.
    56a8:	ac61 6100 00a7 ee5b 7a00 00b3 338c 8900     a..a..[..z...3..
    56b8:	0034 1f89 8900 002b 358c 7100 00a8 665c     4.....+..5.q..\f
    56c8:	5b00 0009 f052 6200 002e 6587 7f00 002c     .[..R..b...e..,.
    56d8:	2e7f 7f00 002f a39a 7500 007f 2980 8000     ..../....u...)..
    56e8:	0028 2a80 7400 009e 9f74 9700 005b a074     (..*.t..t...[.t.
    56f8:	7400 0098 7180 8700 00af fb9a 9a00 00ed     .t...q..........
    5708:	f99a 6400 00c0 b971 7500 000f de64 7e00     ...d..q..u..d..~
    5718:	0020 ec78 9800 009e 7b85 9700 0098 9f98      .x......{......
    5728:	8500 00a4 a885 6a00 00a0 8f85 8500 00ae     .......j........
    5738:	9c85 8500 0085 3e6a 6a00 005b 476a 6a00     ......j>.j[.jG.j
    5748:	0035 8e6a 6a00 0079 3d6a 6a00 0028 7c6a     5.j..jy.j=.j(.j|
    5758:	5800 00bc 506a 7f00 00ee 9b91 9100 0090     .X..jP..........
    5768:	8d91 9100 009a f278 8d00 005d d998 6b00     ......x...]....k
    5778:	00aa 1697 9700 000f 1397 9300 003e 9a8f     ............>...
    5788:	8100 00fb 7d90 6c00 0005 9f77 7700 00a0     .....}.l..w..w..
    5798:	b077 5600 0084 8656 5600 0064 be66 8e00     w..V..V..Vd.f...
    57a8:	0040 398e 8e00 0035 3d8e 8e00 0049 418e     @..9..5..=..I..A
    57b8:	8700 00a8 d287 8700 0088 8587 8700 00ad     ................
    57c8:	a087 8700 009f 7156 5600 006c 6b56 5600     ......Vq.Vl.Vk.V
    57d8:	007b 7c56 7f00 0079 1c57 4900 0083 5695     {.V|..y.W..I...V
    57e8:	9500 0057 5895 9500 005a 5b95 9500 005d     ..W..X..Z..[..].
    57f8:	5e95 9500 0060 076c 6c00 0006 a961 7a00     .^..`.l..l..a..z
    5808:	0051 dd7b 7b00 00e5 e67b 7b00 00ea d97b     Q.{..{..{..{..{.
    5818:	7600 00e5 9352 7f00 00f1 499b 9b00 0048     .v..R......I..H.
    5828:	bc5f 6b00 0059 b381 8100 00a6 9981 9c00     _..kY...........
    5838:	00ae b19c 9c00 00b2 b39c 9c00 00b4 b59c     ................
    5848:	9c00 00b7 bb9c 7300 0074 6d73 7300 006c     .......st.sm.sl.
    5858:	8290 9e00 0067 e85e 8d00 005f 3076 5e00     ....g.^..._.v0.^
    5868:	00ea 3f76 7600 0035 3476 7600 0043 3376     ..v?.v5.v4.vC.v3
    5878:	6500 0093 879e 9e00 0088 345b 5800 00c5     .e........[4.X..
    5888:	b27f 7c00 00d7 a577 7500 0011 ce71 7100     ...|..w..u..q..q
    5898:	00e0 d471 7100 00e7 d16f 6f00 00c9 5e6f     ..q..q..o..o..o^
    58a8:	6f00 00a7 b96f 6f00 00a5 b66f 6f00 00c2     .o..o..o..o..o..
    58b8:	3089 5b00 00f0 b87a 8900 0036 a779 5b00     .0.[..z...6.y..[
    58c8:	0016 9f72 9600 00b0 175b 9800 00a1 317f     ..r.....[......1
    58d8:	7f00 0032 337f 7400 00a8 a974 7400 0090     ..2..3.t..t..t..
    58e8:	aa74 8700 00ab e464 5800 00d5 f389 7f00     t.....d..X......
    58f8:	0044 e264 8500 00b9 a197 9700 00ac b785     D.d.............
    5908:	8500 00b0 d385 8500 00c1 846a 6a00 00a9     ..........j..j..
    5918:	cb61 9100 00a2 f37f 7900 0005 f478 9e00     a........y..x...
    5928:	0069 8b9f 9f00 008c 738c 5800 00d1 fb9e     i........s.X....
    5938:	5600 008f 8556 8e00 0051 528e 8e00 004a     .V..V...Q..R..J.
    5948:	e587 8700 00ac b587 7500 0083 b387 8700     .........u......
    5958:	00d1 9356 7f00 0081 7d7f 7f00 007e b75d     ..V......}..~.].
    5968:	9e00 00dc dd9e 9a00 00c1 c09a 9500 0061     ..............a.
    5978:	6295 9500 0063 6695 9500 0067 6995 9500     .b..c..f..g..i..
    5988:	006a 6b95 7f00 0045 cf9e 7c00 000c fe7b     j..k..E....|..{.
    5998:	7b00 00fc 167c 7c00 000b 229f 9e00 00db     .{..|..|..."....
    59a8:	2151 9e00 006a 3e9f 7600 00a4 4d9b 9f00     Q!..j..>.v...M..
    59b8:	00a0 477e 8c00 0098 8890 8c00 0094 cc81     ..~G............
    59c8:	8100 00bb c681 8100 00c3 bc9c 9c00 00bd     ................
    59d8:	c09c 9c00 00c3 c59c 9c00 00c7 ca9c 8700     ................
    59e8:	00bd ee71 9e00 006b 4489 7c00 00dc 3b7e     ..q...k..D.|..~;
    59f8:	8100 00ba 4d76 9e00 008b d161 6f00 00e1     ....vM....a..o..
    5a08:	ee6f 6f00 00de e06f 6f00 00ef 478e 8b00     o..o..o..o...G..
    5a18:	0007 8390 8900 0041 976a 6400 00d8 7a5b     ......A.j..d..[z
    5a28:	9600 00b3 375b 8700 00ca 6c9e 9300 006a     ....[7.....l..j.
    5a38:	ca93 9c00 00cc 089b 9b00 0003 bd77 9700     ............w...
    5a48:	00af a897 9700 00ab a797 9700 00a3 dc85     ................
    5a58:	8500 00e0 e985 9100 00aa 598e 7900 0013     ...........Y.y..
    5a68:	f971 9900 002e bf77 6600 00db a298 6600     q.....w..f.....f
    5a78:	00dc 878e 8e00 005a 6d9e 8700 00db ea87     ......Z..m......
    5a88:	8700 00e0 ee87 9e00 006e e09e 9e00 00df     ........n.......
    5a98:	c59a 9a00 00c2 6c95 9500 006d 6f95 9900     .......l..m..o..
    5aa8:	00a5 1f7c 7c00 002a 2c9f 9600 00e0 5f82     ..|..|*..,....._
    5ab8:	9c00 00ce cf9c 9c00 00d0 5e76 7600 0054     ..........v^.vT.
    5ac8:	5c76 7600 0056 e87c 8e00 0069 8f93 6100     v\.vV.|...i....a
    5ad8:	00f5 5d5f 9000 008b 0f9b 6500 0009 1265     .._].......e..e.
    5ae8:	9700 00b2 b497 8500 00ff 2786 8600 0005     ...........'....
    5af8:	939e 9100 00ae af91 9100 0043 2a97 9700     ..........C..*..
    5b08:	002d 2897 9e00 00fc af56 8e00 0070 768e     -..(....V...p..v
    5b18:	8e00 007d 7c8e 8e00 0074 7e8e 8e00 007f     ..}..|..t..~....
    5b28:	1688 8800 0013 fe87 8800 000a e29e 9a00     ................
    5b38:	00cb cc9a 9500 0072 407c 7c00 0041 419f     ......r.|@.|A..A
    5b48:	9b00 0051 6882 9c00 00d3 d49c 9c00 00d5     ..Q..h..........
    5b58:	d79c 9c00 00d9 929e 9300 00d6 b87f 3e00     ...............>
    5b68:	0006 1a70 7000 0023 1b70 8900 0066 368c     ..p..p#.p...f..6
    5b78:	8900 005e a59a 7f00 0035 d274 6500 0018     ..^.....5.t..e..
    5b88:	2986 8600 0016 b491 9700 0030 4691 7700     .)........0..F.w
    5b98:	00cd e666 8e00 0085 0d9f 5d00 00c9 e99e     ..f........]....
    5ba8:	9e00 00e5 ea9e 9500 0073 7495 9e00 00e7     ........s..t....
    5bb8:	827e 7400 00ba 2f9f 8100 00dc dc9c 9c00     ~..t.../........
    5bc8:	00dd df9c 7300 007e 405b 9a00 00a7 d874     .....s~.[@....t.
    5bd8:	9f00 0019 ba91 7900 0034 a698 6600 00e9     .......y4....f..
    5be8:	e29c 7600 006b 9d9e 5900 0014 1d72 7000     ...vk....Y..r..p
    5bf8:	004f b379 9400 003e bc7f 8800 0021 3180     O.y...>.....!..1
    5c08:	6100 00ff 3886 9e00 0073 3e97 6c00 000d     .a...8..s..>.l..
    5c18:	5599 8e00 0090 d19a 9500 0075 707a 9900     .U........u.zp..
    5c28:	0054 3b9b 9b00 001f b18d 6500 002b 2565     T..;.......e+.e%
    5c38:	9800 00a7 9c8e 9f00 0039 6f76 9e00 009f     ........9.vo....
    5c48:	3288 8800 0039 9e8e 8800 0062 6b94 7000     .2..9.....b..k.p
    5c58:	005e 7b89 7e00 009b 239b 6500 002e d456     ^..{.~...#.e..V.
    5c68:	9900 0095 0662 7200 0028 499f 4e00 008d     ....b..r(..I.N..
    5c78:	225c 5f00 0073 6c53 6b00 02b3 7606 6b00     \"._s.Sl.k...v.k
    5c88:	00cc 9890 6200 000b 2257 6c00 0015 0b4f     .....b..W".l..O.
    5c98:	4e00 00dd ae51 6c00 003f 486c 6c00 003e     .N..Q..l?.lH.l>.
    5ca8:	c95f 5b00 0284 d9c8 8b00 00b1 5e62 5700     _..[........b^.W
    5cb8:	0032 2b57 8200 008f 8382 6700 0033 3867     2.W+.......g3.g8
    5cc8:	8602 0078 a890 5400 0012 1654 5c00 007c     ..x....T..T..\|.
    5cd8:	7e5c 8f00 00bf 8694 4e00 00f3 234f 4f00     \~.......N..O#.O
    5ce8:	0008 7f76 7500 002a a090 7200 00b4 b151     ..v..u*....r..Q.
    5cf8:	9000 00a1 eb95 c102 00d5 4b6c 4700 0023     ..........lK.G#.
    5d08:	bb8b c802 00de 565b c602 0013 a97e 7300     ......[V....~..s
    5d18:	0092 9373 7300 0098 9a73 5200 022c 5fbb     ..s..s..s..R,.._
    5d28:	5700 005c 4957 6200 027d 62bb 5700 004b     .W\.WI.b}..b.WK.
    5d38:	7a62 3900 00d1 d06b 8200 00b0 a382 8200     bz.9..k.........
    5d48:	00ca c982 8200 0098 b482 8200 02a0 edb1     ................
    5d58:	8200 00a4 5567 6700 0059 4467 6700 0067     ....gU.gY.gD.gg.
    5d68:	6967 5c00 002a 285c 8f00 026a 04b4 5700     gi.\*.\(..j....W
    5d78:	0052 8882 6500 00f4 f565 5400 0059 6e35     R....e..e..TY.5n
    5d88:	5c00 028d 77bd 5c00 00a0 9c5c 5400 0047     .\...w.\..\..TG.
    5d98:	8f51 8900 00c3 995c 4f00 003e 4734 4f00     Q.....\..O>.4G.O
    5da8:	002d 564f 4f00 0032 414f 9800 00cf c372     -.OV.O2.OA....r.
    5db8:	9500 00f6 676c 6c00 026b 983c 3c02 0097     ....lg.lk.<..<..
    5dc8:	846c 6c00 0298 d9c1 6c00 006d c73c 6c00     l..l.....lm.<..l
    5dd8:	0087 ee5f 5f00 00f3 fa5f c802 00e1 4379     .._.._.._.....yC
    5de8:	8b00 00c7 b290 8b00 00ce d08b 5c00 0243     .............\C.
    5df8:	29be 5c00 008a 3d96 4800 00ba 3c96 5900     .).\...=.H...<.Y
    5e08:	00a7 9859 8602 0095 ae7e 9a00 0272 1cb6     ..Y.....~...r...
    5e18:	7e00 02bb 18c6 b602 001d bc7e 7300 00a4     .~........~..s..
    5e28:	9e73 7300 00b1 9f73 9000 00bd bf90 5700     s..s..s........W
    5e38:	0065 7057 5700 006c 7d57 5f00 0006 3580     e.Wp.Wl.W}._...5
    5e48:	4800 02bc 5c6b 8300 000b e782 8200 00fe     .H..k\..........
    5e58:	e082 6700 0085 4e3b 6700 0098 8d67 7700     ...g..;N.g..g..w
    5e68:	00fc fb77 5300 023c 02ca c002 0229 2ac0     ..w..S<.....)..*
    5e78:	6500 00ff 0766 6600 0004 1266 6600 0008     .e..f..f..f..f..
    5e88:	8954 5400 0087 8d54 5c00 00b5 bd5c 5c00     T..T..T..\..\..\
    5e98:	00a8 9e5c 5c00 00c2 c337 5600 02f7 29cb     ..\..\..7..V...)
    5ea8:	9400 0090 9494 9400 0096 6572 4f00 0074     ..........re.Ot.
    5eb8:	8857 4f00 0081 b94f 4f00 0078 7a4f 9600     W..O..O..Ox.Oz..
    5ec8:	00b9 4a34 4f00 0082 7d4f 4f00 0098 c890     ..4J.O..O}.O....
    5ed8:	8200 0020 d090 9000 00c3 3d65 8000 00ad     .. .......e=....
    5ee8:	b880 8000 00b7 c972 7200 00dd 7399 5f00     ......r..r...s._
    5ef8:	00de bc65 7000 008c 8670 6c00 00d9 ba6c     ..e..p..p..l..l.
    5f08:	6c00 00c2 dc6c 6c00 00c3 c76c 6000 000a     .l..l..l..l..`..
    5f18:	c35c 7a00 0078 4b79 7900 024a 63b3 c802     \..zx.yK.yJ..c..
    5f28:	02f3 7dca 9e00 0024 225f 5f00 0028 5196     ...}..$._"._(..Q
    5f38:	cb02 00bf 4e96 cb02 00c0 7a53 4e00 0078     .....N....Sz.Nx.
    5f48:	ad59 5900 02c8 1bbc 8f00 00f3 d553 cc02     Y..Y........S...
    5f58:	00f5 759a cc02 00f6 3943 9a00 027a 0ab8     ...u....C9..z...
    5f68:	7e00 00cb d07e 7800 0009 1480 3600 00c3     .~..~..x.....6..
    5f78:	b673 7300 00c7 c573 c302 005b cb73 7300     s..s..s...[.s..s
    5f88:	00b9 cc73 7300 00bf e897 5700 009a af57     ..s..s.....W..W.
    5f98:	5700 0099 b257 5700 00cf 8d57 8000 0007     .W..W..W..W.....
    5fa8:	cd9f 5700 008e b457 5700 009f 9e57 6300     ...W..W..W..W..c
    5fb8:	0013 b557 5700 008f f662 8300 0056 4183     ..W..W..b...V..A
    5fc8:	8300 0059 5b83 8300 0008 3d83 8300 0044     ..Y..[.....=..D.
    5fd8:	3a83 c702 002c 5383 8300 0233 216c 8300     .:..,..S..3.l!..
    5fe8:	001b 6d83 3b00 0055 f767 6700 00c3 ca67     ...m.;U.g..g..g.
    5ff8:	6700 00b9 1068 6700 00d6 da90 5200 0045     .g..h..g.....RE.
    6008:	134d 8f00 00fa 9653 7800 0006 1178 7800     M.....S..x..x..x
    6018:	0004 0f80 5900 0053 ae4d 8f00 0075 778f     .....YS.M...u..w
    6028:	8f00 0079 7a8f 6600 023a a2af 6600 003d     ..y..z.f:....f=.
    6038:	f776 5400 00a1 ba54 6600 0033 2366 5400     v..T..T..f3.f#.T
    6048:	00d2 2466 6600 002b 2166 5400 00a5 2a66     ..f$.f+.f!.T..f*
    6058:	8600 0077 7886 5400 00c3 d85c 8000 0011     ..w..x.T..\.....
    6068:	db5c aa02 0030 d75c 5c00 00e7 215e 9400     \...0.\..\..^!..
    6078:	0298 e7b4 9400 029c 2ecb cb02 0231 2dcb     ............1..-
    6088:	9400 00aa ac94 9400 00ad e777 7900 00ec     ..........w..y..
    6098:	eb4f 8200 0001 dc4f 4f00 00d9 cd4f 5700     O.....O..O..O..W
    60a8:	0095 4e88 8200 0023 075f 4f00 00b4 279e     ...N..#._..O...'
    60b8:	4300 00e1 e080 6602 0076 c880 8000 00e9     .C.....fv.......
    60c8:	e380 6700 000f d098 8a00 0004 7b99 5e00     ...g.........{.^
    60d8:	00a4 a275 7000 00a3 9f70 3d00 00b2 2d6d     ..u..p..p..=..m-
    60e8:	6d00 0018 136d 6d00 003f da3c 6c00 00da     .m..m..m?.<..l..
    60f8:	486d 6d00 0049 386d 6d00 0011 226d 6d00     mH.mI.m8.m..m".m
    6108:	0008 1a6d 6d00 003a 286d 6d00 0050 d83c     ..m..m:.m(.mP.<.
    6118:	6d00 0034 236d 6000 0054 ac5b 7a00 0080     .m4.m#.`T.[..z..
    6128:	4262 8800 0086 4f79 7900 0050 5579 5300     bB....yO.yP.yU.S
    6138:	00da 6796 9600 005e 005a 5900 00de f159     ...g..^.Z..Y..Y.
    6148:	5900 00e4 f659 5900 00fd b267 7e00 00d6     .Y..Y..Y..g..~..
    6158:	839a c602 0221 fdcc c602 0229 27b1 5f00     ....!.....)..'._
    6168:	0056 899a 6000 005d ea73 7300 00db f973     V....`].s..s..s.
    6178:	7400 000a bc73 7300 02d6 dda7 7300 00fd     .t..s..s.....s..
    6188:	e673 7300 00eb d273 c302 0064 e273 7300     s..s..s...d.s..s
    6198:	00d5 dd73 bb02 007c d757 5700 00be ba57     ..s...|.W..W..W.
    61a8:	5700 00c6 bf57 5700 00cc c757 8300 00b0     .W..W..W..W.....
    61b8:	1d83 c702 002f 0091 8300 00b6 9d83 4400     ..../..........D
    61c8:	00d6 9983 6800 003b 6068 c002 00a9 4468     .....h;.h`....hD
    61d8:	6800 00a0 3468 6800 00b4 1268 9100 004e     .h..h4.h..h...N.
    61e8:	4f91 b802 0006 3578 7800 0020 2b78 7800     .O....x5.x .x+.x
    61f8:	002c 4178 6000 0067 c37f 9000 02ea 0884     ,.xA.`g.........
    6208:	8f00 0080 818f c302 0017 5552 8d00 0040     ..........RU..@.
    6218:	e254 6600 0045 4a66 5500 001d f354 5400     T..fE.fJ.U..T..T
    6228:	00f1 9451 6600 0054 5066 6600 0056 5675     ..Q..fT.fP.fV.uV
    6238:	8600 0084 8686 b402 0061 315e 5d00 0001     ........a.^1.]..
    6248:	ff5c aa02 0036 045d 5e00 0028 005d 8d00     \...6.]..^(.]...
    6258:	0246 38cb 9400 02b7 3bcb cb02 0239 3fcb     F..8.....;..9..?
    6268:	cb02 0041 1a77 7500 0021 2b7b 5000 003b     ..A.w..u!.{+.P;.
    6278:	3450 8100 0029 2e50 5000 0015 1e50 b802     P4..).P..P..P...
    6288:	00b8 1350 5000 0027 4388 8600 0052 2d82     ..P..P'..C..R..-
    6298:	8200 002f 2582 7400 00de 2f9b 9e00 0030     ../..%.t.../..0.
    62a8:	0e81 6700 0013 f280 8600 0053 7d9c 7200     ...g......S..}.r
    62b8:	00f4 f15c 7200 00fb 2277 b502 00e7 cd52     ..\..r..w"....R.
    62c8:	7500 00c4 b075 7500 00c3 d87a 7f00 0096     .u..u..u..z.....
    62d8:	937f 6800 004a 4965 7000 00e0 d470 7000     ...hJ.eI.p..p..p
    62e8:	00f6 fb70 c202 0088 8d6d 6d00 0061 6d6d     ..p.....m..ma.mm
    62f8:	6d00 006c 846d 6d00 00a2 906d 6d00 0070     .ml.m..m..m..mp.
    6308:	5f6d 6d00 005b 7c6d 6d00 0072 986d 6000     m_.m[.m|.mr.m..`
    6318:	0088 8360 6000 02a2 88c4 5b00 00a7 857a     ..`..`.....[..z.
    6328:	7a00 008a 8e7a 6200 0045 4662 8800 00aa     .z..z..bE.bF....
    6338:	9788 8800 00af 6779 9600 00ba 3258 7500     ......yg....X2.u
    6348:	028d 998e 9600 0074 dd70 7800 002e da36     ......t.p..x..6.
    6358:	5400 00ff c07f 7f00 00c2 5f52 cc02 02ff     .T........R_....
    6368:	28b1 7e00 00e4 8d9a c602 002b ae40 7400     .(.~......+.@..t
    6378:	000e f873 7300 00f5 0474 7400 0008 0074     ..s..s..t..t..t.
    6388:	7300 00fa ad63 5800 000e 1058 5700 00fc     .s..c..X..X..W..
    6398:	8e63 5700 00eb 0c58 6600 0262 83bb 6300     c..W..X..fb....c
    63a8:	009e ea57 5800 00f8 4d36 8000 004d dd83     ..W..X..6M..M...
    63b8:	8400 001a e583 8300 00bf eb44 5200 00da     ..........D..R..
    63c8:	ec44 8400 0006 c283 8300 00cd fc83 8400     D...............
    63d8:	0023 e844 8300 00c9 db44 6800 00bc bd68     #.D.....D..h..h.
    63e8:	6800 0072 be68 6800 006f a368 6800 008c     .hr.h..ho.h..h..
    63f8:	7968 6500 0054 a353 7800 0054 ce9f 7800     hy.eT.S..xT....x
    6408:	0059 5a78 7800 004a 4d78 5200 00d4 154d     Y.xZ.xJ.xM.R..M.
    6418:	9f00 0081 3490 5500 002a 6b55 7f00 00c8     .....4.U*.Uk....
    6428:	f03a 6600 0059 6475 cc02 0056 bc8d 8d00     :..fY.ud..V.....
    6438:	00c2 c386 8600 02b2 fdc7 8600 00ba 7455     ..............Ut
    6448:	4300 0083 275d 5d00 001f 1e5d 5d00 0012     .C..]'.]..]..]..
    6458:	0c5d 5d00 0021 cf94 b402 02ef f9b7 9400     ]..]!...........
    6468:	02d5 fcb7 9400 00d6 d894 9400 00da de94     ................
    6478:	9400 00e5 f494 7200 007b 7f72 7a00 0006     .......r{.r..z..
    6488:	317b 7b00 002f 7050 5000 0061 3a9e 5000     {1.{/.Pp.Pa..:.P
    6498:	006d 7250 5000 0041 e03f 9100 0005 5350     m.Pr.PA.?.....PS
    64a8:	5f00 009b 5288 8200 0033 3282 9e00 003c     ._...R..3..2..<.
    64b8:	8660 9100 0003 fb74 4700 0059 3681 8100     `.....t..GY..6..
    64c8:	001e 1f81 4300 00f2 7e9c 7300 0007 0a73     .....C...~.s..s.
    64d8:	7300 0004 d689 0102 0064 b15e 5e00 00bc     .s......d.^..^..
    64e8:	b35e 7500 00d3 144d 7a00 00eb 0358 9600     ^..u..M..z..X...
    64f8:	000c 9d7f 7f00 0095 0671 7000 00fa 0c71     ........q..p..q.
    6508:	6d00 02cf f9c1 6d00 00df dc6d 6d00 00f4     .m.....m..m..m..
    6518:	ef6d 6e00 0074 b46d c302 0061 4439 6000     m..nt.m...a.9D.`
    6528:	00db d460 6000 00b0 d960 5b00 00c1 2d90     ..`..`..`..[...-
    6538:	c902 0207 6fb3 8800 00bc c888 7900 0272     .....o.......yr.
    6548:	0ac9 b302 0072 1e8c 8200 0074 385f 5f00     ....r.....t._8._
    6558:	0236 cecb 9600 0083 5e5a 5a00 0035 7c5a     6.......Z^.Z5.Z|
    6568:	5a00 0096 735a 5a00 004d 4c5a 5a00 006b     .Z..Zs.ZM.ZL.Zk.
    6578:	645a 5a00 0058 605a c602 022c 2dc6 cd02     Zd.ZX.Z`..,..-..
    6588:	0202 26b6 7e00 02f9 c5b7 c602 002f 959a     ...&.~....../...
    6598:	b602 0027 5c7d 7300 00f7 3274 7400 0021     ..'.}\.s..t2.t!.
    65a8:	1f74 7400 0014 2d74 5800 003e 3c58 6300     t..t..t-.X>.X<.c
    65b8:	00d5 5836 5800 0027 8655 5800 0028 4558     ..6X.X'.U..X(.XE
    65c8:	5800 0020 777d a802 02fb 9a13 8400 005c     .X .}w........\.
    65d8:	ce60 8400 0033 5984 9700 006c 7484 8400     `...3..Y..l..t..
    65e8:	0087 8884 9100 001a 8984 8400 00c7 2984     ...............)
    65f8:	8400 0090 7084 8400 004e 1191 8400 008e     .....p..N.......
    6608:	5684 8400 0084 3984 6800 00e4 fd68 6800     .V.....9.h..h..h
    6618:	00eb 1369 6900 0211 cac0 9e00 0040 0669     ..i..i......@.i.
    6628:	6800 00d3 ec68 6800 00ea 0069 6900 0257     .h..h..h..i..iW.
    6638:	d5cd 7500 0026 6691 8900 00cc 6159 7600     ...u&..f....Ya.v
    6648:	0095 6a78 6b00 0039 5f8a b402 0010 8c8f     ..xj.k9.._......
    6658:	6800 00d0 829f ce02 007c f99e 7200 005a     .h......|....rZ.
    6668:	4e77 6600 006b 6a66 6600 0271 f97f 8600     wN.fk.fj.fq.....
    6678:	00d1 6f75 6500 009d a455 5d00 0036 415d     ..uo.e..U..]6.]A
    6688:	bd02 0087 3e5d 5d00 0045 3f5d 5d00 005a     ....]>.]E.]?.]Z.
    6698:	d97f b502 00ae 0c57 5700 0010 518d 6d00     ......W..W...Q.m
    66a8:	00fc 528d 9f00 00cf f994 cb02 004a fd94     ...R........J...
    66b8:	8c02 0247 f6b4 9500 000a 0d95 9500 020e     ..G.............
    66c8:	4ecb 9500 0013 8772 9800 008b 0c7a 7b00     .N....r.....z..{
    66d8:	0040 587b 7b00 005c 657b 7b00 0045 8350     @.{X.{\.{e.{E.P.
    66e8:	5000 0089 db7f 5000 0092 9550 8200 003e     .P.....P..P...>.
    66f8:	6c75 b502 00af 3f81 8100 0058 0344 8100     ul.....?..X.D...
    6708:	0059 5281 cc02 005f 839c 7300 0230 edb6     Y..R.._....s0...
    6718:	7300 002f 843e 9900 0089 d351 9100 0217     .s/.>.....Q.....
    6728:	f7bd 5e00 00cb c65e 9100 000c a27c 9000     ...^..^.....|...
    6738:	0046 d065 cb02 00b1 1e71 c202 00a4 3b6b     F.e.....q.....k;
    6748:	3e02 0023 9a6e 6e00 0081 5d6e 6e00 0030     .>#.n..n..n].n0.
    6758:	536e 3d00 0014 1f6e 6e00 00a0 3c6e 6e00     nS.=..n..n..n<.n
    6768:	0087 636e 6e00 0051 9e6e 6100 0010 0361     ..nc.nQ.n..a..a.
    6778:	6500 0069 2f75 6800 00e8 4a62 8800 00e3     .ei.u/.h..bJ....
    6788:	7c79 5a00 007b 865a 5a00 009e f936 5a00     y|.Z{.Z..Z..6..Z
    6798:	0093 825a 5a00 0084 f56b 7700 02de 03cd     ..Z..Z..k..w....
    67a8:	b602 0028 0a7f 7f00 0010 999a 7400 0043     ..(..........tC.
    67b8:	5374 7400 0045 4674 4d00 0016 5674 7400     tS.tE.tF.M..tV.t
    67c8:	005d 5474 7400 0240 db49 7400 0073 4274     ].tT.t@.I..ts.tB
    67d8:	5d00 0085 5174 9000 0058 e29a 5800 0065     .]..tQ..X....Xe.
    67e8:	3d58 8d00 006a 5b64 5800 005d 1264 6400     X=..j.d[.X].d..d
    67f8:	000c b184 8400 00a8 cf84 8500 0000 e284     ................
    6808:	8400 00c2 bb84 8400 00e3 3969 6900 006a     ..........i9.ij.
    6818:	8369 6900 0085 5269 6900 005e 6969 6900     i..i..iR.i^.ii.i
    6828:	0087 3869 6900 0059 456b ca02 00a9 8378     ..i8.iY.kE....x.
    6838:	7800 028f 94c4 7800 0088 c540 7800 007f     .x.....x..@..x..
    6848:	2091 8f00 0292 0eca b402 0013 869f 8900     . ..............
    6858:	00dc d848 6600 0095 4d9e ba02 00c7 0a3b     ..H..f...M....;.
    6868:	6600 0085 f18d 8700 0010 0e87 5d00 0072     .f...........]r.
    6878:	578d 9a00 00b1 1695 b402 00f9 1895 9500     .W..............
    6888:	0033 2795 9500 022a 5acb 9500 002b 2c95     3..'..*..Z..+..,
    6898:	cb02 005b 117a 7a00 0019 5f41 c502 0042     ..[.z..z..A_..B.
    68a8:	7b7b 7b00 007c 767b 7b00 0066 647b 5000     {{.{|.{v.{f.{d.P
    68b8:	00ba 4e9e 5000 00c7 4582 8200 0049 3c8c     ...N.P...E..I..<
    68c8:	8c00 0086 7d81 8100 0068 6f81 9c00 0089     .....}..h..o....
    68d8:	8a9c 9c00 008c 9f4c cd02 028b 8dcd 9c00     ......L.........
    68e8:	008f ca96 7300 003a d498 8900 02df 7c67     .....s:.......g|
    68f8:	9900 008c db88 5e00 00d2 0076 7600 0005     .......^..v..v..
    6908:	1891 9e00 0052 1c91 9e00 0080 2391 9600     ....R........#..
    6918:	0218 36b5 7100 0041 4371 7100 0074 4b71     ...6.qA.qC.qt.qK
    6928:	7100 005f 5371 6e00 00e0 8d6e 6e00 00b9     .q_.qS.n..n..n..
    6938:	c66e 6e00 00c9 a66e 6e00 00b5 376f 6e00     n..n..n..n..o7.n
    6948:	00e7 d86e 6e00 00cd 2d61 6100 0065 4661     ..n..n..a-.ae.aF
    6958:	5800 0271 00b3 8800 00fc 8b79 7900 0094     .Xq.......y..y..
    6968:	9879 7900 0092 2b8c 9e00 0254 b3b5 6100     y..y...+..T....a
    6978:	000d c45a 5a00 00b1 2462 5200 00e0 2362     ..Z..Z..b$.R..b#
    6988:	b602 022a 2cb6 7f00 001e 2480 7400 0267     ..*..,.....$.tg.
    6998:	a9b7 7400 0068 7174 7400 0077 6274 6500     ...th.tq.tw.tb.e
    69a8:	00a0 4f64 5800 0095 8858 5800 0090 9858     ..dO.X..X..X..X.
    69b8:	6400 0074 8e92 1402 0013 9a58 6400 0296     .dt.......X..d..
    69c8:	17a9 9700 007d 8197 8500 000c 0885 8400     ....}...........
    69d8:	00f0 3985 8500 000a 0f56 6900 00b0 9169     ...9....V..i..i.
    69e8:	6900 02da cb35 6900 00dc 8d69 7500 0290     .i..5..i..i..u..
    69f8:	18ce 9100 007a 7e91 9100 0072 7491 7800     ....z..~..r..t.x
    6a08:	00b6 ce40 c402 0097 a878 5502 0032 b978     ..@.....x..U2.x.
    6a18:	7800 00a5 8252 b602 0096 174d 5900 0025     .x..R.....M..Y%.
    6a28:	8d77 9e00 0056 0e3b 8d00 00fd 3e87 5e00     w...V.;......>.^
    6a38:	0056 8d5d 5700 0219 4f8c 9500 003a 3c95     V.]..W...O..:..<
    6a48:	9500 023d 64cb 9500 003e 3f95 9500 0043     ..=..d..>..?..C.
    6a58:	4495 9500 0045 9d99 9e00 0059 a87b 7b00     .D..E.....Y.{..{
    6a68:	0096 8452 5000 00ec e650 5000 00d4 ce50     ..R..P..P..P..P.
    6a78:	6900 00c3 6636 9c00 0092 959c b602 0095     .i..6f..........
    6a88:	969c 9c00 0097 989c 9c00 0299 90cd cd02     ................
    6a98:	028f 7e9f 5900 0010 4d73 9800 02d7 1ace     ...~.Y..sM......
    6aa8:	5100 00d8 d15e 5e00 00d9 1776 7600 0025     .Q..^..^..v..v%.
    6ab8:	1576 9c00 009d 2b91 7100 0087 396f 6f00     v......+.q..o9.o
    6ac8:	0016 466f 6f00 0024 696f 6f00 003c 346f     ..oF.o$.oi.o<.o4
    6ad8:	3f00 004f 086f 6f00 000b 3b6f 6100 006c     .?O.o..o..o;.al.
    6ae8:	ac7a 7a00 00ad be3b c902 001d 1589 7900     z..z..;........y
    6af8:	009b 9a79 9600 00a9 d55a 5a00 00ed dc5a     ..y.....Z..Z..Z.
    6b08:	5a00 02ea 42c6 3e00 00ec b99e 7400 0086     .Z...B.>.....t..
    6b18:	266f 5300 00c7 a358 5800 00a6 a158 5200     o&.S..X..X..X..R
    6b28:	0090 8185 8500 0070 0385 9f00 0012 f169     ......p.......i.
    6b38:	9e00 005d cf78 7800 00c9 a36b 6100 006d     ..].x..x..k..am.
    6b48:	0597 6600 00b5 b266 6600 00b6 268e 8e00     ...f..f..f...&..
    6b58:	0023 d645 8700 0058 7287 8700 0064 4756     #.E...X..r..d.VG
    6b68:	5600 0042 4056 7f00 0076 b25d 5d00 0093     .VB.V@..v.]..]..
    6b78:	0738 5d00 009f 925d 9500 0046 4895 9500     8..]..]...F..H..
    6b88:	004b 4e95 cb02 0069 5595 7a00 0039 0751     K..N..i..U.z9.Q.
    6b98:	7600 009e 9b76 4d00 0018 4e82 8200 004f     .v..v..M...N..O.
    6ba8:	5f9e 9f02 0083 a69c 9c00 00aa ac9c 6a00     ._.............j
    6bb8:	0065 ed89 9e00 0060 619e 7c00 00c7 c87c     e.....`..a.|..|.
    6bc8:	7f00 00e6 629e 9e00 0063 9b71 6f00 0056     .....b..c.q..oV.
    6bd8:	756f 3d00 0050 826f 6f00 009b 6c74 6f00     ou.=P.o..o..tl.o
    6be8:	007d 7e6f 6f00 004f ad61 6100 0295 23ce     }.o~.oO.a..a...#
    6bf8:	6200 002d 2f89 7900 02a4 7db3 5a00 00fd     .b-../.y...}.Z..
    6c08:	7990 cd02 000a a574 7400 00b2 9274 6100     .y....t..t..t..a
    6c18:	0099 d064 9100 0039 b385 9700 0094 c79e     ..d...9.........
    6c28:	c702 009f 5785 8500 00a2 7985 6a00 005e     .....W.....y.j^.
    6c38:	516a 6a00 0066 9191 8900 00f1 e178 5502     jQ.jf.......x..U
    6c48:	0062 dc78 8c00 026e e6b7 ce02 0288 1cb8     b.x...n.........
    6c58:	9e00 007e 6486 6600 00bf cc66 6600 00c8     ..~..d.f..f..f..
    6c68:	1a3b 8e00 0045 368e 4500 00db 9787 7500     ;...E..6.E.....u
    6c78:	0081 1338 5e00 026a 58aa 5d00 02a6 6ccb     ..8..^j..X.]...l
    6c88:	8c02 0251 6fcb 9900 009e 447a 7b00 00da     ..Q..o....zD.{..
    6c98:	ef7b 7c00 0009 3d9f 8800 0060 e676 8700     {..|...=..`.v...
    6ca8:	00a3 227e 9c00 00ad af9c 9c00 00b0 ba9c     ..~"............
    6cb8:	9c00 02b9 f4b5 4e00 00b8 4076 7600 022d     .......N..v@.v-.
    6cc8:	26ce 7f00 00b1 d27c 7100 00cb bb71 7100     .&....|..q..q..q
    6cd8:	00ca da71 7100 00cf e96f 6f00 00cb aa6f     ..q..q..o..o..o.
    6ce8:	6f00 00bd b46f 6f00 00ad bc6f 6100 00b7     .o..o..o..o..a..
    6cf8:	ba61 6100 00d4 c99e 5b00 001b 689e 7f00     a..a.....[...h..
    6d08:	02ef 37b1 7400 02b1 7d4a 7400 00ac ae74     ...7.t..J}.t..t.
    6d18:	9a00 00fd ff64 8500 00bf b885 6a00 0091     ....d........j..
    6d28:	c66a 6a00 009e a891 7e00 0044 f978 7800     j..j.....~D.x..x
    6d38:	00fb ab77 7700 00b5 508e 8700 00cf 0e36     ..w..w...P....6.
    6d48:	cb02 0073 6495 cb02 0276 0db5 9500 0065     ..s..d..v.....e.
    6d58:	6895 cb02 0278 548c cb02 027c 0eb5 7700     .h..x..T..|....w
    6d68:	00f0 597a 7a00 005c 5f7a 7c00 0015 037c     ..zY.z\.z_.|..|.
    6d78:	7c00 000f 2651 9b00 004b b665 8200 025a     .|..Q&..K.e...Z.
    6d88:	2ace 8c00 003f a04c cd02 009f be9c cd02     .*..?.L.........
    6d98:	00a0 bf9c 9c00 00c1 c29c 9c00 00c8 c99c     ................
    6da8:	7300 006f ea45 9900 0098 5589 8900 025a     .so.E......U..Z.
    6db8:	a8cd 8700 00b1 1375 5b00 002c 255b 6202     ......u..[,.[%.b
    6dc8:	0221 38b1 7400 00c0 d091 9b00 0036 0772     !..8.t......6.r.
    6dd8:	9700 00b3 ae97 c702 00c1 df85 8500 00e6     ................
    6de8:	e885 9e00 0072 ab6a 9e00 00e1 1e79 7900     ....r.j.....y..y
    6df8:	020c a855 8e00 0062 5c8e 8700 00eb f445     ..U...b..\....E.
    6e08:	5600 009a c39a 9500 006e 7195 9100 0042     .V......n..q..B.
    6e18:	a799 7c00 0020 1d7c 7c00 0030 2b9f 9f00     ...| .|..|0..+..
    6e28:	0029 a676 8100 00d1 a24c 9c00 00d1 d29c     ).v.....L.......
    6e38:	9e00 0071 6f9e 7600 0257 8d64 6500 00de     ..q..o.vW.d..e..
    6e48:	f77f 5100 0081 9643 7000 0014 0d70 7000     ...Q..C..p..p..p
    6e58:	000c 5c89 4d00 0219 4ac6 5600 00ad 003c     ...\.M...J.V..<.
    6e68:	9b00 0037 ad91 8e00 006f 0b88 7f00 00fe     ..7.....o.......
    6e78:	d89c 5100 0033 3451 9f00 0217 adcd 9f02     ...Q3.Q4........
    6e88:	008c da9c 9c00 00db 919e 9e00 0096 0388     ................
    6e98:	5f00 005f 3f5b 9b00 0012 1886 6b00 0002     .__.[?.......k..
    6ea8:	b591 9800 00a5 1775 8702 00e0 c75d 9100     ......u.....]...
    6eb8:	0045 ce9a 7200 02a8 aecd 8b02 0049 0c3e     E....r......I.>.
    6ec8:	7200 0014 3170 7000 0039 3c70 7000 0035     .r..p1.p9.p<.p5.
    6ed8:	6b89 5b00 0045 a69a c602 004b 3080 4a02     .k.[E.....K..0.J
    6ee8:	00c9 d674 9b00 0018 af8d ce02 0093 4d7f     ..t............M
    6ef8:	9f00 0031 e09c 9c00 00e1 e39c 7200 001f     ..1..........r..
    6f08:	1a72 7000 0048 c297 7c00 00f5 3c86 7900     r..pH....|...<.y
    6f18:	0035 749e 8e00 0094 ad76 9f00 00a2 e49c     5..t....v.......
    6f28:	4e00 00b9 657c 9f00 0237 adb6 7300 0083     .N..|e..7....s..
    6f38:	be91 9f00 0047 ff89 8800                     ....G.....<

00006f43 <glyph>:
    6f43:	0808 0808 0808 0808 0808 0008 0000 0000     ................
    6f53:	0000 8180 8482 9088 c0a0 80c0 0001 22c2     ..............."
    6f63:	2222 c022 4000 4040 4040 4040 4040 0000     """..@@@@@@@@@..
    6f73:	4444 4444 4044 0404 0404 ff04 0404 0404     DDDDD@..........
    6f83:	0004 0000 000e 0000 8080 8080 ff80 8080     ................
    6f93:	8080 0080 0200 002e 0000 ff00 8080 8080     ................
    6fa3:	8080 8080 0080 0068 0000 0000 0808 08ff     ......h.........
    6fb3:	1010 1010 2020 0020 e200 2222 e022 0000     ....   ..."""...
    6fc3:	0000 10ff 0810 0408 0002 0000 00e0 0000     ................
    6fd3:	0000 f807 0000 f800 0007 0000 002c 0000     ............,...
    6fe3:	200c 0000 0300 f00c 030c 0000 0000 8024     . ............$.
    6ff3:	0000 2084 0000 8380 f08c 030c 0000 0000     ... ............
    7003:	8024 0000 2084 0000 ff00 0000 ff00 0000     $.... ..........
    7013:	0001 c022 0e00 e022 04ff 0404 0808 1008     .."...".........
    7023:	2110 0000 22e2 2222 002e 0000 fe01 8080     .!..."""........
    7033:	ff80 0000 0001 8024 0e00 e022 2020 fe21     ......$...".  !.
    7043:	2020 3f20 0000 0003 8024 0e00 e022 8181        ?....$..."...
    7053:	8281 8482 8884 8088 00ff 0000 0200 e022     ..............".
    7063:	8080 8080 8780 9088 c0a0 0000 0200 002e     ................
    7073:	0000 8080 8681 80f8 8080 8080 00ff 8024     ..............$.
    7083:	0200 e022 2020 2320 20fc 2020 2020 003f     ..".   #.     ?.
    7093:	8024 0200 e022 8080 f887 8080 9880 88e8     $..."...........
    70a3:	000f 002c 0200 e022 b080 8488 8182 8482     ..,...".........
    70b3:	e098 0000 4422 8480 2042 4440 4444 4444     ...."D..B @DDDDD
    70c3:	4444 4444 0040 2222 2222 2022 8404 8484     DDDD@.""""" ....
    70d3:	ff84 8484 8484 0004 0000 000e 0000 8404     ................
    70e3:	8484 ff84 8484 8484 0004 0200 002e 0000     ................
    70f3:	1210 9a96 9292 9292 1392 0010 0400 2442     ..............B$
    7103:	0080 8080 8080 ff80 8080 8080 0080 2222     ..............""
    7113:	222e 2022 0800 0808 ff08 0808 0808 0000     ."" ............
    7123:	2222 222e 2022 1010 1010 ff10 1010 1010     ""."" ..........
    7133:	0010 2202 222e 0022 2020 2120 2221 24ff     ..."."".   !!".$
    7143:	2028 0020 8088 e022 0000 8080 8080 80ff     (  ...".........
    7153:	8890 8284 0080 0000 00e0 0000 2020 2324     ............  $#
    7163:	2020 ff20 2020 0020 0000 2e02 0000 2020        .   .......  
    7173:	2320 f02c 232c 2020 0020 8024 0000 2084      #,.,#   .$.... 
    7183:	2020 2224 2021 fc23 2020 0020 2422 4448       $"! #.   ."$HD
    7193:	2022 1901 49e9 4949 4949 414f 0001 0000     " ...IIIIIOA....
    71a3:	2222 00c0 8080 84ff 8484 8484 8784 0080     ""..............
    71b3:	002c 2200 002e 0000 0000 ff00 0808 0808     ,.."............
    71c3:	0000 2222 222e 2022 1c03 0000 ff00 0000     ..""."" ........
    71d3:	1c00 0003 0200 002e 0000 407f 4040 4040     ...........@@@@@
    71e3:	4040 7f40 0000 44c4 4444 004c 007f 0000     @@@....DDDL.....
    71f3:	ff00 0000 0000 007f 22e2 222e e022 203f     ........."."".? 
    7203:	2020 ff20 2020 2020 003f 0080 000e 8088        .    ?.......
    7213:	4404 4444 7f44 4444 8484 0004 0000 000e     .DDDD.DD........
    7223:	0000 2010 49c8 4a49 4c4a 484c 0040 a204     ... .IIJJLLH@...
    7233:	2222 e022 ff00 0000 7f00 0000 ff00 0000     """.............
    7243:	0068 000c 000e 3f08 01c0 8482 9088 c0a0     h......?........
    7253:	0080 0c0e 2222 e022 0808 2010 8740 2040     ....""".... @.@ 
    7263:	0810 0008 0000 000e 0000 0804 c830 4444     ............0.DD
    7273:	4142 7846 0000 0200 8024 0000 1008 c020     BAFx....$..... .
    7283:	4241 5845 0060 0000 4822 0800 2042 0800     ABEX`..."H..B ..
    7293:	2110 04c2 6018 0100 0000 a226 4422 604c     .!...`....&."DL`
    72a3:	3008 40c0 4448 4043 4040 007f 0000 0200     .0.@HDC@@@......
    72b3:	e022 ff00 8080 8688 8080 00ff 0001 0068     ".............h.
    72c3:	0000 e0e2 2424 fe23 2021 3f20 0000 0003     ....$$#.!  ?....
    72d3:	8024 0e08 e022 8100 84fe 8182 a998 0cca     $..."...........
    72e3:	0000 222c 8444 2022 7f00 4040 4040 40c0     ..,"D." ..@@@@.@
    72f3:	4040 0040 0068 0000 0000 3f20 2020 e020     @@@.h..... ?   .
    7303:	2020 2020 0020 220e 2222 0022 409f 8000          ..""""..@..
    7313:	8080 8080 8080 00ff 00e0 0000 e022 8000     ............"...
    7323:	2040 0f10 2010 8040 0000 0000 000e 0000     @ ... @.........
    7333:	f000 020c 6081 0201 f00c 0000 2422 4448     .....`......"$HD
    7343:	2022 2020 2020 e121 2422 3028 0000 8824     "     !."$(0..$.
    7353:	2244 2022 ff00 9090 9090 9090 9090 00f0     D"" ............
    7363:	0068 0000 0000 8487 8484 8484 8484 fc84     h...............
    7373:	0000 22e2 2222 6022 849f 8484 8484 8484     ...""""`........
    7383:	fc84 0000 22e2 2222 6022 84ff 8484 8484     .....""""`......
    7393:	8484 fc84 0000 22e2 2222 6022 9e80 9292     .......""""`....
    73a3:	9292 9292 f292 0003 0000 2202 e022 8404     ...........""...
    73b3:	8484 8f84 a494 04c4 0004 0200 002e 0000     ................
    73c3:	8000 8080 80ff 8282 fe82 0000 2222 22e2     ............""."
    73d3:	2022 0808 087f 1010 10ff 3e22 0000 e200     " ........">....
    73e3:	2222 e022 2020 3a26 20e1 2320 203c 0020     """.  &:.  #<  .
    73f3:	2422 8448 2042 8888 8784 81fa 8080 8080     "$H.B ..........
    7403:	00ff 8024 8200 e022 8080 8080 8080 ff80     ..$...".........
    7413:	2810 0044 0000 0800 c042 8080 90a0 8088     .(D.....B.......
    7423:	8281 8080 00ff 4404 0288 e022 b080 8488     .......D..".....
    7433:	99a2 8482 e098 0000 4422 8480 2042 8c00     ........"D..B ..
    7443:	84b4 8484 8484 fc84 0007 8888 8a88 e0a2     ................
    7453:	0000 3311 9955 1111 0221 0000 2200 4824     ...3U...!...."$H
    7463:	0000 4941 4949 ff49 4949 4949 0041 0000     ..AIIII.IIIIA...
    7473:	000e 0000 8484 8484 ff84 8484 8484 0084     ................
    7483:	2222 222e 2022 8484 84ff 8484 ff84 8484     ""."" ..........
    7493:	0000 002c 0e00 0000 2121 ff21 2121 ff21     ..,.....!!!.!!!.
    74a3:	2121 0021 4802 0e00 0000 8880 8888 fc8b     !!!..H..........
    74b3:	888b 8888 0080 4822 0800 2042 2404 2424     ......"H..B .$$$
    74c3:	fe25 2425 2424 0004 4822 0800 2042 8808     %.%$$$.."H..B ..
    74d3:	8f88 8888 8f88 8888 0008 4822 0e00 e022     .........."H..".
    74e3:	8808 8988 f88e 888f 8888 0008 4822 e200     ............"H..
    74f3:	e022 8808 8988 888e 8888 8889 0008 6a22     "............."j
    7503:	2422 6048 4808 4e4a ca7a 4a4a 484b 0008     "$H`.HJNz.JJKH..
    7513:	0000 6884 0000 8c80 84b4 fc84 9494 9494     ...h............
    7523:	0087 0000 2200 c022 2222 24ff 0024 00ff     .....""."".$$...
    7533:	0000 0003 e022 e200 e022 4840 e848 4949     ...."...".@HH.II
    7543:	ea4a 484c 0040 aa04 2222 002c 2120 3826     J.LH@..."",. !&8
    7553:	ff20 3820 2126 0020 0080 000e 8000 8880      . 8&! .........
    7563:	8f88 88f8 8888 808f 0080 2e22 2222 20e2     .........."."". 
    7573:	4840 4a48 f849 4948 4c4a 0040 2422 8448     @HHJI.HIJL@."$H.
    7583:	2042 ff00 9090 9090 909f 9090 0090 0068     B ............h.
    7593:	e022 0000 8282 8884 bf90 88c0 8488 0082     "...............
    75a3:	0000 000e 0000 2020 2120 f826 2126 60a0     ......   !&.&!.`
    75b3:	0020 4822 0800 2042 2020 2320 f02c 232c      ."H..B    #,.,#
    75c3:	2020 0020 8024 4008 2084 80ff 9090 8a89        .$..@. ......
    75d3:	8a84 80b1 0080 aae2 2222 202a ff00 9080     ........""* ....
    75e3:	bf90 9090 9090 009f 0268 02c0 e022 8480     ........h..."...
    75f3:	8884 92f4 9091 9291 009c 2202 4824 0000     ..........."$H..
    7603:	4040 fc47 494a 4948 4c4a 0040 222c 8444     @@G.JIHIJL@.,"D.
    7613:	2042 2020 2120 20fe a027 2060 0020 4822     B    !. '.`  ."H
    7623:	e200 e022 80ff 8681 80f8 ff80 8181 0087     ..".............
    7633:	22e2 2222 2022 4c44 6454 5fc4 4444 4444     ."""" DLTd._DDDD
    7643:	0044 8888 888e 8088 91ff 9191 9191 9191     D...............
    7653:	9f91 0080 22e2 2222 2022 0808 88f8 8a89     ....."""" ......
    7663:	888c 88ff 0088 8844 2200 00e0 5e40 4242     ......D.."..@^BB
    7673:	ff42 4242 5e42 0040 0000 220e e022 2020     B.BBB^@...."".  
    7683:	2020 27f8 2221 68a4 0020 4844 8480 c022       .'!".h .DH..".
    7693:	ff00 0808 0008 08ff 1008 0021 242e e240     ..........!..$@.
    76a3:	e022 9f80 91f1 9191 9191 9f91 0080 2222     ".............""
    76b3:	2222 20e2 ff08 2110 8080 80ff 8080 00ff     "". ...!........
    76c3:	4c0c 002c e022 8180 90fe 9394 9090 809f     .L,."...........
    76d3:	0081 222e 0044 e0e2 3f00 0000 ff00 0808     ..."D....?......
    76e3:	0808 0000 222e 222e 2022 1804 0060 fe00     ....."."" ..`...
    76f3:	0000 1863 0004 2202 4824 0000 84ff 8484     ..c...."$H......
    7703:	8484 8484 8084 00ff 22e2 2222 e022 ff00     .........""""...
    7713:	8484 8484 8484 ff84 0000 220e 2222 002e     ..........."""..
    7723:	213f 2121 ff21 2121 2121 003f 0000 000e     ?!!!!.!!!!?.....
    7733:	0000 ff00 8080 9f80 8080 ff80 0000 4422     .............."D
    7743:	8480 2042 80ff 8890 8685 80b9 ff80 0000     ..B ............
    7753:	48e0 0a00 002e 407f 4241 f04c 4448 4043     .H.....@ABL.HDC@
    7763:	007f 00e0 0000 e022 1010 1c13 ff00 0a04     ......".........
    7773:	2011 0000 0248 002e 4008 fe00 8080 9f80     . ..H....@......
    7783:	8080 fe80 0000 4422 e280 e022 320a 22e2     ......"D.."..2."
    7793:	3f22 2222 2222 0002 0000 000e 0000 320a     "?"""".........2
    77a3:	22e2 ff22 2222 2222 0002 0000 000e 0000     ."".""""........
    77b3:	4901 4949 7f49 8949 0989 0001 0200 002e     .IIII.I.........
    77c3:	0000 d424 5454 5454 5454 5057 0040 0000     ..$.TTTTTTWP@...
    77d3:	0000 c0c2 4901 4949 527f 9252 24a2 0004     .....III.RR..$..
    77e3:	0000 22e2 e022 4404 4444 7f44 4444 8484     ...""..DDDD.DD..
    77f3:	0004 2202 222e 0022 4444 847f 0484 ff04     ..."."".DD......
    7803:	0404 0000 002c 0e00 0000 4404 4444 7e45     ....,......DDDE~
    7813:	4445 8484 0004 4822 0800 2042 0808 08ff     ED...."H..B ....
    7823:	292a 4848 0888 0008 e200 8420 2042 3f08     *)HH...... .B .?
    7833:	00c0 4040 4040 4040 0000 040e 4444 4044     ..@@@@@@....DDD@
    7843:	3f08 00c0 0808 ff08 0808 0008 000e 0e00     .?..............
    7853:	0000 ff00 1212 1212 13f2 1010 0010 0068     ..............h.
    7863:	0e00 0000 0804 c03f 0000 08ff 0204 0001     ......?.........
    7873:	e000 e000 0000 0804 c03f 0000 08ff 1008     ........?.......
    7883:	0021 e000 e200 e022 3f08 20c0 ff20 2020     !....."..?.  .  
    7893:	003f 0003 020e 00c0 e0e2 484f 4848 7f48     ?.........OHHHH.
    78a3:	8888 8888 008f 00c0 040e c044 3f08 00c0     ..........D..?..
    78b3:	ff80 8080 08f8 000f 020e 00c0 e022 3f08     ............"..?
    78c3:	00c0 8cf0 8182 8c82 00f0 000e 8024 2084     ............$.. 
    78d3:	7f00 4444 4444 4447 8484 0004 0068 e000     ..DDDDGD....h...
    78e3:	0000 7f00 4040 7f40 4040 bf40 0080 0068     ....@@@.@@@...h.
    78f3:	000e 6008 ff00 9c90 9192 9190 9c92 0080     ...`............
    7903:	2268 8444 2042 0808 2f10 8040 2f40 0810     h"D.B .../@.@/..
    7913:	0008 c002 0e00 0000 3008 0cc0 0102 0c02     .........0......
    7923:	30c0 0008 4422 8480 2042 0000 f807 0007     .0.."D..B ......
    7933:	f807 0007 0000 002c 002c 200c 1010 212f     ......,.,.. ../!
    7943:	8241 2442 1424 0010 e200 2222 002e 1210     A.B$$.....""....
    7953:	2a2a 8a4a 2a4a 132a 0010 0000 2400 0080     **J.J**......$..
    7963:	00ff 1120 040a 611a 0000 00ff a2e2 2222     .. ....a......""
    7973:	e0a2 0804 c434 0407 c404 0837 0004 2402     ....4.....7....$
    7983:	2280 00e0 4848 4848 5968 4a49 8c8a 0000     ."..HHHHhYIJ....
    7993:	4422 22a2 2022 0804 c130 000e c000 0831     "D."" ..0.....1.
    79a3:	0004 6a02 4422 0086 1010 282f 8948 2848     ...j"D..../(H.H(
    79b3:	102f 0010 e200 aa22 e0a2 ff00 9292 9292     /.....".........
    79c3:	9292 9292 00ff 0068 0200 e022 7f00 4444     ......h..."...DD
    79d3:	4444 457e 8484 0004 242e 0840 c042 1804     DD~E.....$@.B...
    79e3:	43e0 407c 7c43 4040 007f 8004 0048 e022     .C|@C|@@....H.".
    79f3:	1804 40e0 5c43 4043 4c40 0070 4822 0800     ...@C\C@@Lp."H..
    7a03:	2042 ff00 9080 8689 80b9 00ff 0001 0868     B ............h.
    7a13:	c000 c0c2 ff02 8282 92a2 828a ff82 0002     ................
    7a23:	0068 0200 002e 1008 40e0 4c50 4141 4042     h........@PLAAB@
    7a33:	007f 8800 0288 e022 7e00 4242 42c2 4a52     ......"..~BB.BRJ
    7a43:	7a4a 0003 8888 8a88 e0a2 2010 46c1 4058     Jz......... .FX@
    7a53:	4341 4041 007f 8808 0288 e0a2 ff00 b880     ACA@............
    7a63:	a3a4 80bc 00ff 0001 0468 c080 c0c2 2020     ........h.....  
    7a73:	2621 e020 2620 2021 0020 8024 0000 2084     !& . &!  .$.... 
    7a83:	2020 2438 e122 2422 2038 0020 4422 8480       8$"."$8  ."D..
    7a93:	2042 2020 2f20 e828 2f28 2020 0020 4822     B    /(.(/   ."H
    7aa3:	0e00 e022 2020 3f20 e222 2222 2322 0020     ..".   ?"."""# .
    7ab3:	c002 2200 002e 2000 0018 fc03 0003 3008     ..."... .......0
    7ac3:	0000 4822 0800 2042 a020 3e61 20e0 2324     .."H..B  .a>. $#
    7ad3:	2020 003f c002 0000 e022 0800 4408 1121       ?....."....D!.
    7ae3:	0101 02ff 0002 8888 0000 00e0 003c 20ff     ............<.. 
    7af3:	8201 8884 a090 00c1 e000 22c2 e022 5f90     ..........."".._
    7b03:	0000 0808 ff08 0808 0008 402e 0e00 0000     ...........@....
    7b13:	5f90 0000 8080 8080 80ff 0080 402e 2202     ._...........@."
    7b23:	00e0 3f00 2424 64a4 2424 3c24 0000 0068     ...?$$.d$$$<..h.
    7b33:	0000 0000 5f90 0000 0000 f807 0007 0000     ....._..........
    7b43:	402e 002c 200c 80f0 9f80 9090 9f90 8080     .@,.. ..........
    7b53:	00f1 4822 0e00 e022 5f90 0000 80ff 8080     .."H..".._......
    7b63:	00ff 0000 402e 00e0 e0e2 0e01 1f00 6080     .....@.........`
    7b73:	0118 0c10 0003 0e80 2e22 8000 ff00 8888     ........".......
    7b83:	8888 898e f888 0000 0068 0800 2042 929e     ........h...B ..
    7b93:	9292 f392 0000 ff00 0000 2222 002c 000e     .........."",...
    7ba3:	8484 8784 84fc 8484 04ff 0004 2e22 2222     ............".""
    7bb3:	20e2 84ff 8484 fc84 8484 8484 00fc 22e2     . ............."
    7bc3:	2222 e022 8181 a49f 00c4 00ff 0000 0003     """.............
    7bd3:	e002 e200 e022 80ff e798 0000 fc03 0003     ...."...........
    7be3:	0000 80e8 002c 200c 2e21 2120 20fe 2020     ....,.. !. !.   
    7bf3:	043f 0003 4822 2200 00e0 ff00 0000 39c0     ?..."H.".......9
    7c03:	0000 fe01 0000 442c 2482 2084 0808 2b18     ......,D.$. ...+
    7c13:	08c8 1310 2050 0010 4822 0e00 e022 8808     ....P .."H.."...
    7c23:	a888 9fa8 a898 8ac9 000c 0200 002e 0000     ................
    7c33:	839c 8180 00fe 80ff 9880 00e7 8424 e820     ............$. .
    7c43:	0088 87f8 8780 00f8 ff40 4040 007f c222     ........@.@@..".
    7c53:	c002 e022 8c90 8c83 00f0 8cb0 8c83 00f0     ..".............
    7c63:	0c2c 2c20 200c 2202 2222 22ff 2222 42be     ,. ,. .""".""".B
    7c73:	0023 0000 00e0 e022 3408 0cc3 8031 8080     #....."..4..1...
    7c83:	8080 00ff 246a 00c2 e022 8484 8484 ff84     ....j$..".......
    7c93:	8484 8485 0084 2222 222e 202a 8484 84ff     ......""."* ....
    7ca3:	0084 7f00 0000 00ff e000 0800 e022 2404     ............"..$
    7cb3:	2724 ff24 2724 2424 0004 8044 000e 4084     $'$.$'$$..D....@
    7cc3:	2420 2724 ff24 2724 2424 0020 8044 000e      $$'$.$'$$ .D...
    7cd3:	4084 8908 8888 8f88 8888 8988 0008 0248     .@............H.
    7ce3:	002e 4008 2504 2424 ff24 2424 2524 0004     ...@.%$$$.$$$%..
    7cf3:	220e 222e 002e 2222 24ff 4020 4040 407f     .".".."".$ @@@.@
    7d03:	0040 e002 2200 00e0 7f40 0040 8080 84fc     @...."..@.@.....
    7d13:	8784 0080 804c 0200 002e 8f80 8080 ff80     ....L...........
    7d23:	8484 8484 0084 222e 222e 2022 2222 24ff     ......."."" "".$
    7d33:	0024 08ff 0408 0004 e022 e000 0000 2121     $.......".....!!
    7d43:	2127 f921 2121 2127 0021 c002 0000 00e0     '!!.!!'!!.......
    7d53:	ff22 0024 fe01 0000 01fe 0000 022e 00c0     ".$.............
    7d63:	200c 4040 407f 2040 ff20 2020 003f c844     . @@.@@  .  ?.D.
    7d73:	c082 e002 ff21 0022 ff80 8080 08f8 000f     ....!.".........
    7d83:	022e 00c0 e022 2202 2322 fe22 2222 2222     ...."..""#".""""
    7d93:	0002 6a02 2222 00c2 2020 22ff 2222 2222     ...j""..  ."""""
    7da3:	20ff 0020 e200 2222 00e0 ff10 1010 ff10     .  ...""........
    7db3:	1111 10ff 0010 220e 2222 2022 4040 e448     ......."""" @@H.
    7dc3:	4142 e442 4048 0040 4422 8480 2042 2320     BAB.H@@."D..B  #
    7dd3:	2222 fe22 2222 2322 0020 220e 2222 002e     """."""# .."""..
    7de3:	4840 e848 484f e848 4f48 0040 0000 88e0     @HH.OHH.HO@.....
    7df3:	0088 2020 3c23 ff20 3c20 2023 0020 0848     ..  #< . <#  .H.
    7e03:	888e 4008 1010 1e11 ff10 1e10 5091 0010     ...@.........P..
    7e13:	8024 000e 2084 9f80 9191 9191 809f ff80     $.... ..........
    7e23:	0080 0000 2200 002e 909f 9190 fc92 9192     ....."..........
    7e33:	9090 009f 80e0 0000 e0a2 2120 3a26 23e2     .......... !&:.#
    7e43:	2222 2222 0020 2282 222e 2022 ff00 a080     """" .."."" ....
    7e53:	bfa0 a4a4 a4a4 00a7 0268 02c0 e022 8281     ........h..."...
    7e63:	9c87 84e4 8484 8784 0080 e200 2222 002e     ............""..
    7e73:	2120 3a27 22e2 2222 2322 0020 e280 2222      !':.""""# ...""
    7e83:	002e 4844 685f 5fc8 4848 4f48 0040 c000     ..DH_h._HHHO@...
    7e93:	000e 004c 4544 4949 e351 4951 4549 0044     ..L.DEIIQ.QIIED.
    7ea3:	2402 0280 002e 3f00 2020 2020 21fe 6ca2     .$.....?    .!.l
    7eb3:	0020 0068 4822 6042 2020 f827 3f20 a121      .h."HB`  '. ?!.
    7ec3:	2262 0024 082c 228e e022 a282 829a ff82     b"$.,.."".......
    7ed3:	8282 b28a 0082 0000 000e 0000 a080 8398     ................
    7ee3:	f08c 838c b088 0080 8024 0000 2084 e45c     ........$.... \.
    7ef3:	445f ff00 0000 0000 0003 e888 220e e022     _D..........."".
    7f03:	2622 322a af62 2222 2222 0022 8024 002e     "&*2b.""""".$...
    7f13:	2084 0808 0808 ff08 494a 4849 0008 0000     . ......JIIH....
    7f23:	000e 8008 1010 ff11 0000 ff00 1008 0021     ..............!.
    7f33:	0e88 0e00 e022 0203 fe02 2222 2222 2023     ....".....""""# 
    7f43:	0000 22e2 2222 00e0 080f f808 8080 f880     ..."""..........
    7f53:	0808 000f 22e2 2222 e022 1f00 1212 f212     ....."""".......
    7f63:	5252 5252 005e 0068 0000 0000 0f30 ff00     RRRR^.h.....0...
    7f73:	0000 ff00 0700 0038 2e22 2e22 2022 00ff     ......8."."." ..
    7f83:	0000 84ff 8484 8484 00ff 00e0 22e2 e022     ............."".
    7f93:	007f 00ff 407f ff40 4040 007f 8006 0ec0     .....@@.@@......
    7fa3:	c004 003e ff00 8400 8484 8484 00ff c002     ..>.............
    7fb3:	2202 e022 ff00 9191 9191 9191 ff91 0000     ."".............
    7fc3:	2222 2222 2022 92ff 9292 9292 9292 00ff     """"" ..........
    7fd3:	0000 22e2 2222 00e0 ff00 9292 9292 9292     ..."""..........
    7fe3:	ff92 0000 222e 2222 202e 407f 7f40 0808     .....""". .@@...
    7ff3:	ff08 0808 0008 8888 0e00 0000 92fe 9292     ................
    8003:	ff92 9292 9292 00fe 0000 000e 0000 7f00     ................
    8013:	4848 ff48 4848 7f48 0000 8808 888e 0088     HHH.HHH.........
    8023:	80ff ff80 8000 8080 80ff 0080 4cc4 2200     .............L."
    8033:	00e0 487f 4848 48ff 4848 7f48 0000 8888     ...HHH.HHHH.....
    8043:	aaea 60aa f404 9597 9595 9595 f595 0004     ...`............
    8053:	0000 2202 002e 84ff 8484 ff84 8484 8484     ..."............
    8063:	00ff 22e2 222e e022 223f 2222 ff22 2222     ..."."".?"""".""
    8073:	2222 003f 22e2 222e e022 fc00 8485 8484     ""?.."."".......
    8083:	8484 fc85 0000 8024 0000 2084 407f 7f40     ......$.... .@@.
    8093:	0100 00fe 01fe 0000 4cc4 002c 200c 447c     .........L,.. |D
    80a3:	4545 ff44 4444 4444 007c 2422 4284 2022     EED.DDDD|."$.B" 
    80b3:	7e02 4242 fe43 4243 7e42 0002 4822 0800     .~BBC.CBB~.."H..
    80c3:	2042 fc00 8784 8484 8784 fc84 0000 4822     B ............"H
    80d3:	0e00 e022 407f 7f40 ff00 8080 00ff 0000     .."..@@.........
    80e3:	8888 0068 e0e2 407f 7f40 4100 4442 4048     ..h....@@..ABDH@
    80f3:	007f 4cc4 0200 e022 407f 7f40 0000 007f     ...L.."..@@.....
    8103:	ff00 0001 8888 c804 008e 80ff ff80 0000     ................
    8113:	80ff 8080 00ff 8888 e000 8088 407f 7f40     .............@@.
    8123:	8380 80fc 8080 00ff 8888 0068 e022 fa02     ..........h."...
    8133:	8f8a 8a8a 8a8a fa8a 0003 4822 0000 e022     .........."H..".
    8143:	407f 7f40 fc00 8083 8681 00f8 8888 4822     .@@..........."H
    8153:	2042 7f01 4949 ff49 4949 7f49 0001 000e     B ..III.III.....
    8163:	0200 002e ff00 8080 80ff 80ff ff80 0000     ................
    8173:	222e e2e2 202e 80ff ff80 0101 ff01 8080     ."... ..........
    8183:	00ff 22e2 2222 e022 80ff 8180 b886 8186     ..."""".........
    8193:	8080 00ff a2e2 2222 e0a2 81ff fc82 8080     ......""........
    81a3:	fe80 8282 00ff 22e2 2222 e022 e218 2222     .......""""...""
    81b3:	ff22 2222 2222 0020 2222 222e 2022 e414     "."""" .""."" ..
    81c3:	4444 7c47 4447 4444 0004 4822 0800 2042     DDG|GDDD.."H..B 
    81d3:	320a 22e2 fe23 2223 2222 0022 4822 0800     .2."#.#""""."H..
    81e3:	2042 3008 40c0 497f 4949 4949 0049 0000     B .0.@.IIIIII...
    81f3:	00e0 0000 0808 4a49 7f4c 8a8c 0889 0008     ......IJL.......
    8203:	0048 000e 4008 7f00 4444 4444 4744 8484     H....@..DDDDDG..
    8213:	0000 222e 2e22 2022 3f08 20c0 2324 2020     ...""." .?. $#  
    8223:	ff20 0020 000e 0200 002e 3f08 20c0 232c      . ........?. ,#
    8233:	2320 20fc 0020 020e 8424 2022 3f08 10c0      #.  ...$." .?..
    8243:	1010 11fe 9010 0050 000e 0800 c042 3f08     ......P.....B..?
    8253:	00c0 003f ff00 0000 003f 000e 2ee2 e022     ..?.....?.....".
    8263:	3f08 00c0 409f 8000 8080 00ff 000e 00e0     .?...@..........
    8273:	e022 3f08 00c0 0cf0 6083 0c03 00f0 000e     "..?.....`......
    8283:	4822 2042 223f 6222 22a2 2222 3f22 0000     "HB ?""b.""""?..
    8293:	22e2 2222 002e 3f08 02c0 8282 8f82 a292     ."""...?........
    82a3:	00c2 000e 2e02 0000 3f08 08c0 087f ff10     .........?......
    82b3:	2210 003e 000e 22e2 e022 7f00 4948 4949     .">....""...HIII
    82c3:	484f 8888 0008 0068 e800 0084 7f00 4040     OH....h.......@@
    82d3:	7f40 4040 bf40 0080 0268 482e 6048 5202     @.@@@...h..HH`.R
    82e3:	424a 7f42 4242 928a 0002 0200 002e 0000     JBB.BB..........
    82f3:	0300 f00c 030c f00c 030c 0000 22a2 22a2     ............."."
    8303:	a022 1212 3222 9253 3252 1322 0010 0000     "..."2S.R2".....
    8313:	04e0 004c ff00 9292 ff92 9292 ff92 0000     ..L.............
    8323:	0068 000e 002e ff00 9292 ff92 9292 ff92     h...............
    8333:	0000 0068 2a0e 60aa 487f 8848 0088 80ff     ..h..*.`.HH.....
    8343:	8080 00ff 8888 e080 8088 2310 40c0 5f40     ...........#.@@_
    8353:	4040 4340 0070 00c0 002e c000 7c04 4444     @@@Cp........|DD
    8363:	5f44 8444 8484 0004 8024 002e 2084 1804     D_D.....$.... ..
    8373:	48ef 4848 4f48 4040 007f 8800 8a88 e022     .HHHHO@@......".
    8383:	3008 4ec9 4578 7a46 4041 007f 0008 0248     .0.NxEFzA@....H.
    8393:	e022 ff04 8484 04ff 84ff ff84 0004 022c     ".............,.
    83a3:	e0e0 002e 7f01 8241 00bf ff00 8080 00ff     ......A.........
    83b3:	2402 0e80 8008 44a2 00bf ff00 8080 8484     .$.....D........
    83c3:	00fc c042 220e e022 1804 42e4 7847 ff00     ..B..""....BGx..
    83d3:	0408 0002 2c00 0e00 0000 1804 41e6 4c42     .....,.......ABL
    83e3:	0070 08ff 0004 8024 4284 20a2 1202 55e2     p.....$..B. ...U
    83f3:	4955 5454 0262 0002 4400 aa44 0000 0000     UITTb....DD.....
    8403:	417f c951 4541 017d 0001 4444 4044 e022     .AQ.AE}...DDD@".
    8413:	2525 d555 494b 5549 6555 0045 2402 0280     %%U.KIIUUeE..$..
    8423:	e022 e010 5253 5252 415e 7f41 0000 e200     "...SRRR^AA.....
    8433:	2222 e022 4fe0 6040 ff00 8080 00ff 0000     """..O@`........
    8443:	220e 000e e0e2 2220 2222 7fa2 2222 2222     .".... """..""""
    8453:	0020 2222 222e 2022 4f40 4848 df48 4848      .""."" @OHHH.HH
    8463:	4f48 0040 000c 040e 004c 4040 4758 c040     HO@.....L.@@XG@.
    8473:	4340 405c 0040 2a22 6a22 2022 6380 8c00     @C\@@."*"j" .c..
    8483:	84b4 9c84 07e4 0000 0868 8a88 002e 4840     ........h.....@H
    8493:	5448 c265 5844 4140 0040 6a22 4422 6048     HTe.DX@A@."j"DH`
    84a3:	409f 8100 b886 8186 8080 00ff 80e0 0000     .@..............
    84b3:	e0a2 2220 62a2 2222 6222 22a2 0020 2222     .. ".b"""b." .""
    84c3:	2222 2022 8901 0969 ff09 0909 c929 0001     """ ..i.....)...
    84d3:	0000 000e 0000 4990 0000 0808 ff08 0808     .......I........
    84e3:	0008 002c 0e00 0000 4990 ff00 8080 8080     ..,......I......
    84f3:	8080 0080 0e2c 2222 2022 4808 8828 0c4b     ....,.""" .H(.K.
    8503:	08fb 0808 0008 4822 0800 2042 4990 0000     ......"H..B .I..
    8513:	8cf0 8083 8c83 00f0 002c 4822 2042 4868     ........,."HB hH
    8523:	4848 cf48 4848 4848 0068 0200 002e 0000     HHH.HHHHh.......
    8533:	4078 4e41 c040 4e40 4041 0078 8024 0000     x@AN@.@NA@x.$...
    8543:	2084 4070 415f c141 4242 4442 0070 e200     . p@_AA.BBBDp...
    8553:	2222 e022 5f90 0000 2420 2022 20ff 0020     """.._.. $" .  .
    8563:	402e 2200 00e0 81f1 95bd 9595 9595 8197     .@."............
    8573:	00f1 0000 2202 00c0 5f90 0000 0000 08ff     ....."..._......
    8583:	0808 0008 422e e222 2022 4241 4ac7 0071     .....B"." AB.Jq.
    8593:	ff00 0000 0003 e000 0e00 e022 5f90 0000     ..........".._..
    85a3:	00ff 7f00 0000 00ff 422e 0cc0 e000 5f90     .........B....._
    85b3:	0000 0c70 6182 7806 0000 422e 8824 2042     ..p..a.x...B$.B 
    85c3:	0e01 1f00 6281 1804 0861 0007 4e22 2222     .....b..a..."N""
    85d3:	00e0 5f90 8800 bf88 8888 00ff 0000 402e     ..._...........@
    85e3:	000e c0c2 5f90 0000 888f 8888 f888 0000     ....._..........
    85f3:	402e 22e2 e022 0808 ae29 bfa0 0a04 2011     .@.""...)...... 
    8603:	0000 8224 002e 4008 9497 9494 9494 9794     ..$....@........
    8613:	8080 00ff 8888 8888 e022 ff00 9090 9197     ........".......
    8623:	9191 9293 00f2 0068 22e2 e022 ff00 9292     ......h.."".....
    8633:	9292 939e 9292 00f2 222e 0844 c042 494f     ........."D.B.OI
    8643:	ff49 4949 ff49 4949 0079 4802 0e00 e002     I.III.IIy..H....
    8653:	929e f392 0000 f00f 0100 0000 2c22 222e     ............",."
    8663:	6048 087b 0808 ff08 0808 0808 007b 22e2     H`{.........{.."
    8673:	222e e022 4f88 8000 8080 a09f 80c0 0000     .""..O..........
    8683:	222c a22a 2022 fe20 3e21 8080 80ff e898     ,"*."  .!>......
    8693:	000f 8606 000e e022 f926 2320 003c 8cb0     ......".&. #<...
    86a3:	8c83 00f0 8424 2c20 200c 8a8b 928a 82e2     ....$. ,. ......
    86b3:	8a82 8a8a 00fb 22e2 2222 e022 2120 20fe     ......."""". !. 
    86c3:	3f20 7f00 4040 007f 0268 0c2e c044 7f00      ?..@@..h...D...
    86d3:	4c48 494a 49f8 4c4a 0070 2268 8444 2042     HLJI.IJLp.h"D.B 
    86e3:	4f88 2000 fc23 2020 2020 003f 2a2c 2222     .O. #.    ?.,*""
    86f3:	a0aa 8985 89f1 8b89 898d 25e1 003d 0200     ...........%=...
    8703:	002e 0000 7010 1e11 14f5 9414 1754 0010     .....p......T...
    8713:	a224 442a 20a2 c504 95a5 8b89 9589 c5a5     $.*D. ..........
    8723:	0004 2222 222e 2022 4448 4d43 1070 1314     ..""."" HDCMp...
    8733:	ff10 0010 0048 02c0 002e 0b08 2a1a 0aca     ....H........*..
    8743:	1212 2352 0018 220e 2222 002e 8808 a989     ..R#..."""......
    8753:	9faa a8a8 0ac9 000c 0288 002e 0000 5533     ..............3U
    8763:	1299 0022 007f 0100 00ff 2422 c840 e080     .."......."$@...
    8773:	ff08 8888 aaaa 8899 ff88 0008 8808 aa88     ................
    8783:	80ae e31c 710e 2000 ff20 2020 003f 2c6a     .....q.  .  ?.j,
    8793:	6860 e022 2a11 09c4 0011 2a11 09c4 0011     `h"..*.....*....
    87a3:	a2aa aa22 20a2 4941 ff49 4949 ff41 9880     ..".. AII.IIA...
    87b3:	00e7 4802 0e00 0088 2420 2724 2424 fe20     ...H.... $$'$$ .
    87c3:	a021 0060 4c04 0088 c0c2 4f88 0000 8888     !.`..L.....O....
    87d3:	ff88 8888 0088 222c aa2a 2022 ff84 8484     ......,"*." ....
    87e3:	84ff 7f00 0000 00ff 0068 00e0 e022 2222     ........h...".""
    87f3:	222f 2022 23fc a720 0060 8006 2400 c0c2     /"" .# .`....$..
    8803:	4808 484f 0849 ff20 2020 003f 222e 68c2     .HOHI. .  ?..".h
    8813:	e002 2222 24ff 8080 ff80 8080 0080 e002     .."".$..........
    8823:	2e22 2022 4a0a 4a4b fa4a 4a4a 4a4f 000a     "." .JKJJ.JJOJ..
    8833:	0800 2200 00e0 4b40 4a4a fa4a 4a4a 4b4a     ..."..@KJJJ.JJJK
    8843:	0040 220e 2222 002e 2222 24ff ff00 8080     @..""".."".$....
    8853:	8080 00ff e002 220e e022 5212 5653 5af6     .......""..RSV.Z
    8863:	525a 5232 0092 8800 aa88 00ae 2222 24ff     ZR2R........"".$
    8873:	4222 7f44 8844 0088 e002 0e00 e022 4909     "BD.D......."..I
    8883:	4b49 fd4b 494d 2a59 004a 0e00 2222 e022     IKK.MIY*J...""".
    8893:	4040 407f ff00 8488 00ff 0000 8844 0068     @@.@........D.h.
    88a3:	e0e2 ff10 8010 81ff 9888 0ee9 0000 864c     ..............L.
    88b3:	a482 20a2 ff22 0224 fe21 2020 003f 0000     ... ".$.!.  ?...
    88c3:	062e 2084 e0e2 ff22 0024 407f c040 4040     ... ..".$..@@.@@
    88d3:	0040 062e 0080 0000 ff21 0022 8480 8484     @.......!.".....
    88e3:	8484 00ff 002e 2222 e022 ff10 0810 087f     ......""".......
    88f3:	ff10 2210 003e 804c 22e2 e022 ff10 1110     ...">.L.."".....
    8903:	8900 988e c8af 000f 804c 4802 e022 ff22     ........L..H".".
    8913:	0024 8f88 a898 88cf 000f 022e 2cc0 e022     $............,".
    8923:	8080 92ff 9292 9292 80ff 0080 c444 4444     ............D.DD
    8933:	80e8 4941 e949 4f49 e949 4949 0041 0200     ..AII.IOI.IIA...
    8943:	002e 0000 2222 22fe 2222 2222 22fe 0022     ....""."""""."".
    8953:	4822 0800 2042 4744 e444 5c44 e444 4444     "H..B DGD.D\D.DD
    8963:	0044 220e 2222 0022 8798 ff80 8080 ff80     D.."""".........
    8973:	8380 009c 2e22 2e22 2022 4840 e848 5948     ...."."." @HH.HY
    8983:	ea49 484c 0040 4a24 22a2 2022 2621 24ff     I.LH@.$J."" !&.$
    8993:	8022 e49c 8784 0080 e000 0200 002e 2621     ".............!&
    89a3:	24ff 0022 ff00 0408 0002 e000 0e00 0000     .$".............
    89b3:	2621 24ff ff00 8080 00ff 0001 e000 0068     !&.$..........h.
    89c3:	e0e2 ff23 0022 86f8 8081 8681 00f8 000e     ..#."...........
    89d3:	4822 2042 4f88 2000 2628 2020 20ff 0020     "HB .O. (&  .  .
    89e3:	222c aa22 20a2 91ff 9191 f191 9191 9f91     ,"".. ..........
    89f3:	0080 22e2 222e 2022 5f40 5252 ff52 5252     ..."."" @_RRR.RR
    8a03:	5e52 0040 a422 22c4 2022 bf80 a4a4 ffa4     R^@.".."" ......
    8a13:	a4a4 bfa4 0080 888e 8a88 80ae ff38 0422     ............8.".
    8a23:	fc23 2020 043f 0002 060e 2280 00e0 909f     #.  ?......"....
    8a33:	fe91 9090 ff90 9191 009f 22ea 2222 e022     ..........."""".
    8a43:	ff00 8480 8484 84bf 8485 0080 2268 e222     ............h"".
    8a53:	202a ff00 8888 8e89 8ef8 98a9 0088 2468     * ............h$
    8a63:	0080 2084 3f00 2220 f822 2126 60a6 0020     ... .? "".&!.` .
    8a73:	0068 4822 e042 4241 5847 42e2 4f42 4242     h."HB.ABGX.BBOBB
    8a83:	0042 e000 2e22 2022 9f80 9292 d2b2 9292     B..."." ........
    8a93:	9f92 0080 220e 2222 002e 4442 ea5f 4a4a     ....."""..BD_.JJ
    8aa3:	4a4a 4f4a 0040 e800 8a88 00ae 4742 6158     JJJO@.......BGXa
    8ab3:	49c9 4b49 494d 0041 000e 2e00 0000 909f     .IIKMIA.........
    8ac3:	9f90 d0b0 9f90 9090 009f 0ce0 0c00 e002     ................
    8ad3:	bf80 a0a0 efa0 a0a0 bfa0 0080 242a 4448     ............*$HD
    8ae3:	202a 80ff bf80 a4a4 a7a4 a4a4 0084 a2e2     * ..............
    8af3:	2a22 2022 4a48 6b52 ca4a 6a4a 4a52 0048     "*" HJRkJ.JjRJH.
    8b03:	0800 aaaa 00e0 2525 3129 21e1 3721 2529     ......%%)1.!!7)%
    8b13:	0025 8400 2e02 0000 4140 50fe 414c 417e     %.......@A.PLA~A
    8b23:	5844 0040 2268 0848 2042 4f88 2000 2c23     DX@.h"H.B .O. #,
    8b33:	2cf0 2023 0000 2a2c 2222 202a 8c82 91f2     .,# ..,*""* ....
    8b43:	9c93 7f80 0000 00ff 2c00 0800 e022 9c82     .........,.."...
    8b53:	91f2 809e ff80 8884 0090 4802 0e00 e022     ...........H..".
    8b63:	3f00 2222 2023 27f8 67a0 0020 0268 02e0     .?""# .'.g .h...
    8b73:	c0c2 4202 4a52 fe43 4a43 4252 0002 4822     ...BRJC.CJRB.."H
    8b83:	0800 2042 5740 5555 ff55 5555 5d55 0041     ..B @WUUU.UUU]A.
    8b93:	4422 8480 a04a 744c 5fc4 2045 20ff 003f     "D..J.Lt._E . ?.
    8ba3:	0000 8e88 8006 e0e2 e898 8c8b 88ff ff00     ................
    8bb3:	9880 00e7 0248 0ee0 0088 4501 4545 59e5     ....H......EEE.Y
    8bc3:	9549 99a5 0001 4822 e200 6022 1010 11fe     I....."H.."`....
    8bd3:	d016 0010 007f 00ff 4822 c042 e082 4f88     ........"HB....O
    8be3:	8000 fc83 9090 9090 009f 2a2c 2222 a0aa     ..........,*""..
    8bf3:	24fc 2824 0148 24fc 2424 004c 8888 888e     .$$(H..$$$L.....
    8c03:	8088 8988 a999 8fc9 8989 91a9 0088 2222     ..............""
    8c13:	222e 2022 7f00 ff00 0808 ff00 1008 0021     ."" ..........!.
    8c23:	2e2e 0e44 e022 1f00 1010 f710 5050 5f50     ..D.".......PPP_
    8c33:	0000 442a 8480 204a 007e 00ff a0bf ffa0     ..*D..J ~.......
    8c43:	a0a0 00bf 8006 0ec0 c004 2110 0141 f701     ...........!A...
    8c53:	0101 2141 0010 2222 222e 2022 6212 0202     ..A!..""."" .b..
    8c63:	f712 0202 6202 0012 4422 8480 2042 c929     .....b.."D..B ).
    8c73:	0909 e92b 1111 c121 0021 2422 0280 e022     ..+...!.!."$..".
    8c83:	4404 0734 fc04 0704 6414 0004 4822 0e00     .D4......d.."H..
    8c93:	e022 8909 0969 f909 0909 c929 000f 2222     "...i.....)...""
    8ca3:	2222 e022 f901 a9a9 afa9 a9a9 f9a9 0001     """.............
    8cb3:	0000 000e 0000 407f 047f 8484 ff84 8484     .......@........
    8cc3:	0084 8088 2e02 0000 407f 7f40 1000 ff10     .........@@.....
    8cd3:	1010 0000 4cc4 2e22 2022 407f 7f40 8080     .....L"." .@@...
    8ce3:	ff80 8488 0082 8888 0e00 0000 223e 2222     ............>"""
    8cf3:	ff22 2222 2322 003e 2222 242e 6048 223f     "."""#>."".$H`?"
    8d03:	ff22 2222 ff22 2222 003f 2ee2 2e22 e022     ".""".""?...".".
    8d13:	80ff 9291 9894 90bf 8090 00ff 22e2 a22a     ............."*.
    8d23:	e022 fa03 8a8a 8a8a 8a8a 03fa 0000 22e2     ".............."
    8d33:	2222 002e 80ff 9790 9494 9794 8090 00ff     ""..............
    8d43:	08e0 8888 e022 f203 9292 9f92 9292 f292     ...."...........
    8d53:	0003 00c0 000e c004 407f 7f40 c020 4948     .........@@. .HI
    8d63:	4c4a 0040 8888 a204 e022 80ff 9190 b896     JL@.....".......
    8d73:	9196 8090 00ff a2e2 2222 e0a2 407f 807f     ........""...@..
    8d83:	ff80 8182 e998 000e 8288 24c0 2084 407f     ...........$. .@
    8d93:	007f bc84 8484 fc84 0007 8088 8a88 e0a2     ................
    8da3:	407f 7f40 1800 ca29 300c 0000 8888 440c     .@@...)..0.....D
    8db3:	6048 003f 00ff 093f e919 2829 002f c8c4     H`?...?...)(/...
    8dc3:	0280 e022 007f 00ff 107f 49e8 4c4a 0040     .."........IJL@.
    8dd3:	c4c4 4ac0 6022 1272 161c f415 1414 1514     ...J"`r.........
    8de3:	0076 2222 442c 0080 203f 20ff 003f 84ff     v."",D..? . ?...
    8df3:	00ff 0001 e880 8086 e0e2 80ff 9f80 9191     ................
    8e03:	9f91 8080 00ff 22e2 2222 e022 2969 2929     ......."""".i)))
    8e13:	e929 2929 2929 006f 22c2 2222 6022 80ff     ).))))o..""""`..
    8e23:	bf80 8080 00ff 007f 00ff 48a2 a042 e0a2     ...........HB...
    8e33:	90ff 8c8b 80b3 00ff 007f 00ff 00e8 e082     ................
    8e43:	e0a2 80ff 8e91 80b1 8e91 80b1 00ff 80e0     ................
    8e53:	8080 e0a2 407f 4444 f348 4848 4044 007f     .....@DDH.HHD@..
    8e63:	44e0 8880 e042 e111 494f 4949 497f 4949     .D..B...OIII.III
    8e73:	0041 0000 e000 0000 2414 27e4 ff24 2724     A........$.'$.$'
    8e83:	2424 0004 8044 000e 4084 e414 2724 fc24     $$..D....@..$'$.
    8e93:	2724 2424 0004 4822 0e00 e022 5202 5252     $'$$.."H.."..RRR
    8ea3:	7e53 9292 9292 0002 6a02 2222 202c a89b     S~.......j"", ..
    8eb3:	00cf 4808 7f48 8888 0008 222c aa2a 20aa     ...HH.....,"*.. 
    8ec3:	4908 4949 7f49 4949 8989 0008 220e 2222     .IIII.II....."""
    8ed3:	002e e018 203f 1820 20e0 203f 0020 e000     ....?  .. ?  ...
    8ee3:	2200 00e0 4f88 0800 4848 7f48 8888 0008     ."...O..HHH.....
    8ef3:	222c 2a22 2022 1212 5b54 7050 9b90 1294     ,""*" ..T[Pp....
    8f03:	0012 6800 0e00 0000 4f88 2000 52d1 5452     ...h.....O. .RRT
    8f13:	5854 0041 222c aa2a a0aa 3f08 2ac0 2a2a     TXA.,"*....?.***
    8f23:	2aff 2a2a 002b 000e e000 c044 3f08 08c0     .***+.....D..?..
    8f33:	4e4a ca7a 4a4a 004b 000e 8400 0068 7f01     JNz.JJK.....h...
    8f43:	5151 5151 9151 919f 0001 4822 0000 0000     QQQQQ....."H....
    8f53:	7f01 5151 5151 9151 919f 0001 0000 0800     ..QQQQQ.........
    8f63:	2042 3f08 00c0 2320 ff2c 232c 0020 000e     B .?.. #,.,# ...
    8f73:	0e80 8000 3f08 00c0 8988 88fe 8f88 0080     .....?..........
    8f83:	020e 222e 202e 3f08 00c0 1010 f817 9017     ...". .?........
    8f93:	0050 000e 002c 200c 3f08 10c0 1310 13fc     P...,.. .?......
    8fa3:	9010 0050 020e 0ec0 e022 447f 8444 0084     ..P....."..DD...
    8fb3:	4404 4444 007f 22e2 2222 e022 3f08 10c0     .DDD...""""..?..
    8fc3:	1010 10ff 5691 0010 000e 4822 c042 9982     .....V...."HB...
    8fd3:	cfa8 4000 404f 887f 0088 8424 aa2a a0aa     ...@O@....$.*...
    8fe3:	3f08 00c0 213f ff21 2121 003f 000e 0e00     .?..?!!.!!?.....
    8ff3:	0000 3f08 12c0 22e2 ff22 2222 0022 000e     ...?...""."""...
    9003:	0e00 0000 3f08 04c0 4444 7f44 8484 0004     .....?..DDD.....
    9013:	000e 2e22 2022 3f08 14c0 44e4 445f 4444     .."." .?...D_DDD
    9023:	0047 000e 002c e022 3f08 00c0 2f10 8040     G...,."..?.../@.
    9033:	2f40 0010 000e 0068 000e 3f08 08c0 2117     @/....h....?...!
    9043:	41c1 1222 0008 000e 22e2 e022 3f08 08c0     .A"......""..?..
    9053:	c734 0404 37c4 0008 000e 0268 002e 1010     4....7....h.....
    9063:	7c20 1180 24fc 4424 004c 8888 888e 8088      |...$$DL.......
    9073:	3f08 00c0 807f ff00 8080 00ff 040e 0ec8     .?..............
    9083:	8008 3f08 00c0 7f40 c848 4848 004f 000e     ...?..@.H.HHO...
    9093:	0068 e022 3f08 00c0 1820 fc03 0803 0030     h."..?.. .....0.
    90a3:	000e 002c 200c 3f08 00c0 23a0 20fc 2026     ..,.. .?...#. & 
    90b3:	003f 000e 0068 e022 7f00 4949 c9c9 4949     ?...h."...II..II
    90c3:	7f49 0000 220e 2222 002e 3f08 10c0 9292     I...."""...?....
    90d3:	92ff fe92 0010 000e 8006 0000 3f00 2020     .............?  
    90e3:	603f 20bf 3f20 0000 222e e2e2 202e 407f     ?`.  ?..."... .@
    90f3:	cf40 48c8 4f48 4040 007f 08e0 8888 e022     @..HHO@@......".
    9103:	3f08 00c0 00ff 38c1 fe01 0000 020e 24c8     .?.....8.......$
    9113:	2084 7f00 4948 4949 4949 8989 0008 0e68     . ..HIIIII....h.
    9123:	2222 002e c721 0018 8808 8888 888f 0008     ""..!...........
    9133:	000e 2200 00e0 7f02 4242 4ad2 4242 7f42     ..."....BB.JBBB.
    9143:	0002 002c 0084 002e 1010 2929 8f49 2949     ..,.......))I.I)
    9153:	1029 0010 2222 222e 2022 1212 3222 9253     )...""."" .."2S.
    9163:	3252 1223 0012 6a02 4422 6048 8a02 528a     R2#....j"DH`...R
    9173:	2f52 5222 8a4a 0002 8244 002e 4084 1110     R/"RJ...D....@..
    9183:	2929 8949 2949 1129 0010 220e 2222 002e     ))I.I))...."""..
    9193:	2442 ff00 0000 00ff 2424 0042 4822 e200     B$......$$B."H..
    91a3:	e022 1310 2020 9f40 2242 1222 0010 222e     "...  @.B""...."
    91b3:	222e 2022 0808 1710 c020 1720 0810 0008     ."" .... . .....
    91c3:	8024 80a4 2084 4a48 aaaa 1312 aa12 4baa     $.... HJ.......K
    91d3:	0048 0000 000e 004c 1111 2729 9f41 2741     H.....L...)'A.A'
    91e3:	1129 0011 0000 000e 0000 2f10 8948 2f49     )........../H.I/
    91f3:	0010 007f 00ff 220e e022 e082 92ff ff92     ......."".......
    9203:	ff00 8080 00ff 0000 2ee0 000e e0e2 92ff     ................
    9213:	ff92 2000 ff20 2020 003f 2ee0 c002 e002     ...  .  ?.......
    9223:	0909 e111 8781 f181 0909 0019 4822 080e     ............"H..
    9233:	2042 4949 e151 4741 4141 0979 0019 4022     B IIQ.AGAAy..."@
    9243:	002e 2042 2f10 48c8 4a4b 4a4a 685b 0008     ..B ./.HKJJJ[h..
    9253:	0068 2ae2 e0a2 3008 4acf 4a4a 4f4a 4040     h..*...0.JJJJO@@
    9263:	007f 8800 8a88 e022 2bf8 2a2a 4a2a 4a4a     ......"..+***JJJ
    9273:	8b4a 0098 aa0e aaaa 00ae ff20 3f20 7f00     J......... . ?..
    9283:	4949 7f49 0000 0e68 2222 e022 df20 9090     III...h.""". ...
    9293:	9790 9090 1ff0 0000 4422 8480 2042 3008     ........"D..B .0
    92a3:	40cf 444a 404a 404f 007f 8800 8a88 e0a2     .@JDJ@O@........
    92b3:	1111 ca2b 4646 524a 0362 0000 e200 2222     ..+.FFJRb.....""
    92c3:	002e 1202 d525 4949 5549 0265 0002 e200     ....%.IIIUe.....
    92d3:	2222 00e0 2202 2422 c955 544a 0464 0007     ""...""$U.JTd...
    92e3:	2200 a422 0048 d524 5555 5f55 5555 1f75     ."".H.$.UUU_UUu.
    92f3:	0004 0200 002e 0000 3f10 52d2 5e52 5252     .........?.RR^RR
    9303:	7252 001e 220e 2222 e022 3340 00ff 1010     Rr..."""".@3....
    9313:	ff10 1010 0010 e0c0 2e02 0022 6380 3f00     .........."..c.?
    9323:	2121 21ff 2121 003f 0068 e000 0000 3340     !!.!!!?.h.....@3
    9333:	00ff 2a24 e031 2621 0038 e0c0 4822 2042     ..$*1.!&8..."HB 
    9343:	6380 2000 3c23 ff00 130c 0020 0c68 2e00     .c. #<.... .h...
    9353:	c000 7f00 4440 4444 44df 4444 0040 2268     ....@DDD.DDD@.h"
    9363:	e222 2022 7f00 4444 c544 455e 4444 0044     "." ..DDD.^EDDD.
    9373:	2468 0080 2084 4e41 4040 c07f 7f40 4840     h$... AN@@..@.@H
    9383:	0047 2c00 2e00 0000 7c40 c043 7c43 0040     G..,....@|C.C|@.
    9393:	007f 00ff 4822 2042 e082 4242 5467 c848     ...."HB ..BBgTH.
    93a3:	5448 4267 0042 8006 0000 00e0 4444 5448     HTgBB.......DDHT
    93b3:	c142 5442 4448 0044 4422 8480 2042 4140     B.BTHDD."D..B @A
    93c3:	4f42 c070 4678 4641 0058 2e82 4024 2084     BOp.xFAFX...$@. 
    93d3:	6380 f008 4140 415e 4840 0070 2268 0848     .c..@A^A@Hp.h"H.
    93e3:	2042 4f40 5868 c848 5848 4868 0048 0068     B @OhXH.HXhHH.h.
    93f3:	0000 0000 6380 2200 2322 23fe 3e22 0002     .....c.""#.#">..
    9403:	2268 0848 2042 4840 4a44 c271 5944 4c42     h"H.B @HDJq.DYBL
    9413:	0040 4822 8024 2084 4444 754c c444 4544     @."H$.. DDLuD.DE
    9423:	5068 0048 4822 0e00 e022 7a42 4b4a ca4e     hPH."H..".BzJKN.
    9433:	4a4a 4a4b 004a aa22 4a44 2022 409f 8808     JJKJJ.".DJ" .@..
    9443:	8a89 bf8c 8088 00ff 88e0 2e02 e002 409f     ...............@
    9453:	9f00 9090 9f90 8080 00ff 08e0 8888 e022     ..............".
    9463:	803f 1650 9292 9e92 8083 00ff 88e0 a28a     ?.P.............
    9473:	e0e0 2420 64a4 3f24 6424 24a4 0020 8888     .. $.d$?$d.$ ...
    9483:	888e 8088 2202 7fa2 2222 7f22 22a2 0002     ....."..""".."..
    9493:	4802 0e00 0000 2202 62a2 3e23 6223 22a2     .H.....".b#>#b."
    94a3:	0002 4822 0800 2042 8808 0e69 ff08 0e08     .."H..B ..i.....
    94b3:	c829 0008 0048 000e 4008 003c 00ff 803c     )...H....@<...<.
    94c3:	8080 80ff 0080 0c2c 2200 00e0 1804 00ff     ......,.."......
    94d3:	0c10 007f 0c10 00ff 8006 c000 e000 4990     ...............I
    94e3:	0000 8484 ff84 8484 0084 002c 0e00 0000     ..........,.....
    94f3:	4990 1000 9690 929a 9392 0010 002c 2200     .I..........,.."
    9503:	002e 4990 0000 8080 ff80 8080 0080 002c     ...I..........,.
    9513:	2e22 2022 4990 8400 ff84 8484 00ff 0000     "." .I..........
    9523:	002c 000e c0c2 4990 0800 087f ff10 2210     ,......I......."
    9533:	003e 002c 22e2 e022 4990 2000 3a26 21e2     >.,..""..I. &:.!
    9543:	3826 0020 022c 8024 2084 4990 0000 8a89     &8 .,.$.. .I....
    9553:	a99c 88ce 000f 002c 8224 e022 003e 00ff     ......,.$.".>...
    9563:	403c 407f 40c0 0040 e000 e200 2022 c404     <@.@.@@....." ..
    9573:	0435 34c4 0404 c435 0004 8024 0000 2084     5..4..5...$.... 
    9583:	4971 4949 cf49 4949 4949 0071 0200 002e     qIIII.IIIIq.....
    9593:	0000 4474 4445 c444 4444 445f 0074 0800     ..tDEDD.DD_Dt...
    95a3:	2200 00e0 4971 4949 ca4f 524a 4452 0074     ."..qIIIO.JRRDt.
    95b3:	0000 22e2 e022 4171 5151 d351 5555 4159     ..."".qAQQQ.UUYA
    95c3:	0071 0200 002e 0000 4968 4d4b c859 4948     q.......hIKMY.HI
    95d3:	484e 0068 2422 8448 2042 5f90 2200 ff22     NHh."$H.B ._."".
    95e3:	2222 ff22 0022 402e 002c 000e 5f90 0000     """."..@,...._..
    95f3:	5454 ff54 5454 0057 402e 0e00 c004 90e0     TTT.TTW..@......
    9603:	9a96 97f2 9292 9292 00e0 8888 888e 8088     ................
    9613:	5f90 0000 e898 8a89 88ff 0088 402e 0248     ._...........@H.
    9623:	00e0 5f90 0200 c222 7f42 4242 0002 402e     ..._..".B.BB...@
    9633:	0e00 0000 5f90 0400 3f08 04c0 08ff 0010     ....._...?......
    9643:	402e 000e e0e2 5f90 0000 2710 8241 2044     .@....._...'A.D 
    9653:	0010 402e 220e e022 5f90 0000 3008 0cc3     ...@."".._...0..
    9663:	31c0 0008 402e 222e 6048 4472 504f dc60     .1...@."H`rDOP`.
    9673:	4143 4442 0070 e200 0820 2042 5f90 0000     CABDp... .B ._..
    9683:	91ff b18e ff80 0000 422e 08c0 6008 5f90     .........B...`._
    9693:	0000 f516 8484 f584 0016 402e a422 20a2     ...........@".. 
    96a3:	5f90 0000 4140 c87e 4848 004f 402e 002c     ._..@A~.HHO..@,.
    96b3:	e022 5f90 2200 2322 23fe 3e22 0002 422e     ".._.""#.#">...B
    96c3:	0848 2042 aa0a aaaa aaaa aaaa faaf 000a     H.B ............
    96d3:	0800 0244 00e0 9292 92ff ff92 ff00 9880     ..D.............
    96e3:	00e7 8224 0e2e 0088 4f88 8880 88bf 8088     ..$......O......
    96f3:	00ff 0003 222c 22a2 202a ff00 9490 9294     ....,"."* ......
    9703:	9092 f09f 0000 0868 4284 200c fd01 a5a5     ......h..B. ....
    9713:	a5a5 a7a5 e5a5 000d 8400 2e00 0000 f901     ................
    9723:	a9af a9a9 a9a9 e9af 0019 c002 0000 00e0     ................
    9733:	929e 00f3 7f08 ff10 4220 007e e022 220e     ........ B~.".."
    9743:	6022 8484 e89f 1806 ff00 1800 0006 e002     "`..............
    9753:	2e02 0000 88ff 00f7 744c 5fc4 4444 0044     ........Lt._DDD.
    9763:	00e8 8e88 8088 80ff a890 00c7 84ff 8484     ................
    9773:	00ff 88e8 e200 e022 7f00 ff00 1804 21e6     ......"........!
    9783:	3826 0020 8e4c 4802 0042 88ff 00f7 2f10     &8 .L..HB....../
    9793:	8040 2f40 0010 00e8 0068 000e 80ff f38c     @.@/....h.......
    97a3:	ff00 9292 9292 00ff 48e4 0068 e022 80ff     .........Hh."...
    97b3:	f788 4040 c47f 4444 0047 88e0 8006 e022     ..@@..DDG.....".
    97c3:	fe20 3e21 8484 ff84 8484 0084 8606 0e00      .!>............
    97d3:	0000 f926 2320 003c 407f 4040 007f 8424     ..&. #<..@@@..$.
    97e3:	e220 e022 fe20 3e21 8400 8484 ff84 0000      .". .!>........
    97f3:	8606 2202 002e f827 3f20 8f20 8888 8888     ..."..'. ? .....
    9803:	00f8 c22a 220e e022 ff20 2320 003c 8484     ..*.."". . #<...
    9813:	a49f 00c4 8424 0220 00e0 fe20 3e21 7f08     ....$. ... .!>..
    9823:	ff10 2121 003f 8606 2a0e 6022 fe20 3e21     ..!!?....*"` .!>
    9833:	bd01 8585 fc85 0007 8606 0200 e022 437c     ............".|C
    9843:	4340 207c 21fe 60ae 0020 8424 6820 c042     @C| .!.` .$. hB.
    9853:	90a0 808b 00ff 90a0 808b 00ff 2248 48e0     ............H".H
    9863:	e022 4950 7946 fc00 9e81 fc80 0000 0a48     ".PIFy........H.
    9873:	8e24 e022 4658 7e41 e010 5e41 4041 0070     $.".XFA~..A^A@p.
    9883:	8424 8024 2084 9282 a28a 8392 82be 8282     $.$.. ..........
    9893:	00e2 4422 0880 2042 dd33 0011 4040 7f40     .."D..B 3...@@@.
    98a3:	4040 0040 4022 2e22 2022 84bc 07fd 2020     @@@."@"." ....  
    98b3:	f827 2027 0020 2e8a 002c 200c 5533 2299     '.'  ...,.. 3U."
    98c3:	4404 7f44 8484 0004 2422 0e00 0000 84bc     .DD....."$......
    98d3:	fd85 0007 00ff 00ff 00ff 2288 c0e2 e0e0     ..........."....
    98e3:	5533 2299 1000 43e4 4040 007f 2422 0200     3U."...C@@.."$..
    98f3:	e022 dd33 8011 81ff 9888 0ee9 0000 4622     ".3..........."F
    9903:	a482 20a2 5533 2299 8f00 8888 8888 00fc     ... 3U."........
    9913:	2422 220e e022 bc84 8484 00f7 207f 41ff     "$.""........ .A
    9923:	007f a288 e2e0 60a2 dd33 0411 8388 80fc     .......`3.......
    9933:	8080 00ff 4022 0068 e022 4f88 1c00 00e3     ...."@h."..O....
    9943:	e31c 1c00 00e3 222c 2aa2 a022 5545 5755     ......,".*".EUUW
    9953:	55fd 5555 5557 0045 8044 0240 00e0 a989     .UUUWUE.D.@.....
    9963:	a9ab f9a9 a9a9 a9ab 0089 c002 0000 00e0     ................
    9973:	5444 5554 fd57 5555 5455 0044 aa2a 4444     DTTUW.UUUTD.*.DD
    9983:	20a2 ff88 0088 c020 4241 704d 0000 824c     . .... .ABMp..L.
    9993:	0048 200c 8484 84ff 8400 84bc fc84 0007     H.. ............
    99a3:	e422 8808 e0a2 ff84 8484 84ff 2200 8844     "............"D.
    99b3:	0011 0068 02e0 0048 4f88 2400 ff24 2424     ..h...H..O.$$.$$
    99c3:	24ff 0024 222c 22a2 20a2 5f44 5f44 4044     .$$.,".". D_D_D@
    99d3:	41fe 5846 0041 0e68 4802 c042 9211 9a97     .AFXA.h..HB.....
    99e3:	f292 9a92 9297 0011 e200 2222 00e0 4f88     ..........""...O
    99f3:	1000 9c93 9090 909f 0013 2a2c 2222 a0aa     ..........,*""..
    9a03:	4f88 4400 5454 54ff 5554 0047 222c a222     .O.DTT.TTUG.,"".
    9a13:	2022 4949 49ff 4949 8804 80ff 00ff e000     " II.III........
    9a23:	062e e082 4f88 1000 9691 9098 9390 0010     .....O..........
    9a33:	2a2c aaaa a0a2 ff22 0024 2424 fe25 2425     ,*....".$.$$%.%$
    9a43:	0024 002e 8024 2084 2222 24ff 8808 fe89     $...$.. "".$....
    9a53:	8889 0008 e002 8024 60e2 ff10 0810 8988     ......$..`......
    9a63:	888e 8988 0008 824c 226a 202c ff22 0024     ......L.j", ".$.
    9a73:	4a40 f849 4e49 0040 002e 4822 2042 1010     @JI.IN@..."HB ..
    9a83:	10ff 8482 bf88 88c0 0086 c844 0e00 0000     ..........D.....
    9a93:	ff21 0022 80ff 9ba0 9b84 00a0 002e a2e2     !.".............
    9aa3:	a022 ff21 0022 2320 20ff 60a0 0021 022e     ".!.". #. .`!...
    9ab3:	e2c0 e022 ff22 0024 80ff 909f 9f91 0080     ..".".$.........
    9ac3:	062e e280 6022 ff22 0024 91ff 9191 9f91     ...."`".$.......
    9ad3:	0080 002e 22e2 2022 ff22 0024 1010 11fe     ....."" ".$.....
    9ae3:	5096 0010 002e 4822 c042 ff22 0024 08ff     .P...."HB.".$...
    9af3:	0008 08ff 0030 022e 40e4 e0e2 1010 10ff     ....0....@......
    9b03:	7f00 0000 08ff 0008 c844 222e 20e2 ff22     ........D..". ".
    9b13:	0024 001f ff00 0808 0008 002e 2ee2 2022     $............." 
    9b23:	4808 484b ff48 4949 4949 0008 8424 224e     .HKHH.IIII..$.N"
    9b33:	2022 ff22 0024 700c fe00 7000 000d 002e     " ".$..p...p....
    9b43:	2422 0048 af20 a8a8 eba8 a8a8 afa8 0020     "$H. ......... .
    9b53:	242a 4448 202a 9292 9392 ff90 9390 9190     *$HD* ..........
    9b63:	0092 8244 002e 4084 ff10 0010 80ff 9f80     ..D....@........
    9b73:	8080 00ff 804c 4822 2042 4040 407f 1844     ....L."HB @@.@D.
    9b83:	41e6 7846 0040 c844 80a4 2084 4b08 4f48     .AFx@.D.... .KHO
    9b93:	f848 4f48 4a48 0009 4882 2e00 8000 2222     H.HOHJ...H....""
    9ba3:	24ff 7f00 4848 884f 0088 e002 0068 00e0     .$..HHO.....h...
    9bb3:	2222 24ff 7f00 7f40 ff40 0080 e002 0e68     "".$..@.@.....h.
    9bc3:	6008 ff22 0024 80ff 9394 9390 009c 062e     .`".$...........
    9bd3:	2482 2084 ff21 1022 412f 8281 2442 0010     .$. !."./A..B$..
    9be3:	002e 22e2 e022 ff22 0824 c434 0407 37c4     ..."".".$.4....7
    9bf3:	0008 002e 022c 002e ff21 0822 2417 44c4     ....,...!."..$.D
    9c03:	1724 0008 002e 2ae2 60aa 5252 5452 5cf4     $......*.`RRRT.\
    9c13:	565d 5436 0080 8808 e8aa 8088 1010 10ff     ]V6T............
    9c23:	f00c 2e21 2421 0038 c844 8024 2084 ff10     ..!.!$8.D.$.. ..
    9c33:	0410 e018 2528 2020 003f 804c 8004 e022     ....(%  ?.L...".
    9c43:	ff22 0024 407f ff80 8080 00ff 042e 0ec8     ".$..@..........
    9c53:	8008 ff22 2024 20ff 233f 21fc 003f 062e     ..".$ . ?#.!?...
    9c63:	e280 6022 ff22 0024 f20a 8282 0bfa 0018     .."`".$.........
    9c73:	022e 442a 20a2 ff10 0010 7840 c146 7846     ..*D. ....@xF.Fx
    9c83:	0040 804c 4822 2042 ff10 4010 505f 50d0     @.L."HB ...@_P.P
    9c93:	405f 0041 a44c 0080 e0e2 ff22 4024 5f40     _@A.L.....".$@@_
    9ca3:	50d0 405f 0040 002e 0068 e0e2 ff10 4010     .P_@@...h......@
    9cb3:	7f40 44c4 4444 0047 824c 00c0 e022 ff21     @..DDDG.L...".!.
    9cc3:	0022 4408 0121 02ff 0002 082e 0088 00e0     "..D!...........
    9cd3:	ff22 0024 243f 64a4 2424 003c 062e 0080     ".$.?$.d$$<.....
    9ce3:	0000 5446 5555 f555 5555 5455 0046 c022     ..FTUUU.UUUTF.".
    9cf3:	0000 60e2 2420 2424 fd24 2424 2424 0020     ...` $$$$.$$$$ .
    9d03:	0e2c a222 6068 ff10 0210 4242 42ff 7e42     ,.".h`....BB.BB~
    9d13:	0002 a24c 0848 2042 ff21 0022 ff84 8484     ..L.H.B !.".....
    9d23:	ff84 0004 022e 222e 202e 5740 5555 f755     .......". @WUUU.
    9d33:	5555 5755 0040 002c 0000 0000 ff22 0024     UUUW@.,.....".$.
    9d43:	84ff fc84 8484 00fc 002e 22e2 e022 ff22     ..........."".".
    9d53:	0024 84ff 8485 9494 00f7 062e 2a82 204a     $............*J 
    9d63:	ff22 0024 017f 051a 01fe 0000 042e 48c2     ".$............H
    9d73:	6008 2424 24ff 0025 80ff 8080 00ff 242e     .`$$.$%........$
    9d83:	e086 8088 2222 24ff 8888 9fa8 caa8 000c     ...."".$........
    9d93:	e002 2e02 0000 4948 49fe 2048 ff20 2020     ......HI.IH  .  
    9da3:	003f 444c c0c2 e022 4941 49e9 5f49 4949     ?.LD..".AI.II_II
    9db3:	49e9 0041 4422 8480 2042 4941 e949 4f49     .IA."D..B AII.IO
    9dc3:	e949 4949 0041 2422 0e80 6022 4a48 ea4a     I.IIA."$.."`HJJ.
    9dd3:	5f4a ea4a 4a4a 0048 8888 8a8e e0aa 5242     J_J.JJH.......BR
    9de3:	f25e 5352 f252 525f 0052 4422 2280 00e0     ^.RSR._RR."D."..
    9df3:	4742 e048 4f40 e242 4442 0044 000e 220e     BGH.@OB.BDD...."
    9e03:	e022 4f40 e949 4949 e949 5151 0041 002c     ".@OI.III.QQA.,.
    9e13:	e000 0000 4242 e544 5048 e548 4244 0042     ....BBD.HPH.DBB.
    9e23:	2c00 0e00 0000 4444 ea4a 4253 ea52 444b     .,....DDJ.SBR.KD
    9e33:	0044 2402 2280 00e0 4444 ea4b 5252 ea52     D..$."..DDK.RRR.
    9e43:	444b 0044 e200 aa22 00a6 4848 e94f 5949     KDD..."...HHO.IY
    9e53:	e949 4949 0048 002c 0200 002e 97a0 fc84     I.IIH.,.........
    9e63:	8484 fc84 9484 00a4 0068 0000 0000 5750     ........h.....PW
    9e73:	f555 5555 f555 5755 0050 002c 0000 0000     U.UUU.UWP.,.....
    9e83:	4740 ef40 5040 e04e 4640 0041 0e48 2222     @G@.@PN.@FA.H.""
    9e93:	c0e0 4a4c ea4a 4a4f ea4a 4b4a 004c 2c02     ..LJJ.OJJ.JKL..,
    9ea3:	4200 002e 5e40 5352 f252 5352 5e52 0040     .B..@^RSR.RSR^@.
    9eb3:	4822 0e00 e022 4f40 e949 4f49 e949 4f49     "H..".@OI.IOI.IO
    9ec3:	0040 220e 2222 6022 4940 48e8 485f e848     @..""""`@I.H_HH.
    9ed3:	414f 0040 2c82 2200 80e0 2621 22ff 8484     OA@..,."..!&."..
    9ee3:	ff84 8484 0084 e000 0e00 0000 2c23 24ff     ............#,.$
    9ef3:	4022 7f40 4040 0000 e000 2e22 2022 2621     "@@.@@...."." !&
    9f03:	24ff 0022 1010 10ff 0010 e000 2200 20e2     .$"..........". 
    9f13:	2621 24ff 0022 2621 ff28 0020 e000 0248     !&.$".!&(. ...H.
    9f23:	002e 2621 24ff 0022 2324 ff20 0020 e000     ..!&.$".$# . ...
    9f33:	0200 002e 2621 24ff 2c02 2023 20ff 0020     ....!&.$.,# .  .
    9f43:	e000 4822 2042 4b48 6252 fa42 6242 4b52     .."HB HKRbB.BbRK
    9f53:	0048 220e 2222 002e 2621 24ff 0022 2222     H.."""..!&.$".""
    9f63:	4444 0088 e000 2200 8044 8281 829c ff81     DD....."D.......
    9f73:	8281 829c 0081 2222 222e 2022 ff23 8022     ......""."" #.".
    9f83:	81ff 9888 0ee9 0000 060e a482 20a2 5450     ............. PT
    9f93:	6454 f544 6645 5456 0050 8a88 88ae 8088     TdD.EfVTP.......
    9fa3:	2621 24ff 8900 a89e 88cf 000f e000 2c68     !&.$..........h,
    9fb3:	e022 2820 2025 ff20 2020 68a5 0020 8224     ". (%  .  .h .$.
    9fc3:	002e 2084 5f40 5555 ff55 5555 5fd5 0040     ... @_UUU.UU._@.
    9fd3:	000e 020e 002e 80ff be80 aaaa aabf beaa     ................
    9fe3:	0080 22e2 a222 2022 bf80 aaaa ffaa aaaa     ...""." ........
    9ff3:	beaa 0080 a422 224a 0022 5e40 5352 ff52     ....".J"".@^RSR.
    a003:	5352 5e52 0040 8044 000e 4084 a584 a5a5     RSR^@.D....@....
    a013:	a5fd a5a5 bda5 0084 220e 2222 002e bc80     ........."""....
    a023:	a4a5 a4a4 a4a4 bca5 0080 2a22 2a22 2022     .........."*"*" 
    a033:	909f fe91 9091 fe91 9091 009f 00e8 0008     ................
    a043:	e00a bf80 a4a0 a0f8 a4fc bfa4 0080 aa0e     ................
    a053:	aaaa 00ae 929f 9091 809f 929f 9091 009f     ................
    a063:	02e0 e0e0 e002 80ff b28a 9392 939e 9292     ................
    a073:	0082 26e2 22a2 20a6 ff00 afa8 a8a8 afa8     ...&.". ........
    a083:	a9a8 008a 2e68 4024 2084 ff00 9f90 9392     ....h.$@. ......
    a093:	2090 20ff 003f 6868 062e e082 8988 9191     . . ?.hh........
    a0a3:	bda1 91c1 8991 0088 220e 2222 002e 4f88     ........."""...O
    a0b3:	8400 9088 c0bf 8488 0084 222c a222 2022     ..........,""." 
    a0c3:	ff20 3f20 2110 805e 205f 0010 0e68 222a      . ?.!^._ ..h.*"
    a0d3:	60a2 9a84 89e9 008e 4444 847f 0084 4822     .`......DD...."H
    a0e3:	0000 00e0 5202 434a ff42 4342 524a 0002     .....RJCB.BCJR..
    a0f3:	8044 000e 4084 4f88 4900 6959 49df 4949     D....@.O.IYi.III
    a103:	0000 222c a222 2022 e45c 445f 4202 7f42     ..,""." \._D.BB.
    a113:	4242 0002 e888 0e00 0000 0404 057d ff04     BB..........}...
    a123:	2424 2524 0004 228a 242a 0048 101f f214     $$$%..."*$H.....
    a133:	5151 5452 1f50 0000 aae2 aa22 002e 7100     QQRTP....."....q
    a143:	f901 cb01 91a9 c9a9 0000 2222 222e 2022     ..........""."" 
    a153:	9f00 1555 f515 1515 9f55 0000 000e 0200     ..U.....U.......
    a163:	002e fa00 aaaa abaa aaaa faaa 0000 8888     ................
    a173:	888e 8088 92ff ff92 8000 8080 80ff 0080     ................
    a183:	4cc4 2200 00e0 f504 9595 9795 9595 f595     .L."............
    a193:	0004 2222 222e 2022 447f 7f44 2400 2023     ..""."" .DD..$# 
    a1a3:	20ff 0020 4cc4 2200 00e0 f501 9595 9795     .  ..L."........
    a1b3:	9595 f595 0001 2422 8480 2022 ff00 9292     ......"$.." ....
    a1c3:	20ff ff20 2020 003f 242e c0c2 e002 ff01     .  .  ?..$......
    a1d3:	a9a9 a9a9 a9a9 ffa9 0001 6a22 2a22 2042     .........."j"*B 
    a1e3:	fe00 9292 ff92 9292 fe92 0000 aa2a aaae     ............*...
    a1f3:	20aa fa02 8b8a 8f8a 8b8a fa8a 0002 8044     . ............D.
    a203:	000e 4084 407f 007f 525c f051 5251 005c     ...@.@..\RQ.QR\.
    a213:	8088 4822 2042 407f 7f40 1010 fc13 9013     .."HB .@@.......
    a223:	0050 8888 002c 200c 407f 007f a0ff 8c93     P...,.. .@......
    a233:	81b2 0080 8088 22ea 202a 88ff afa8 a8a8     ......."* ......
    a243:	a8af 88ab 00ff a2e2 aa22 e0a2 447f 7f44     ........"....DD.
    a253:	7f00 4040 40c0 0040 4cc4 0068 0000 80ff     ..@@.@@..Lh.....
    a263:	aaaa ffaa aaaa 80ab 00ff 22e2 2a2e e0a2     ...........".*..
    a273:	407f 007f e898 8a89 88ff 0088 8088 0248     .@............H.
    a283:	00e0 407f 7f40 5f00 ff41 4141 005f 8888     ...@@.._A.AA_...
    a293:	0e00 6022 f800 888b 8f88 8989 f989 0000     .."`............
    a2a3:	082c 224c 2022 427f 42ff 7f42 ff00 9880     ,.L"" .B.BB.....
    a2b3:	00e7 e2e2 0e2e 8044 fd01 a5a5 ffa5 a5a5     ......D.........
    a2c3:	fda5 0001 4422 0280 e022 80ff 9291 bf94     ...."D..".......
    a2d3:	9294 8091 00ff 22e2 222a e022 407f 007f     ......."*""..@..
    a2e3:	300c ff00 3000 000d c0c4 2422 0048 4a7b     .0...0...."$H.{J
    a2f3:	4a4a ff4a 4a4a 4a4a 007b 44c4 444e c044     JJJ.JJJJ{..DNDD.
    a303:	e80f a8a8 aba8 a8a8 e8a8 000f 44a2 8480     .............D..
    a313:	a042 407f 007f 417f f846 4146 007f 8088     B..@...AF.FA....
    a323:	00e0 e002 407f 7f40 7f00 4848 888f 0008     .....@@...HH....
    a333:	4cc4 002c 00e0 407f 7f40 2210 9252 2352     .L,....@@.."R.R#
    a343:	0010 8888 0200 00c0 407f 087f c734 0404     .........@..4...
    a353:	37c4 0008 8088 0268 002e 407f 087f 2417     .7....h....@...$
    a363:	44c4 1724 0008 8088 2ae2 60aa 407f 087f     .D$......*.`.@..
    a373:	43f0 417c 407e 007f 8088 4880 e022 407f     .C|A~@.....H"..@
    a383:	007f e018 5e41 4841 0070 8088 8024 2084     ....A^AHp...$.. 
    a393:	407f 7f40 7e00 c242 7a4a 0003 8888 8a08     .@@..~B.Jz......
    a3a3:	e0a2 407f 007f 5f40 d050 405f 0041 8288     ...@..@_P._@A...
    a3b3:	00c0 e0e2 407f 007f 84ff fc84 8484 00fc     .....@..........
    a3c3:	8088 22e2 e022 e90f a9a9 afa9 a9a9 e9a9     ...""...........
    a3d3:	000f 22e2 2222 6022 407f 827f 9f82 00e4     ...""""`.@......
    a3e3:	00ff 0001 c0c4 002e e0e2 80ff a2ae a2ff     ................
    a3f3:	aea2 8081 00ff 22e2 aaaa e0a2 94f4 949f     ......."........
    a403:	f794 7f00 0000 00ff 022c 082e e022 407f     ........,..."..@
    a413:	007f 370c 04c4 0837 0004 8288 0048 e0e2     ...7..7.....H...
    a423:	007f 00ff 007f 90ff 8689 0099 c4c4 eac0     ................
    a433:	a022 28ef 2c28 e92a 2c2a ef28 0000 44e0     "..((,*.*,(....D
    a443:	8480 002e 203f 20ff 083f 2aff 8849 0008     ....? . ?..*I...
    a453:	e880 e280 4008 80ff 809f 00ff 2320 ff2c     .....@...... #,.
    a463:	0020 8424 8220 002e cf29 4949 0800 ff08      .$. ...).II....
    a473:	0808 0008 220e 0e00 0000 cf29 4949 8000     ....."....).II..
    a483:	8080 80ff 0080 220e 2200 00e0 2179 22ff     ......."."..y!."
    a493:	1010 ff10 1010 0010 e000 2e22 2022 cb28     .........."." (.
    a4a3:	4a4a fa4a 4a4a 4b4a 0008 220e 2222 002e     JJJ.JJJK..."""..
    a4b3:	9191 92ff 1092 fe10 9611 0050 e002 4822     ..........P..."H
    a4c3:	c0c2 4949 897f 0089 ff00 0000 0003 22e2     ..II..........."
    a4d3:	0ee0 e022 5350 927f 0091 7f00 0000 00ff     ..".PS..........
    a4e3:	e080 0800 e022 1212 5954 7f51 9951 9294     ...."...TYQ.Q...
    a4f3:	0012 2c22 0e00 e022 a624 b3aa fea2 b2a2     ..",..".$.......
    a503:	a4ab 0024 4822 0000 e0aa 5350 927f 0091     ..$."H....PS....
    a513:	f00f 0300 0000 e080 222e e044 df22 5252     ........."D.".RR
    a523:	565b 5252 5f52 0042 440c 444c 006e 7f01     [VRRR_B..DLDn...
    a533:	5151 5151 9151 919f 0001 4822 0800 2042     QQQQQ....."H..B 
    a543:	3f08 00c0 2427 fc24 2424 0027 000e 22e2     .?..'$$.$$'...."
    a553:	e022 3f08 00c0 3e21 ff20 3e20 0021 000e     "..?..!> . >!...
    a563:	8e80 8080 3f08 00c0 919f 9f91 ff80 0080     .....?..........
    a573:	000e 0200 002e 3f08 20c0 3e23 23e2 2222     .......?. #>.#""
    a583:	0020 080e 2e22 2022 3f08 21c0 2f22 22f2      ..."." .?.!"/."
    a593:	2222 0023 000e 220e e022 3f08 00c0 91ff     ""#....""..?....
    a5a3:	9191 ff91 0000 020e 2222 2022 3f08 00c0     ........""" .?..
    a5b3:	243f ff24 2424 003f 000e 8e88 8088 3f08     ?$$.$$?........?
    a5c3:	00c0 84ff ff84 8484 00ff 000e 2ee2 e022     ..............".
    a5d3:	3f08 08c0 c030 497f 4949 0049 000e e000     .?..0..IIII.....
    a5e3:	0000 3f08 00c0 223f a262 2222 003f 000e     ...?..?"b.""?...
    a5f3:	22e2 e022 3f08 22c0 5222 9293 2252 0023     .""..?.""R..R"#.
    a603:	000e e000 c044 3f08 00c0 92ff ff92 9292     ....D..?........
    a613:	00ff 060e 0e80 e002 3f08 00c0 487f 7e48     .........?...HH~
    a623:	8849 0089 080e a2aa 80a4 3f08 10c0 46e1     I..........?...F
    a633:	5f40 4640 0071 000e 2e80 8000 3f08 00c0     @_@Fq........?..
    a643:	2222 7fa2 2222 0022 000e 2e22 2022 3f08     "".."""..."." .?
    a653:	00c0 5840 c047 5f40 0040 000e a222 20e2     ..@XG.@_@...".. 
    a663:	3f08 00c0 6989 ff09 2909 00c9 000e 0e00     .?...i...)......
    a673:	0000 7f01 d555 55d5 5555 7f55 0002 2422     ....U..UUUU..."$
    a683:	8a44 002e 547c 5454 d457 5454 5554 007d     D...|TTTW.TTTU}.
    a693:	8888 aaea 60a2 3f08 00c0 9497 9494 8097     .....`.?........
    a6a3:	00ff 000e 8888 e0a2 3f08 4ec0 ff4a 4a4a     .........?.NJ.JJ
    a6b3:	4aff 007b 000e 002c c0e4 407f 4949 d2d5     .J{...,....@II..
    a6c3:	5552 4059 007f 22e2 2222 e022 4f88 0000     RUY@...""""..O..
    a6d3:	487f 4848 888f 0008 2a2c 2222 20a2 df24     .HHH....,*"". $.
    a6e3:	1020 11ff 8092 80ff 00ff 000e 48a2 e022      ............H".
    a6f3:	c721 0018 e514 8484 16f5 0030 020e 8824     !.........0...$.
    a703:	2042 4f88 0100 90fe 929c 9291 009c 2a2c     B .O..........,*
    a713:	aa22 a02a 1212 3222 9f52 3252 1222 0012     ".*..."2R.R2"...
    a723:	8244 002e 4084 a928 aeab 4f5a aa4a abaa     D....@(...ZOJ...
    a733:	00a8 c080 040e 004c 0904 09f1 ff05 0905     ......L.........
    a743:	09f1 0004 2222 222e 2022 2222 8a47 2212     ....""."" ""G.."
    a753:	8a12 2247 0022 e200 2222 00e0 6444 4755     ..G""...""..DdUG
    a763:	546d 4544 a496 0004 2422 8448 2042 2920     mTDE...."$H.B  )
    a773:	4929 a969 4b69 212d 0020 220e 2222 002e     )Ii.iK-! .."""..
    a783:	2212 8a52 2342 ff12 9880 00e7 8400 0ea0     ."R.B#..........
    a793:	0088 3c22 5050 1190 5290 3e52 0020 22e2     .."<PP...RR> .."
    a7a3:	222e e022 ff00 9292 00ff 8484 84ff 0084     ."".............
    a7b3:	0268 00e0 00e0 ff00 9292 00ff 8080 80ff     h...............
    a7c3:	0080 0268 22e0 20e2 ff00 9292 00ff 0808     ..h..". ........
    a7d3:	08ff 0008 0268 22e0 20e2 92ff ff92 2400     ....h..". .....$
    a7e3:	2023 ff20 0020 2ee0 0200 002e 92ff ff92     #  . ...........
    a7f3:	8b00 a99c 88ce 000f 2ee0 4802 e022 1f00     ...........H"...
    a803:	d535 5f55 7555 1f15 0000 0000 220e 6022     5.U_Uu.......""`
    a813:	3008 4acf 4f4a 4a4a 404f 007f 8800 8a88     .0.JJOJJO@......
    a823:	e0a2 3e10 53d2 5e52 5352 1e72 0000 4822     ...>.SR^RSr..."H
    a833:	0e00 e022 44a2 00bf 8484 ff84 8484 0084     .."..D..........
    a843:	c042 2e22 2022 44a2 00bf 1010 fc13 9013     B."." .D........
    a853:	0050 c042 002c e0e2 44a2 00bf 80ff 9f80     P.B.,....D......
    a863:	8080 00ff c042 4822 2042 3f10 55d5 5f55     ....B."HB .?.UU_
    a873:	5555 1f75 0000 002c 000e 002e 84ff 04ff     UUu...,.........
    a883:	84ff 04ff 007f 00ff e0e0 e0e0 e082 2525     ..............%%
    a893:	a9c5 93a9 a991 c5a9 0005 4822 080e 2042     .........."H..B 
    a8a3:	ff04 94a4 ff84 2004 8844 0011 0068 042e     ....... D...h...
    a8b3:	0048 7f01 4a51 009f ff00 8488 00ff 2402     H...QJ.........$
    a8c3:	0e80 8008 2624 8849 a390 88d0 0609 0004     ....$&I.........
    a8d3:	4422 8480 2042 7e00 4242 4ad2 4242 7a4a     "D..B .~BB.JBBJz
    a8e3:	0003 2ee2 2e22 e002 df20 5252 415e 007f     ...."... .RR^A..
    a8f3:	007f 00ff 220e 6022 e0c2 4f88 7f01 8241     .....""`...O..A.
    a903:	ff00 8180 00ff 222c 2e22 2022 4fe0 6040     ......,""." .O@`
    a913:	ff00 af80 a3a0 00bc 220e 020e 20c2 4fe0     ........."... .O
    a923:	6040 e010 5e41 4041 0070 200e 8024 2084     @`..A^A@p.. $.. 
    a933:	4202 5656 4b6a 9252 8ca2 0003 8044 000e     .BVVjKR.....D...
    a943:	4084 aa20 aaaa aaaa aaaa aaaa 0020 aa0e     .@ ......... ...
    a953:	aaaa 00ae 6380 4000 5a46 cf62 4242 0042     .....c.@FZb.BBB.
    a963:	0068 0ee0 e000 3340 00ff 1010 fc13 9013     h.....@3........
    a973:	0050 e0c0 002c 200c 2f20 2929 ef29 2929     P...,..  /))).))
    a983:	2f29 0020 220e 222e 002e 6380 fc00 8784     )/ .."."...c....
    a993:	8484 8487 00fc 0268 0048 e0e2 7f00 4440     ......h.H.....@D
    a9a3:	4447 44df 4447 0040 2c68 e000 200c 7f00     GD.DGD@.h,... ..
    a9b3:	4b40 d94d 496f 4949 0040 4468 e444 4044     @KM.oIII@.hDD.D@
    a9c3:	7f00 4040 c25f 4042 425f 0044 0268 40e4     ..@@_.B@_BD.h..@
    a9d3:	e0e2 7f12 5040 5050 52d1 5854 0040 0068     ....@PPP.RTX@.h.
    a9e3:	e022 0000 4342 5565 c949 5549 4365 0042     "...BCeUI.IUeCB.
    a9f3:	220e 2222 002e 7f00 4640 cc41 4043 4e41     ."""....@FA.C@AN
    aa03:	0040 2268 26a2 20a2 4f88 4000 4678 41c1     @.h".&. .O.@xF.A
    aa13:	7846 0040 2a2c 22aa a0aa 6380 2200 5222     Fx@.,*."...c.""R
    aa23:	9293 2252 0023 0068 e000 c044 7f00 5f40     ..R"#.h...D...@_
    aa33:	d252 5272 5e52 0040 6868 0000 0000 7f00     R.rRR^@.hh......
    aa43:	5242 5a52 56d7 525a 0043 0068 e002 0008     BRRZ.VZRC.h.....
    aa53:	4949 5969 cf49 5949 4969 0049 0000 000e     IIiYI.IYiII.....
    aa63:	0000 4949 695b c949 4949 514b 0049 c002     ..II[iI.IIKQI...
    aa73:	0000 00e0 6380 1b08 ca2a 120a 6312 0018     .....c..*....c..
    aa83:	0e68 2222 002e 7940 4b48 ca48 4849 4948     h.""..@yHKH.IHHI
    aa93:	0040 0e48 2222 c060 409f a424 bfa4 a4a4     @.H.""`..@$.....
    aaa3:	80a4 00ff 88e0 8888 e0a2 489f 8a09 bf8c     ...........H....
    aab3:	8a8c 8889 00ff 00e8 000c e02a 409f 9f00     ..........*..@..
    aac3:	9292 9f92 8080 00ff 0ce0 4c44 e022 429f     ..........DL"..B
    aad3:	9f04 9080 8388 8284 00ff 08e0 8888 e022     ..............".
    aae3:	6989 ff09 2909 00c9 007f 00ff 0e00 0000     .i...)..........
    aaf3:	e0a2 3e00 63a2 2222 6322 3ea2 0000 4822     ...>.c"""c.>.."H
    ab03:	0e00 e022 0038 08ff 1000 ff10 1010 0000     ..".8...........
    ab13:	0e2c 2e02 2022 0018 00ff 0018 003f 00ff     ,..." ......?...
    ab23:	003f 0c2c e220 e0e2 0038 10ff 1820 23e4     ?.,. ...8... ..#
    ab33:	2020 003f 082c 0060 e022 2a2e 6baa 3f2a       ?.,.`."..*.k*?
    ab43:	6a2a 2aaa 003b 8044 000e c044 4990 8480     *j.*;.D...D..I..
    ab53:	8484 84ff 8484 0080 222c e222 2022 4990     ........,""." .I
    ab63:	2120 203e 20ff 213e 0020 482c e000 4008      !> . >! .,H...@
    ab73:	4990 4f00 4848 48ff 4f48 0040 0c2c e000     .I.OHH.HHO@.,...
    ab83:	004c 4990 2020 2621 26f8 2021 0020 242c     L..I  !&.&!  .,$
    ab93:	4280 2084 4990 0000 88ff bf88 8888 008f     .B. .I..........
    aba3:	062c c082 e022 4990 700c 0000 00fe 7100     ,..."..I.p.....q
    abb3:	000c 022c 4422 0080 4990 e410 5454 5454     ..,."D...I..TTTT
    abc3:	5057 0040 002c 0000 c0c2 4990 4404 4544     WP@.,......I.DDE
    abd3:	457e 8484 0004 222c 0848 2042 4990 0800     ~E....,"H.B .I..
    abe3:	2117 41c1 1222 0008 002c 22e2 e022 4990     .!.A"...,..""..I
    abf3:	ff00 1120 040a 211a 00ff 0e2c 22a2 e022     .. ....!..,.."".
    ac03:	4990 0000 4848 7848 8a89 008c 022c aa44     .I..HHHx....,.D.
    ac13:	2022 4990 1000 482f 8989 2f49 0010 002c     " .I../H..I/..,.
    ac23:	22e2 6022 4990 1600 84f5 8484 f584 0016     .""`.I..........
    ac33:	022c 442a 20a2 4990 0800 e211 212c 2023     ,.*D. .I....,!# 
    ac43:	003f 082c 8088 e0a2 4990 0000 527f 5252     ?.,......I...RRR
    ac53:	9292 009e 062c 0080 0000 4990 7000 4340     ....,......I.p@C
    ac63:	40fc 404f 0070 022c 0048 e0e2 4990 f000     .@O@p.,.H....I..
    ac73:	9f80 9f90 f080 0000 022c 0c48 e022 4990     ........,.H."..I
    ac83:	0700 1f00 6080 0400 0003 002c 220e 0026     .....`....,.."&.
    ac93:	001c 20ff 8410 bf88 88c0 0086 e000 0e00     ... ............
    aca3:	0000 001c 20ff 1010 fc13 9013 0050 e000     ..... ......P...
    acb3:	002c e0e2 003e 00ff 80f8 fc83 8083 00f8     ,...>...........
    acc3:	e000 8024 e0e2 003e 10ff 4242 42ff 7e42     ..$...>...BB.BB~
    acd3:	0002 e200 0848 2042 4272 5352 d252 5352     ....H.B rBRSR.RS
    ace3:	4252 0072 4822 0e00 e022 4474 4744 df44     RBr."H..".tDDGD.
    acf3:	4744 4444 0074 8044 000e 4084 4868 4b48     DGDDt.D....@hHHK
    ad03:	c85c 484b 4848 0068 8024 222e 6048 4571     \.KHHHh.$.."H`qE
    ad13:	4959 df49 4949 4149 0071 0000 000e 0000     YII.IIIAq.......
    ad23:	4a62 524a c267 4a7a 584b 0060 2422 0080     bJJRg.zJKX`."$..
    ad33:	e0e2 5468 6554 c44e 6444 5754 0068 4822     ..hTTeN.DdTWh."H
    ad43:	0200 002e 4860 4046 dc43 4043 4c42 0060     ....`HF@C.C@BL`.
    ad53:	4822 0800 2042 7f00 5454 d654 5455 7c54     "H..B ..TTT.UTT|
    ad63:	0001 222e 0844 204a 5f90 0000 404f 7f40     ..."D.J ._..O@@.
    ad73:	4444 0044 422e 2ee2 2022 7f00 4b48 ca4a     DDD..B.." ..HKJ.
    ad83:	4a4a 4a4a 007b 0e68 2222 e022 5f90 0000     JJJJ{.h.""".._..
    ad93:	8ab2 ff82 8a82 00b2 402e 0e00 0000 4241     .........@....AB
    ada3:	59c7 0062 ff00 0408 0003 e000 0e80 0000     .Yb.............
    adb3:	4241 4ac7 8075 ff80 8080 00ff e000 c002     AB.Ju...........
    adc3:	e022 4241 5ac7 0061 1010 10ff 0010 e000     ".AB.Za.........
    add3:	2200 20e2 9097 909f 0097 84ff 8484 00fc     .". ............
    ade3:	e0c0 e2c0 e022 5f90 0000 85fc 8484 8584     ....".._........
    adf3:	00fc 402e 0068 6008 5f90 1000 40e0 497f     ...@h..`._...@.I
    ae03:	4949 0049 402e e000 0000 5f90 0000 7f00     III..@....._....
    ae13:	4a48 894f 0088 422e 00c0 80e0 94c0 e494     HJO....B........
    ae23:	8784 94f4 b494 00c0 8888 888e 8088 5f90     ..............._
    ae33:	0000 2210 8944 2042 0010 402e a20a 0048     ..."D.B ...@..H.
    ae43:	5f90 0000 a8af a8a8 80af 00ff 402e 8888     ._...........@..
    ae53:	e0a2 5f90 0000 c584 93a9 c5a9 0004 402e     ..._...........@
    ae63:	4e44 4044 a920 adab a9f9 a9a9 f9a9 0020     DND@ ......... .
    ae73:	e280 2222 002e aa20 a8a9 afa8 a8a8 faa9     .."".. .........
    ae83:	0020 2422 8480 2022 ff00 9292 00fe ff00      ."$.." ........
    ae93:	8080 00ff 222e 0ec6 8008 ff00 9591 9595     ....."..........
    aea3:	9595 9595 00f1 2668 22a2 2024 ff00 afa0     ......h&."$ ....
    aeb3:	a2a2 afa0 a2a2 00e4 2e68 0e24 e022 ff00     ........h.$."...
    aec3:	9290 9093 9097 9193 00f2 2468 e082 2084     ..........h$... 
    aed3:	ff00 aaa0 afaa aaaa a2b2 00e0 0868 aa8e     ............h...
    aee3:	60aa 4f88 0100 90fe 9c90 f093 0000 2a2c     .`.O..........,*
    aef3:	2222 202a ff00 aba8 aaaa aaaa a8ab 00ef     ""* ............
    af03:	0868 8888 e0a2 484f 7848 1000 e13e 3e21     h.....OHHx..>.!>
    af13:	0020 4cc4 4822 2084 929e f392 0808 0cff      ..L"H. ........
    af23:	482b 0088 2e02 e200 200c 9e80 9292 9392     +H....... ......
    af33:	9292 f292 000e 0e2c a222 6068 88ff 00f7     ......,.".h`....
    af43:	9710 9f90 9790 0010 80e4 2ec0 c000 88ff     ................
    af53:	00f7 4445 ff44 4444 0045 80e4 2ee2 e022     ..EDD.DDE.....".
    af63:	80ff f788 9f00 9f91 ff80 0080 88e0 0200     ................
    af73:	002e 88ff 00f7 554c df64 4544 0044 80e8     ......LUd.DED...
    af83:	2e68 6008 80ff f788 ff00 9292 ff92 0000     h..`............
    af93:	88e0 222e 202e 88ff 08f7 c03f 2628 ff20     ...". ....?.(& .
    afa3:	0020 80e8 02e0 002e 84fe dca4 0502 e018      ...............
    afb3:	0418 0002 aa2a aaae 20aa fe20 3e21 4a40     ....*....  .!>@J
    afc3:	f849 4e49 0040 8606 4822 2042 fe20 3e21     I.IN@..."HB  .!>
    afd3:	7804 ff01 7b00 0004 8606 2402 0080 fe20     .x...{.....$.. .
    afe3:	3e21 4808 7e49 8889 0008 8606 8024 2084     !>.HI~......$.. 
    aff3:	f927 3c23 3c00 ff25 4444 0007 8624 0e48     '.#<.<%.DD..$.H.
    b003:	c004 fe20 3e21 4040 c47f 4444 0047 8606     .. .!>@@..DDG...
    b013:	8006 e022 fe20 3e21 ff00 a4a4 a4a4 00bc     ..". .!>........
    b023:	8424 002c 0000 7545 49d5 0375 5545 5549     $.,...Eu.Iu.EUIU
    b033:	0065 2422 0280 e022 a480 a9a4 92f0 8491     e."$..".........
    b043:	fc84 0000 0e2c 2222 6068 8a8a aa93 00ca     ....,.""h`......
    b053:	ff20 2020 003f e422 c042 e002 3925 a969      .  ?.".B...%9i.
    b063:	2f29 2929 4929 0021 4422 8480 2042 4658     )/)))I!."D..B XF
    b073:	7e41 7f00 d541 7d45 0001 8424 4424 e042     A~..A.E}..$.$DB.
    b083:	dd33 0011 4949 ff49 4949 0049 4022 0e00     3...III.III."@..
    b093:	c004 84bc 07fd ff00 8a91 8a84 0091 2e8a     ................
    b0a3:	220e 2022 dd33 0011 415f ff41 4141 005f     ."" 3..._AA.AA_.
    b0b3:	4022 0e00 6022 dd33 0c11 0070 00fe 7100     "@.."`3...p....q
    b0c3:	000c 4222 4422 0080 dd33 0011 91ff 848a     .."B"D..3.......
    b0d3:	809b 00ff 4022 00e0 e002 dd33 0011 417f     ...."@....3....A
    b0e3:	f846 4146 007f 4022 00e0 e002 bc84 8484     F.FA.."@........
    b0f3:	00f7 518a 5120 008a a288 24e0 2084 dd33     ...Q Q.....$. 3.
    b103:	0011 00ff 0000 00ff 0000 2c24 2c0c 200c     ..........$,.,. 
    b113:	5533 2299 3408 04c7 37c4 0008 2422 8224     3U.".4...7.."$$.
    b123:	002e dd33 0011 447f 7f44 8484 0084 4022     ..3....DD....."@
    b133:	20e2 c0c2 dd33 4011 4678 40c1 7847 0040     . ..3..@xF.@Gx@.
    b143:	4022 4822 2042 5533 2299 4100 c87e 4848     "@"HB 3U.".A~.HH
    b153:	004f 2422 002c e022 84bc fd85 0007 487f     O."$,."........H
    b163:	48c8 0078 2288 c0e2 0000 dd33 0011 ff84     .Hx.."....3.....
    b173:	8484 ff84 0004 4022 222e 202e 5544 5d56     ......"@.". DUV]
    b183:	d775 5d55 5556 0044 4480 444e 8040 ff88     u.U]VUD..DND@...
    b193:	0088 8808 888f 888f 0008 804c 8024 e0e2     ..........L.$...
    b1a3:	8888 88ff 8400 bf88 88c0 0086 c844 0e00     ............D...
    b1b3:	0000 a320 afa0 22a2 ff20 a020 0060 2e2e     .. ...." . .`...
    b1c3:	0044 c0c2 5744 5555 fd55 5555 5755 0044     D...DWUUU.UUUWD.
    b1d3:	440e 4444 004e 5744 5454 fd54 5454 5754     .DDDN.DWTTT.TTTW
    b1e3:	0044 242a 4448 202a ff88 8888 ff00 9f80     D.*$HD* ........
    b1f3:	ff80 0000 884c 8024 60e2 ff88 1088 d820     ....L.$..`.... .
    b203:	4146 7846 0040 824c 8024 2084 5444 5555     FAFx@.L.$.. DTUU
    b213:	fc56 5457 5454 0045 e28a 0844 204a 2424     V.WTTTE...D.J $$
    b223:	24ff fc00 9f80 fc80 0000 0e2c c002 e0e2     .$........,.....
    b233:	ff22 0024 4840 ff4b 484b 0040 002e 0e48     ".$.@HK.KH@...H.
    b243:	4008 4908 fb49 4949 0008 04ff 0002 2e22     .@.II.II......".
    b253:	4044 00e0 ff10 0010 919f 9f91 ff80 0080     D@..............
    b263:	804c 0200 002e ff10 0010 8884 ff90 8890     L...............
    b273:	0088 804c 2a22 2022 2222 24ff 8320 f48f     ..L."*" "".$ ...
    b283:	8484 0087 e002 e280 e022 ff21 0022 fe21     ........".!.".!.
    b293:	3f20 62a1 0024 022e 8ec0 e022 ff22 0024      ?.b$.....".".$.
    b2a3:	2320 2bfc ab28 002c 042e 2480 2084 ff10      #.+(.,....$. ..
    b2b3:	0010 9aa2 ff82 8a82 00b2 804c 0e00 0000     ..........L.....
    b2c3:	ff21 1022 f25e 5f52 4242 0002 022e 2ec0     !.".^.R_BB......
    b2d3:	6008 ff10 0010 91ff 9191 ff91 0000 824c     .`............L.
    b2e3:	2222 2022 ff22 0024 91ff 9191 ff91 0000     """ ".$.........
    b2f3:	022e 2222 2022 ff10 0010 487f ff48 4848     ..""" .....HH.HH
    b303:	007f 804c 8e88 8088 ff22 0024 91ff ff91     ..L.....".$.....
    b313:	9191 00ff 002e 0e00 0000 ff22 0024 223f     ..........".$.?"
    b323:	ff22 2222 003f 002e 2ee2 e022 ff22 0024     ".""?.....".".$.
    b333:	94f4 949f f494 0007 002e 002c e022 ff22     ..........,.".".
    b343:	2224 44df 5f44 4948 004f 002e 2ae2 6022     $".DD_HIO....*"`
    b353:	4909 4a4b fa4e 4a4a 2b1a 0048 ea00 aaaa     .IKJN.JJ.+H.....
    b363:	00ae 2222 24ff 3f00 6222 22a2 003f e002     .."".$.?"b."?...
    b373:	220e e022 ff80 0080 a0bf efa0 a0a0 00bf     ."".............
    b383:	002e 4822 2042 ff22 0024 487f 4a48 898f     .."HB ".$..HHJ..
    b393:	0088 062e 0080 80e0 ff11 2012 5222 9293     ........... "R..
    b3a3:	2252 0023 002e e000 c004 ff22 0024 92ff     R"#.......".$...
    b3b3:	ff92 9292 00ff 062e 0e80 e002 ff22 0024     ............".$.
    b3c3:	487f 7e48 8889 0009 082e a2aa 80a4 ff22     .HH~..........".
    b3d3:	1024 4fe0 4848 404f 007f 002e 8808 e0a2     $..OHHO@........
    b3e3:	fd55 0351 5555 c579 7d41 0004 4822 2200     U.Q.UUy.A}.."H."
    b3f3:	002e ff22 2024 52df 5e52 4141 007f 002e     ..".$ .RR^AA....
    b403:	22e2 6022 ff22 0024 2222 7fa2 2222 0022     .""`".$.""..""".
    b413:	002e 2e22 2022 ff10 0010 5840 c047 5e41     .."." ....@XG.A^
    b423:	0040 804c a222 20e2 ff22 0024 5840 c047     @.L.".. ".$.@XG.
    b433:	5e41 0040 002e a222 20e2 ff21 0022 a220     A^@...".. !.". .
    b443:	2262 a262 0020 002e 2222 2022 5212 565a     b"b. ...""" .RZV
    b453:	f352 5652 525a 0012 8808 888e 0088 ff22     R.RVZR........".
    b463:	0024 6989 ff09 2909 00c9 002e 0e00 0000     $..i...)........
    b473:	ff21 0022 4868 cf48 4848 0068 002e 2e02     !.".hHH.HHh.....
    b483:	0000 ff22 4e24 ff4a 4a4a 4aff 007b 002e     ..".$NJ.JJ.J{...
    b493:	002c c0e4 ff22 0024 087b ff08 0808 007b     ,...".$.{.....{.
    b4a3:	002e 2ee2 e022 ff22 0024 928b 82e2 8a8a     ....".".$.......
    b4b3:	00fb 002e 22e2 e022 ff10 0010 467f fc45     .....""......FE.
    b4c3:	4645 0070 864c 4882 2042 ff22 0024 4a7f     EFp.L..HB ".$..J
    b4d3:	f849 4e49 0060 062e 4882 0042 ff22 0024     I.IN`....HB.".$.
    b4e3:	3c63 29ea a928 002e 062e 2482 2084 ff22     c<.)(......$. ".
    b4f3:	0024 aaca 9792 aa92 00ca 002e 8e88 8088     $...............
    b503:	ff22 0b24 2a1a 0aca 320a 000b 0e2e 2222     ".$..*...2....""
    b513:	e022 ff22 0824 88ff aacc ff88 0008 002e     ".".$...........
    b523:	8a88 80ae ff22 0824 03f4 201c 20ff 003f     ....".$.... . ?.
    b533:	042e 86c4 e082 4141 55ff 5555 5555 41ff     ......AA.UUUUU.A
    b543:	0041 4022 0000 2042 ff80 9494 80ff 4658     A."@..B ......XF
    b553:	4641 0078 884c 24c0 2084 4a48 4bea 5f4a     AFx.L..$. HJ.KJ_
    b563:	4b4a 4aea 0048 4822 080e 2042 4948 e949     JK.JH."H..B HII.
    b573:	5f49 e949 4949 0048 220e 2222 002e 4b48     I_I.IIH.."""..HK
    b583:	4afa 4a4a 4a4a 4bfa 0048 aa0e aaaa 00ae     .JJJJJ.KH.......
    b593:	4b48 ea4a 4a4a e84b 4f48 0048 8808 8288     HKJ.JJK.HOH.....
    b5a3:	002e 4848 eb49 594d e949 4949 0048 e288     ..HHI.MYI.IIH...
    b5b3:	2222 002e 4f40 e848 5c48 e84b 5a49 0048     ""..@OH.H\K.IZH.
    b5c3:	0068 4822 c042 4840 e94a 4f48 e948 484a     h."HB.@HJ.HOH.JH
    b5d3:	0040 8888 888e 8088 4f40 e949 4f49 e949     @.......@OI.IOI.
    b5e3:	4f49 0040 220e 222e 002e 4f41 e949 5f49     IO@.."."..AOI.I_
    b5f3:	e949 4f49 0041 4422 8480 2042 5c42 ea4b     I.IOA."D..B B\K.
    b603:	4a4a eb4a 4848 004f c400 4c44 e022 5c42     JJJ.HHO...DL".B\
    b613:	e94a 404e e84f 4f49 0040 4802 e200 6022     J.N@O.IO@..H.."`
    b623:	5b44 ea4a 4a4a e84b 4f48 0040 aa0e a2aa     D[J.JJK.HO@.....
    b633:	60aa 5244 e048 484f e948 4f49 0040 002c     .`DRH.OHH.IO@.,.
    b643:	22e2 6022 5f40 5555 f555 5555 5f55 0040     .""`@_UUU.UUU_@.
    b653:	222e 2222 202e 4e40 e242 5f42 e242 4e42     .""". @NB.B_B.BN
    b663:	0040 22e2 222e e022 4848 e85f 4f48 ef40     @.."."".HH_.HO@.
    b673:	4848 004f 022c 0e2e e022 5141 fa52 5554     HHO.,...".AQR.TU
    b683:	fa54 5152 0041 aa02 aaae 00a2 4d44 e555     T.RQA.......DMU.
    b693:	4545 e545 5945 0044 220e 2222 002e 5202     EEE.EYD.."""...R
    b6a3:	f252 5a53 fa57 4252 0043 8844 e022 8004     R.SZW.RBC.D."...
    b6b3:	2621 24ff 8480 ff84 8484 0080 e000 2e22     !&.$..........".
    b6c3:	2022 2621 24ff 0022 2621 26ff 0021 e000     " !&.$".!&.&!...
    b6d3:	0000 00e0 2621 24ff 0022 494a 49f8 004e     ....!&.$".JI.IN.
    b6e3:	e000 2400 2084 2621 24ff 8122 8f82 84f0     ...$. !&.$".....
    b6f3:	0083 e000 0e00 0000 2621 24ff ff22 a080     ........!&.$"...
    b703:	8699 00b9 e000 2a0e a022 2621 24ff ff00     .......*".!&.$..
    b713:	9191 9191 009f e000 220e 2022 ff23 1022     ........."" #.".
    b723:	d820 4146 7846 0040 020e 8024 2084 2621      .FAFx@...$.. !&
    b733:	24ff 7f22 4848 884f 0088 e000 0068 00e0     .$".HHO.....h...
    b743:	2621 24ff ff00 9394 9390 009c e000 2468     !&.$..........h$
    b753:	2084 2621 24ff 0c22 07f0 f000 000c e000     . !&.$".........
    b763:	e202 202c ff23 0822 2417 44c4 1724 0008     .., #."..$.D$...
    b773:	000e 2ae2 60aa 2621 24ff 91ff b18e ff80     ...*.`!&.$......
    b783:	0000 e200 08c0 6008 2621 22ff 1209 21e4     .......`!&."...!
    b793:	2023 003f e000 8088 e0a2 2621 24ff 4040     # ?.......!&.$@@
    b7a3:	c84f 404f 0040 e000 8006 e0e2 2221 3824     O.O@@.......!"$8
    b7b3:	ff20 3820 2224 0021 0424 4220 2004 4f88      . 8$"!.$. B. .O
    b7c3:	2100 2026 20ff a126 0000 222c a222 2022     .!& . &...,""." 
    b7d3:	2621 24ff 3800 fe21 2023 0038 e000 c002     !&.$.8!.# 8.....
    b7e3:	e0e2 4404 4c57 fc44 4c47 4454 0005 e202     ...DWLD.GLTD....
    b7f3:	0a44 204a 5e40 5252 5e52 ff40 c340 004c     D.J @^RRR^@.@.L.
    b803:	4444 2488 c0c2 80bf a4bf bfa4 a4a4 80bf     DD.$............
    b813:	00bf aae2 aaaa e0a2 91ff f191 9f91 ff00     ................
    b823:	0408 0002 2ee2 0e22 0000 5d41 5555 ff55     ......"...A]UUU.
    b833:	5555 5f55 0041 4404 446e 004c 505e ff51     UUU_A..DnDL.^PQ.
    b843:	5251 005e 007f 00ff 0e48 4008 e082 5e42     QR^.....H..@..B^
    b853:	5452 f258 5459 5e52 0042 0000 2284 0000     RTX.YTR^B...."..
    b863:	909f 9294 ff90 9490 9092 009f 84e0 080e     ................
    b873:	e042 5315 5559 ff51 5151 5551 0019 4422     B..SYUQ.QQQU.."D
    b883:	8480 2042 5f44 4aea 4f4a ff00 9880 00e7     ..B D_.JJO......
    b893:	880e 0eae 0088 9f84 8fe8 ff80 8488 00ff     ................
    b8a3:	0000 aa08 0048 e0e2 ff84 8f88 7f00 4040     ....H.........@@
    b8b3:	40c0 0040 4c0c 0068 0000 ff84 8f88 8400     .@@..Lh.........
    b8c3:	84bc fc84 0007 4c0c 8808 e0a2 80ff a0bf     .......L........
    b8d3:	a0af 80bf 809f 00bf 24e0 2084 e0a2 4949     .........$. ..II
    b8e3:	6951 c949 6949 4951 0049 8024 002e 2084     QiI.IiQII.$.... 
    b8f3:	4848 5455 ce64 5464 4855 0048 c88a 8888     HHUTd.dTUHH.....
    b903:	80e8 4d4c 5555 c565 5465 4f54 004c 440c     ..LMUUe.eTTOL..D
    b913:	c244 002e 2724 2a2a e332 2a32 272a 0024     D...$'**2.2**'$.
    b923:	aa0e aaae 00ae 4544 5148 c568 5060 4548     ......DEHQh.`PHE
    b933:	0044 0e2c a222 e0e0 80ff 8eb1 00b1 e018     D.,."...........
    b943:	202f 0038 a2e2 2ca0 200c 80ff 8eb1 08b1     / 8....,. ......
    b953:	82f2 fa82 000b a2e2 2aa0 204a 4444 7048     .........*J DDHp
    b963:	7dc4 4a4a 52d2 4642 aa2a aaae a2aa 5551     .}JJ.RBF*.....QU
    b973:	5555 fd57 5555 7d55 0051 a422 4444 20a2     UUW.UUU}Q.".DD. 
    b983:	5545 d575 7e55 5555 5555 0045 4a2a 2a20     EUu.U~UUUUE.*J *
    b993:	204a 10ff 0010 a0bf efa0 a0a0 00bf 80c4     J ..............
    b9a3:	48a2 a042 e45c 445f 4a00 fa4e 4b4a 000a     .HB.\._D.JN.JK..
    b9b3:	e888 8400 00a0 e45c 445f 7f00 4848 884f     ......\._D..HHO.
    b9c3:	0088 e888 002c 00e0 744c 44cf 1748 c121     ....,...Lt.DH.!.
    b9d3:	1222 0008 e888 228e e022 e45c 445f c020     "......"".\._D .
    b9e3:	5c43 4043 0070 e888 8024 2084 b292 9fd2     C\C@p...$.. ....
    b9f3:	a292 0092 007f 00ff 2e22 4044 e0a2 4949     ........".D@..II
    ba03:	ff49 0000 ff00 4949 0049 4802 0e00 0000     I.....III..H....
    ba13:	0405 24ff 0025 8cb0 8c83 00f0 e082 2c80     ...$%..........,
    ba23:	200c 0007 08ff 5e48 f051 5e51 0050 e4e2     . ....H^Q.Q^P...
    ba33:	a4a2 20a2 2f20 2aea ea2a aaaa afaa 0020     ...  /.**..... .
    ba43:	880e 8a88 00ae 0b08 0878 fe09 4849 4b48     ........x...IHHK
    ba53:	0008 aa0e 2a22 00ae 7d04 fd05 2929 fd01     ...."*...}..))..
    ba63:	2525 004c 2222 2222 2022 1f00 1515 55f5     %%L.""""" .....U
    ba73:	5555 5f55 0040 4444 444e 4044 3f00 2820     UUU_@.DDNDD@.? (
    ba83:	aafe aaaa a6aa 00b0 2268 8ee8 6022 3f00     ........h".."`.?
    ba93:	2820 aaff aaaa 26aa 0020 0a68 8ac8 00ae      (.....& .h.....
    baa3:	03f8 fa02 ca02 92aa ab92 00c8 880e 8888     ................
    bab3:	00ae 07f0 f404 d504 a4a4 a7a4 00d0 2422     .............."$
    bac3:	4448 2022 901f 1750 f414 1714 9050 001f     HD" ..P.....P...
    bad3:	08e0 8888 e022 447f 7f44 8480 ff84 8484     ...."..DD.......
    bae3:	0080 4cc4 2e22 2022 ff00 aaaa aaaa aaaa     ...L"." ........
    baf3:	ffaa 0000 c8aa 8888 a0ca 407f 007f 4848     ...........@..HH
    bb03:	ff4b 484b 0048 8088 0e48 4008 fa02 abaa     K.KHH...H..@....
    bb13:	ffaa abaa faaa 0002 8044 000e 4084 fb00     ........D....@..
    bb23:	a9a9 a8a9 a8ab f9a8 0001 242e ea40 60a2     ...........$@..`
    bb33:	80ff a4a4 bfa4 a5a4 80a4 00ff aae2 aaaa     ................
    bb43:	e0a2 407f 007f ec40 4043 ec43 0040 c0c4     ...@..@.C@C.@...
    bb53:	4822 2042 407f 007f 2223 fe22 2222 0023     "HB .@..#"".""#.
    bb63:	8088 22e2 e022 fa03 aaaa aaaa aaaa faaa     ...""...........
    bb73:	0003 aaea aaaa e0aa 407f 7f40 9f80 9f91     .........@@.....
    bb83:	ff80 0080 4cc4 0200 002e 243f 24ff 893f     .....L....?$.$?.
    bb93:	b492 92d9 001f e888 4884 e022 447f 7f44     .........H"..DD.
    bba3:	0000 92ff 9292 00ff 4cc4 8006 e022 f900     .........L.."...
    bbb3:	aaae aaab abaa faaa 0003 2c80 c002 e002     ...........,....
    bbc3:	407f 207f fe21 3f20 62a1 0024 8288 8ec0     .@. !. ?.b$.....
    bbd3:	e022 fb00 aaaa a8aa aaab faaa 0003 242e     "..............$
    bbe3:	e040 c044 4f88 3f00 2424 24ff 3f24 0000     @.D..O.?$$.$$?..
    bbf3:	2a2c aaaa 20aa 7f01 4949 49ff 49ff 7f49     ,*... ..II.I.II.
    bc03:	0001 4022 0000 2042 80ff 9293 be92 9292     .."@..B ........
    bc13:	8093 00ff aae2 aaaa e0a2 4978 4948 fd48     ..........xIHIH.
    bc23:	4848 4948 0078 0e48 a222 c060 407f 007f     HHHIx.H.".`..@..
    bc33:	243f ff24 2424 003f c0c4 8e88 8088 90f0     ?$$.$$?.........
    bc43:	9497 04f4 97f4 9090 00f0 8024 0e00 e022     ..........$...".
    bc53:	407f 007f c030 497f 4949 0049 c0c4 e000     .@..0..IIII.....
    bc63:	0000 407f 087f c03f 1112 ff10 0010 8088     ...@..?.........
    bc73:	02e0 002e 407f 007f 4a52 7f42 8a82 0012     .....@..RJB.....
    bc83:	8088 2e02 0000 407f 7f40 7f00 d541 7d45     .......@@...A.E}
    bc93:	0001 8888 4404 e042 407f 007f ae29 bfa0     .....DB..@..)...
    bca3:	0a04 0011 8488 2e80 8000 407f 007f 90ff     ...........@....
    bcb3:	919f 9291 00f2 8688 e280 e022 407f 007f     .........."..@..
    bcc3:	087b ff08 0808 007b c0c4 2ee2 e022 407f     {.....{....."..@
    bcd3:	407f 40ff 007f 407f 007f c2c4 e0c2 c0c4     .@.@...@........
    bce3:	28ef 2a28 ea2a 2a2b 2a2a 00e8 88e0 e888     .((**.+***......
    bcf3:	8088 e908 2d2b e929 2929 e929 0008 e280     ....+-).))).....
    bd03:	2222 002e 203f 20ff 003f 0407 24fc 0027     ""..? . ?....$'.
    bd13:	e880 e280 e022 91f1 f296 9293 f292 9392     ...."...........
    bd23:	00f0 2202 442a 0080 203f 20ff 003f 85fc     ..."*D..? . ?...
    bd33:	8584 00fc e880 6880 6008 407f 40ff 007f     .......h.`.@.@..
    bd43:	447f 44c4 007f e4c0 e2c0 e022 001f 007f     .D.D......".....
    bd53:	241f 9444 458c 0026 8888 8480 00a0 15f5     .$D..E&.........
    bd63:	15f5 00f7 80ff 00ff 0000 22e2 e040 e0e2     ..........."@...
    bd73:	80ff 809f 00ff e618 7e41 0040 8424 2420     ........A~@.$. $
    bd83:	2084 80ff 80bf 08ff 2aff 8849 0008 84a4     . .......*I.....
    bd93:	e2a0 4008 80fe 809f 00fe 90ff 919e 009e     ...@............
    bda3:	0c2c e020 6068 80ff 809f 00ff 5150 9472     ,. .h`......PQr.
    bdb3:	0098 8424 c220 6022 80ff 809f 10ff 2ce3     ..$. ."`.......,
    bdc3:	2021 003f 8424 8828 e0a2 80ff 809f 00ff     ! ?.$.(.........
    bdd3:	901c 1050 001c 84a4 22a0 2022 92ff aa92     ..P......"" ....
    bde3:	a5e6 b2aa a2a2 00ff 2ae2 a262 e022 cf29     .........*b.".).
    bdf3:	0049 e010 2324 2020 003f 200e 0200 e022     I...$#  ?.. ..".
    be03:	cb28 ff4a 4b4a 0008 007f 00ff 0e0c 004c     (.J.JK........L.
    be13:	e0a2 44f4 447f 0044 407f 4040 007f 082c     ...D.DD..@@@..,.
    be23:	c460 c044 4f88 1000 2564 fc26 2526 0024     `.D..O..d%&.&%$.
    be33:	222c 22a2 a022 d625 5454 5654 5455 5057     ,"."".%.TTTVUTWP
    be43:	0040 c82a 00ae c0c2 5414 545f 7f54 5454     @.*......T_TT.TT
    be53:	949f 0014 aaaa aaae a0aa e111 ff22 2422     ............"."$
    be63:	ee18 3e21 0020 0e00 2400 2084 2171 22ff     ..!> ....$. q!."
    be73:	e118 213e 203e 003f e000 4848 e002 5212     ..>!> ?...HH...R
    be83:	5752 7f50 5750 9292 0014 8c44 0c0e c044     RWP.PW....D...D.
    be93:	4948 7f49 8989 0008 007f 00ff 220e 002e     HII.........."..
    bea3:	e0a2 4b48 897f 0088 8484 84ff 0084 e080     ..HK............
    beb3:	0080 00e0 5651 94ff 0092 407f 4040 007f     ....QV.....@@@..
    bec3:	e000 c400 c044 a424 b4a8 fda4 b4a6 a4a8     ....D.$.........
    bed3:	0024 8a88 88ae 8088 aa2a b3aa faa6 b2a2     $.......*.......
    bee3:	aaab 002a aa22 4a44 2022 5504 5555 7f55     ..*.".DJ" .UUUU.
    bef3:	5555 9f95 0004 4822 080e 2042 3f08 08c0     UU...."H..B .?..
    bf03:	4949 fb49 4949 0049 020e 2e22 2022 3f08     III.III..."." .?
    bf13:	0ac0 4a4b fa4a 4f4a 004a 000e 0208 002e     ..KJJ.JOJ.......
    bf23:	7e02 5252 5352 5e52 9292 0002 220e 222e     .~RRRSR^....."."
    bf33:	002e 3f08 22c0 fe22 2222 22fe 0022 020e     ...?.""."".""...
    bf43:	0048 2084 3f08 00c0 525e ff52 5252 005e     H.. .?..^RR.RR^.
    bf53:	000e 4a2a 2022 3f08 84c2 91fa 009e 007f     ..*J" .?........
    bf63:	00ff 020e 0048 e0a2 3f08 00c0 4a52 fe43     ....H....?..RJC.
    bf73:	4a43 0052 000e 8024 2084 3f08 21c0 2525     CJR...$.. .?.!%%
    bf83:	55e5 5549 0049 020e 002c 60c2 ff00 f312     .UIUI...,..`....
    bf93:	0010 98ff 9196 009e 0e2c 8006 6068 3f08     ........,...h`.?
    bfa3:	00c0 9989 8fe9 b189 0089 000e 2e22 2022     ............"." 
    bfb3:	3f08 00c0 101f f710 5050 005f 000e 48a2     .?......PP_....H
    bfc3:	a042 3f08 03c0 8afa 8a8a fa8a 0003 0e0e     B..?............
    bfd3:	2222 e022 ff10 ff00 9f80 00ff 007f 00ff     """.............
    bfe3:	020e 6048 e0a2 3e10 11c0 5555 557d 9494     ..H`...>..UU}U..
    bff3:	0010 4822 0e00 e022 3f08 00c0 5752 7058     .."H.."..?..RWXp
    c003:	9798 0092 000e 0068 000e 3f08 ffc0 bfa8     ......h....?....
    c013:	afa8 ff80 0000 2c0e 4c0e 600c 4740 8474     .......,.L.`@Gt.
    c023:	2524 54f4 9754 0030 240a 4448 002a 3f08     $%.TT.0..$HD*..?
    c033:	24c0 5525 4eca 6252 0003 000e a422 0048     .$%U.NRb....".H.
    c043:	3f08 01c0 4f42 c070 427f 004c 000e 442e     .?..BOp..BL....D
    c053:	200c 7c00 5655 7cd4 5754 7c54 0000 8888     . .|UV.|TWT|....
    c063:	8e88 8088 223f a262 003f e418 2023 003f     ....?"b.?...# ?.
    c073:	22e2 00e0 e022 4f88 3f00 6424 24a4 3f24     .".."..O.?$d.$$?
    c083:	0000 2a2c aaaa 20aa ff00 afa0 a8a8 a8fb     ..,*... ........
    c093:	afa8 00a0 2a68 8424 202a ff00 8f88 0088     ....h*$.* ......
    c0a3:	c130 415e 0070 0e68 2c00 200c cf22 8030     0.^Ap.h..,. ".0.
    c0b3:	808f ff80 8484 0084 020e 2ee2 2022 c721     ............" !.
    c0c3:	0018 2222 7fa2 2222 0022 000e 2e22 2022     .."".."""..."." 
    c0d3:	407f 407f 80ff 497f 4979 007b e0e0 4208     .@.@...IyI{....B
    c0e3:	2022 c721 0018 487f f94e 4948 006e 060e     " !....HN.HIn...
    c0f3:	2480 2084 cf22 0030 c584 93a9 c5a9 0004     .$. ".0.........
    c103:	000e 2e22 2022 9f80 9292 809e 487f 8f48     .."." .......HH.
    c113:	0088 002c 8006 000e 1212 2a2a 8f4a 2a4a     ..,.......**J.J*
    c123:	122a 0012 aa0e aaaa 00ae 1212 3222 9f52     *..........."2R.
    c133:	3252 1222 0012 622a 222e 206a 4a0a 2753     R2"...*b."j .JS'
    c143:	5222 008a 007f 00ff 0e48 0084 e082 1710     "R......H.......
    c153:	3424 9057 3457 1724 0010 440c e0c0 004c     $4W.W4$....D..L.
    c163:	1211 bdb7 5555 b555 17b5 0010 e400 4444     ....UUU.......DD
    c173:	004e 4b08 924a 2252 9252 4c4a 0008 882c     N..KJ.R"R.JL..,.
    c183:	e888 8088 5557 5595 2725 5525 5595 0057     ....WU.U%'%U.UW.
    c193:	22e2 2222 6022 6242 4352 5762 4342 a292     .""""`BbRCbWBC..
    c1a3:	0002 8044 000e 4084 4f40 5868 6b48 8858     ..D....@@OhXHkX.
    c1b3:	ef98 0080 4422 e280 e022 501c 5574 7455     ...."D.."..PtUUt
    c1c3:	5554 90b6 001c 2422 8448 2042 6949 6b49     TU...."$H.B IiIk
    c1d3:	a98d ff00 0000 0003 2e00 0e00 e022 1310     ............"...
    c1e3:	2a2a 9b4a 2e4a 132a 0010 242a 4448 202a     **J.J.*...*$HD* 
    c1f3:	1410 3424 9455 3554 1026 0010 0e2c 222a     ..$4U.T5&...,.*"
    c203:	6068 3720 525a 1392 5292 3b56 0020 242a     h` 7ZR...RV; .*$
    c213:	4448 202a 3222 5452 1198 5290 3e52 0020     HD* "2RT...RR> .
    c223:	0e2c a222 6068 92ff ff92 2404 ff24 2424     ,.".h`.....$$.$$
    c233:	0004 2ee0 8024 2084 92ff 00ff 484f df48     ....$.. ....OHH.
    c243:	4848 004f e0e0 0ec0 c004 92ff ff92 4a40     HHO...........@J
    c253:	f849 4e49 0040 2ee0 4822 2042 92ff 00ff     I.IN@..."HB ....
    c263:	223e ff22 2222 003e e0e0 0e00 0000 92ff     >""."">.........
    c273:	ff92 0808 0aff 4829 0088 2ee0 e200 4008     ......)H.......@
    c283:	ff00 9292 00ff ff00 9292 00ff 0268 68e0     ............h..h
    c293:	e002 92ff 00ff e614 8485 16f5 0030 e0e0     ............0...
    c2a3:	4822 2042 92ff ff92 4000 d05f 5f50 0040     "HB .....@_.P_@.
    c2b3:	2ee0 8006 200e 92ff ff92 4040 c47f 4444     ..... ....@@..DD
    c2c3:	0047 2ee0 8006 e022 92ff 00ff 84ff fc84     G.....".........
    c2d3:	8484 00fc e0e0 22e2 e022 92ff ff92 ff00     ......."".......
    c2e3:	8586 9594 00f6 2ee0 240e 2084 92ff 02ff     .........$. ....
    c2f3:	ff24 2020 043f 0002 e0e0 0268 00e0 ff00     $.  ?.....h.....
    c303:	9580 bd95 9595 8095 00ff 0c68 4444 e0c2     ..........h.DD..
    c313:	ff04 aaa6 e2aa aab2 a7aa 002c aa0e aaaa     ..........,.....
    c323:	00ae 7f20 a4a4 bfa4 a4a4 3fe4 0000 aa2a     .. ........?..*.
    c333:	aaaa 20aa de20 9292 9e93 b293 1ed2 0000     ...  ...........
    c343:	4822 e200 e0a2 44a2 00bf 407f 407f bf40     "H.....D...@.@@.
    c353:	0080 c242 e4c2 200c e410 7048 4944 4270     ..B.... ..HpDIpB
    c363:	7e42 0000 0e2c a222 6068 5289 c83f cf30     B~..,.".h`.R?.0.
    c373:	4f48 4040 007f c042 8808 e022 44a2 00bf     HO@@..B..."..D..
    c383:	4868 cf48 4848 0068 c042 2e02 0000 ca2b     hHH.HHh.B.....+.
    c393:	6a4a 5352 5252 4a6a 004b aaea aaae e0aa     JjRSRRjJK.......
    c3a3:	4fe0 0060 c82f 7f48 4848 004f 200e 0ec0     .O`./.H.HHO.. ..
    c3b3:	c004 4fe0 6040 df00 5252 415e 007f 220e     ...O@`..RR^A..."
    c3c3:	220e 6022 4fe0 6040 af00 a8a8 80af 00ff     .""`.O@`........
    c3d3:	220e 8808 e0a2 5248 7e43 c242 7e42 5243     ."....HRC~B.B~CR
    c3e3:	0048 2a22 4a44 2022 5e40 5252 d352 5252     H."*DJ" @^RRR.RR
    c3f3:	5e52 0040 8244 002e 4084 7440 5454 d554     R^@.D....@@tTTT.
    c403:	5655 7456 0040 8a88 88ae 8088 7f00 4948     UVVt@.........HI
    c413:	fb4e 4948 586a 0048 2c68 a20e e022 7f00     N.HIjXH.h,.."...
    c423:	4140 4141 49df 4949 0049 0e68 2222 e022     @AAA.IIII.h.""".
    c433:	4f42 4270 fa44 5451 5c53 0040 000e 4822     BOpBD.QTS\@..."H
    c443:	2042 7f00 4f40 c949 495f 4f49 0040 0e68     B ..@OI._IIO@.h.
    c453:	e222 002e 7f00 4140 5847 44c5 5f44 0044     ".....@AGX.DD_D.
    c463:	0068 08e0 002e 7f00 4040 545f 5ed4 5455     h.......@@_T.^UT
    c473:	0045 0a68 a2aa 002a 7f12 5f42 5252 52d2     E.h...*...B_RR.R
    c483:	5252 0042 0c68 4444 0044 7f09 4844 5474     RRB.h.DDD...DHtT
    c493:	55d5 5056 0040 0068 224a e022 7f12 4240     .UVP@.h.J""...@B
    c4a3:	5844 4bc8 404c 0040 0268 8024 2084 6744     DX.KL@@.h.$.. Dg
    c4b3:	c854 6754 0044 007f 00ff 0068 000e e082     T.TgD.....h.....
    c4c3:	4945 4971 c345 4945 4971 0045 0000 000e     EIqIE.EIqIE.....
    c4d3:	0000 5648 c041 5641 ff48 9880 00e7 4822     ..HVA.AVH....."H
    c4e3:	2e42 0088 7f00 5544 5555 55ff 5f55 0044     B.....DUUU.UU_D.
    c4f3:	2268 0848 2042 7f00 7848 ca4f 4a7a 5a6a     h"H.B ..HxO.zJjZ
    c503:	004b 2c68 a402 204a 6380 2400 a464 a4bf     K.h,..J .c.$d...
    c513:	3fe4 0004 0868 e8aa 0088 7f40 5555 d555     .?..h.....@.UUU.
    c523:	5555 5f55 0050 220e 2222 002e 7f40 48c8     UUU_P.."""..@..H
    c533:	084f 4ef0 7e41 0040 0268 24e0 2084 5548     O..NA~@.h..$. HU
    c543:	c462 5249 0044 007f 00ff 4882 0042 e082     b.IRD......HB...
    c553:	5750 5575 d555 5555 6755 0050 440e 4444     PWuUU.UUUgP..DDD
    c563:	004e e03f 0020 92ff 9f92 9292 00f2 42c4     N.?. ..........B
    c573:	40e2 e0c2 409f 951f 9f95 9595 809f 00ff     .@...@..........
    c583:	00e0 000e e022 409f 9417 bf94 9494 8097     ...."..@........
    c593:	00ff c0e0 040e e0e2 64a4 643f 00a4 80ff     .........d?d....
    c5a3:	9880 00e7 0c2c e820 0088 a909 2d6a e939     ....,. .....j-9.
    c5b3:	2d39 a96a 0009 2400 2e80 0000 2a09 ab6c     9-j....$.....*l.
    c5c3:	ea3a bb2a 2a6c 0009 0e00 aa22 0026 3e00     :.*.l*....".&..>
    c5d3:	6aaa 3f2a 6a2a 3eaa 0000 8888 888e 8088     .j*?*j.>........
    c5e3:	0078 20ff ff00 9191 9191 009f 0c2c 220e     x.. ........,.."
    c5f3:	2022 0038 00ff 300c ff00 3000 000d 0c2c     " 8....0...0..,.
    c603:	2402 0048 003c 20ff e018 5e41 4841 0070     .$H.<.. ..A^AHp.
    c613:	0c2c 8024 2084 ff18 4010 5f40 50d0 405f     ,.$.. ...@@_.P_@
    c623:	0040 e0e0 0068 e0e2 4504 0828 e710 0810     @...h....E(.....
    c633:	4528 0004 c422 8480 20c2 003c 00ff 803c     (E..".... <...<.
    c643:	929f 9292 009e 0c2c 8006 0000 4990 2420     ......,......I $
    c653:	2427 24ff 2427 0020 482c e000 4008 4990     '$.$'$ .,H...@.I
    c663:	5404 fe54 5455 55d4 0004 042c 8444 40a2     .TT.UT.U..,.D..@
    c673:	4990 2404 2724 24fc 2425 0004 022c 24e2     .I.$$'.$%$..,..$
    c683:	6048 4990 ff10 1010 11ff ff11 0010 0e2c     H`.I..........,.
    c693:	2222 2022 4990 0000 2223 fe22 2222 0023     """ .I..#"".""#.
    c6a3:	002c 22e2 e022 4990 9f80 9191 809f ff80     ,..""..I........
    c6b3:	0080 002c 0200 002e 4990 0700 fc04 2424     ..,......I....$$
    c6c3:	2724 0000 0e2c 2222 002e 4990 ff00 9292     $'..,.""...I....
    c6d3:	9292 ff92 0000 0e2c 2222 002e 4990 0000     ......,.""...I..
    c6e3:	92ff 9292 ff92 0000 022c 22e2 202e 4990     ........,..". .I
    c6f3:	0000 223f ff22 2222 003f 002c 2ee2 e022     ..?"".""?.,...".
    c703:	4990 0000 223f a262 2222 003f 002c 22e2     .I..?"b.""?.,.."
    c713:	e022 4990 0b00 82fa 8282 0bfa 0000 0e2c     "..I..........,.
    c723:	2222 002e 4990 2000 52df 5e52 4141 007f     ""...I. .RR^AA..
    c733:	002c 22e2 6022 4990 0000 2222 7fa2 2222     ,..""`.I..""..""
    c743:	0022 002c 2e22 2022 4990 4000 4758 40c0     ".,."." .I.@XG.@
    c753:	5c43 0040 022c 2e2a 2022 4990 0000 4868     C\@.,.*." .I..hH
    c763:	cf48 4848 0068 002c 2e02 0000 4990 0000     H.HHh.,......I..
    c773:	86e0 8aba 8a8a 00eb 082c 8888 e022 4990     ........,..."..I
    c783:	0100 000e 629f 700c 0007 022c e248 6022     .....b.p..,.H."`
    c793:	4390 2908 a0ae 00bf 091e 0010 4868 e002     .C.)........hH..
    c7a3:	4008 4990 ff00 9090 9197 9291 00f2 2c2c     .@.I..........,,
    c7b3:	e200 6022 4990 4e00 ff4a 4a4a 4aff 007b     .."`.I.NJ.JJ.J{.
    c7c3:	022c 0048 c0e4 4990 8b00 928a 82e2 8a8a     ,.H....I........
    c7d3:	00fb 0e2c 2222 e022 4990 7f00 4e48 f849     ..,."""..I..HNI.
    c7e3:	4e49 0060 2c2c 4822 2042 4990 3000 1ed1     IN`.,,"HB .I.0..
    c7f3:	14f5 5695 0010 242c 4882 2042 4990 8400     ...V..,$.HB .I..
    c803:	a9c5 9193 c5a9 0004 0468 e444 4044 4990     ........h.D.D@.I
    c813:	0b00 2a1a 12ca 2212 001b 0e2c 2222 e022     ...*..."..,.""".
    c823:	003c 20ff 8780 ff80 8484 0084 e000 2e2e     <.. ............
    c833:	2022 003e 20ff 2404 ff24 2424 0004 e000     " >.. .$$.$$....
    c843:	e202 602c 003e 20ff 4804 c87f 485f 004f     ..,`>.. .H.._HO.
    c853:	e000 c000 c0e4 003e 00ff 2272 ff22 2222     ......>...r"".""
    c863:	0022 e000 2e22 2022 003c 20ff 7f00 c444     "..."." <.. ..D.
    c873:	4444 007f e000 220e e022 003e 20ff 2200     DD....."".>.. ."
    c883:	9352 5292 0023 e000 0e00 c004 003e 00ff     R..R#.......>...
    c893:	c584 93a9 c5a9 0004 e000 2e22 2022 003e     .........."." >.
    c8a3:	20ff 1a0b ca2a 320a 000b e000 22e2 e022     . ..*..2....."".
    c8b3:	a131 2969 6ba9 2d2d a169 0031 0200 002e     1.i).k--i.1.....
    c8c3:	0000 4970 4949 cf49 4949 4949 0070 2222     ..pIIII.IIIIp.""
    c8d3:	222e 20a6 4272 5252 d352 5252 4252 0072     .". rBRRR.RRRBr.
    c8e3:	002c 002e 200c 4870 484b cf48 4949 4949     ,.... pHKHH.IIII
    c8f3:	0070 8424 222e 2022 4474 4444 c45f 5447     p.$.."" tDDD_.GT
    c903:	444d 0074 4822 ea24 6022 4078 4a4f ca4a     MDt."H$."`x@OJJ.
    c913:	4a4a 404f 0078 ea22 aaaa 20e2 4f70 4a4a     JJO@x.".... pOJJ
    c923:	ff4a 4a4a 4f4a 0070 8808 888e 0088 4f70     J.JJJOp.......pO
    c933:	4949 df49 4949 4f49 0070 220e 222e 002e     III.IIIOp.."."..
    c943:	4070 555f d555 5555 415d 0070 e200 2222     p@_UU.UU]Ap...""
    c953:	002e 4570 4945 c171 457d 4d45 0070 2222     ..pEEIq.}EEMp.""
    c963:	222e 2022 5768 4464 df44 4444 5764 0068     ."" hWdDD.DDdWh.
    c973:	000c 040e 004c 4671 4959 c04e 484f 4f49     ....L.qFYIN.OHIO
    c983:	0070 4822 e200 6022 4a72 5266 ff42 4242     p."H.."`rJfRB.BB
    c993:	4242 0072 4422 8480 2042 5f90 2000 2f28     BBr."D..B ._. (/
    c9a3:	2028 20ff 00a0 402e 402e c0c2 7f00 d454     ( . ...@.@....T.
    c9b3:	7c55 ff00 9880 00e7 242e 0e86 0088 5f90     U|.......$....._
    c9c3:	0000 4a0a fa4a 4f4a 000a 402e 4008 002e     ...JJ.JO...@.@..
    c9d3:	bf80 afa8 aaaa aaaa afaa 00b8 0e68 8888     ............h...
    c9e3:	00ae bf80 aaaa aaab aaae aaaa 00ba 2468     ..............h$
    c9f3:	8a88 00ae 5f90 0000 487f 404f 41fe 00c6     ....._...HO@.A..
    ca03:	402e a2e8 6048 cf42 0a74 4840 4044 40ff     .@..H`B.t.@HD@.@
    ca13:	0040 000e 2200 00e0 4241 4ac7 0075 2222     @...."..AB.Ju.""
    ca23:	8844 0001 e000 2402 0048 cf42 0074 80ff     D......$H.B.t...
    ca33:	be81 8081 00fe 000e 8024 e0e2 cf42 0074     ........$...B.t.
    ca43:	7f00 4848 888f 0008 000e 0068 00e0 5f90     ..HH......h...._
    ca53:	0000 4909 7f49 8989 0009 402e 22e2 e022     ...II......@."".
    ca63:	4f88 8200 ee99 5f00 ff40 0088 222c aaaa     .O....._@...,"..
    ca73:	a0aa 5f90 1000 d03f 5457 1775 0010 422e     ..._..?.WTu....B
    ca83:	e2c0 6022 5f90 1000 cf20 4a4a 404f 007f     .."`._.. .JJO@..
    ca93:	402e 8808 e0a2 5f90 0000 2920 62b5 2924     .@....._.. ).b$)
    caa3:	0022 402e 4422 2084 5f90 0000 a420 3f64     "..@"D. ._.. .d?
    cab3:	a464 0020 402e 8e88 8088 9982 cfa8 aa20     d. ..@........ .
    cac3:	ffaa faaa 0020 8424 aeaa a0aa 5510 5454     .... .$......UTT
    cad3:	ff55 5455 7d54 0010 0868 080e 000e aa08     U.UTT}..h.......
    cae3:	a8a9 afa9 a8a9 faa9 0008 4822 082e 2042     .........."H..B 
    caf3:	5610 5455 ff54 5454 7e55 0010 4822 082e     .VUTT.TTU~.."H..
    cb03:	2042 aa23 aaaa abaa aaaa faaa 0023 880e     B #.........#...
    cb13:	888e 00ae ff00 afa4 afa4 a4a4 afa4 00e4     ................
    cb23:	0e68 aa2a 20aa ff00 9594 9595 959f f595     h.*.. ..........
    cb33:	0004 0e68 2222 002e ff00 afa0 a9a9 a9bf     ..h.""..........
    cb43:	afa9 00e0 0e68 e222 002e 90ff 9497 949f     ....h.".........
    cb53:	00f7 007f 00ff c0e0 c0e4 e0a2 ff00 a0a0     ................
    cb63:	a2ae afa2 a2a2 00ee 0068 2ee2 e022 929e     ........h..."...
    cb73:	00f3 7f00 7f40 bf40 0080 e022 2e68 6048     ....@.@...".h.H`
    cb83:	929e 00f3 e710 7f40 4740 0040 e022 2e80     ......@.@G@."...
    cb93:	8000 929e 00f3 4840 c374 5844 0040 e022     ......@Ht.DX@.".
    cba3:	a226 6048 9110 809e bf8a c0aa 85de 0008     &.H`............
    cbb3:	0848 88ae 4008 9110 9591 bd95 d1d1 1191     H....@..........
    cbc3:	0010 222e e2e2 202e 88ff 00f7 803f a4bf     ..."... ....?...
    cbd3:	a4f8 00bf 80e8 a2e2 a02a 88ff 00f7 a2bf     ........*.......
    cbe3:	e2a2 a2a2 00bf 80e4 22e2 e022 9f82 00e4     ........."".....
    cbf3:	407f 407f bf40 0080 062e e482 6008 88ff     .@.@@........`..
    cc03:	00f7 4a52 fe43 4a43 0052 00e8 8024 2084     ..RJC.CJR...$.. 
    cc13:	88ff 00f7 e524 4b55 6555 0004 80e8 4e4c     ....$.UKUe....LN
    cc23:	4044 809f 8a91 dfa0 8a80 8091 009f 22e2     D@............."
    cc33:	22aa e022 88ff 00f7 92ff 9392 fe92 0000     ."".............
    cc43:	82e8 40e2 a084 fe20 3e21 4808 ff4b 484b     ...@.. .!>.HK.KH
    cc53:	0008 8606 0e48 4008 fe20 3e21 2320 fe22     ....H..@ .!> #".
    cc63:	2322 0020 8606 220e 002e fe20 3e21 ff00     "# ....".. .!>..
    cc73:	9292 ff92 0000 8606 222e 202e fe20 3e21     .........".  .!>
    cc83:	1000 22e2 22ff 0022 8606 2202 20e2 fe20     ...".""....".  .
    cc93:	3e21 ff00 9f90 9191 00f2 8406 0e2c e022     !>..........,.".
    cca3:	fe20 3e21 0b00 ca3a 320a 000b 8624 220e      .!>..:..2..$.."
    ccb3:	e022 fe20 3e21 ff08 aa88 ff88 0008 8606     ". .!>..........
    ccc3:	8a08 80ae 4f88 9700 c4a4 9484 f794 0000     .....O..........
    ccd3:	2a2c aaaa 20aa 6450 55c7 0575 5575 5755     ,*... Pd.Uu.uUUW
    cce3:	0071 4404 4644 e062 2909 6e2a 3aaa 2e2a     q..DDFb..)*n.:*.
    ccf3:	294a 0009 aa22 aaaa 20a2 2909 ac6a 2c3a     J)..".... .)j.:,
    cd03:	2c29 294a 0009 0a00 24aa 0080 4658 7e41     ),J).....$..XFA~
    cd13:	ff00 aea8 faa9 0004 8424 200e 2084 dd33     ........$.. . 3.
    cd23:	2411 2424 27fc 65a4 0024 4022 2422 40c2     .$$$.'.e$."@"$.@
    cd33:	dd33 4011 fd53 5f51 4141 0000 4022 2e24     3..@S.Q_AA.."@$.
    cd43:	2004 dd33 0011 92ff 9292 ff92 0000 4222     . 3..........."B
    cd53:	22e2 202e dd33 0011 243f ff24 2424 003f     .". 3...?$$.$$?.
    cd63:	4022 8e88 8088 dd33 0011 84ff ff84 8484     "@....3.........
    cd73:	00ff 4022 2ee2 e022 84bc 07fd 4a78 fe49     .."@..".....xJI.
    cd83:	4848 0078 2e8a 8424 2022 dd33 0011 85fc     HHx...$." 3.....
    cd93:	8484 8584 00fc 4022 0068 6008 bc84 8484     ......"@h..`....
    cda3:	10f7 48ef 404f 007f a288 88e0 e0a2 dd33     ...HO@........3.
    cdb3:	0211 d422 494a 6254 0002 4022 4208 0000     ..".JITb.."@.B..
    cdc3:	84bc 07fd 2200 a222 227f 2222 2e8a 2202     ....."".."""..."
    cdd3:	22e2 dd33 0011 5191 ff11 5111 0091 4022     ."3....Q...Q.."@
    cde3:	0e00 0000 84bc fc85 7007 c14f 4442 0070     .........pO.BDp.
    cdf3:	228a e2e0 e022 dd33 0011 928b 82e2 8a8a     ."..".3.........
    ce03:	00fb 4022 22e2 e022 dd33 0011 aaca 9792     .."@."".3.......
    ce13:	aa92 00ca 4022 8e88 8088 dd33 0011 8585     ...."@....3.....
    ce23:	9189 c5a9 0085 4022 2e22 2022 fb20 aaaa     ......"@"."  ...
    ce33:	fbaa aaaa fbaa 0020 242a 4448 202a 5555     ...... .*$HD* UU
    ce43:	55fd 0355 f18d 8581 00fd 4422 8480 2042     .UU......."D..B 
    ce53:	5457 5554 5454 4057 40ff 00c1 4822 2042     WTTUTTW@.@.."HB 
    ce63:	c0c2 5544 5c56 57f6 5c56 5556 0044 aa82     ..DUV\.WV\VUD...
    ce73:	cac8 80a2 aa89 baaf aaea baaa aaaf 0089     ................
    ce83:	ea00 aaaa 00e0 a9a9 f9ad aba9 fd01 a989     ................
    ce93:	00d9 00c0 000e c004 4444 447f 0344 fe02     ........DD.DD...
    cea3:	2222 0023 8844 228e e022 8888 88ff 24a8     ""#.D..""......$
    ceb3:	8945 2452 0021 c844 2482 0048 ff88 2288     E.R$!.D..$H...."
    cec3:	5222 9293 2252 0023 804c e000 c004 7f44     "R..R"#.L.....D.
    ced3:	ff44 ff84 ff84 ff84 0004 8e4c 0c0c 002e     D.........L.....
    cee3:	ff88 0088 4a7f f849 4e49 0060 864c 4882     .....JI.IN`.L..H
    cef3:	2042 5745 5555 ff55 5555 5755 0045 440c     B EWUUU.UUUWE..D
    cf03:	444c 406e f994 9191 93fd 7901 0501 00fc     LDn@.......y....
    cf13:	2222 222e 2022 ff22 0024 2724 2024 20ff     ""."" ".$.$'$ . 
    cf23:	00a1 002e 804c c0c2 ff22 0024 4949 fb49     ....L...".$.III.
    cf33:	4949 0049 002e 2e22 2022 4949 49fb 2049     III..."." II.II 
    cf43:	2324 ff20 0020 e422 0240 002e ff22 0024     $# . .".@...".$.
    cf53:	4b4a fa4a 4f4a 004a 002e 8200 002e ff22     JKJ.JOJ.......".
    cf63:	1124 5752 55fd 5535 0094 002e 0200 002e     $.RW.U5U........
    cf73:	ff22 0224 fe22 2222 22fe 0002 002e 002c     ".$.".""."....,.
    cf83:	00c2 7f40 0040 a0bf efa0 a0a0 00bf 804c     ..@.@.........L.
    cf93:	4822 2042 ff10 0210 6b52 ca4a 6a4a 0052     "HB ....RkJ.JjR.
    cfa3:	804c aa08 00ae ff21 0022 6b52 ca4a 6a4a     L.....!.".RkJ.Jj
    cfb3:	0052 002e aa08 00ae ff10 0010 243f 2027     R...........?$' 
    cfc3:	20ff 00a7 864c e082 600c ff22 0024 4a52     . ..L....`".$.RJ
    cfd3:	fe43 4a43 0052 002e 8024 2084 ff22 0124     C.CJR...$.. ".$.
    cfe3:	2525 39e5 5549 0049 022e 0e2c 6022 4047     %%.9IUI...,."`G@
    cff3:	447f 0244 e21c 3e21 0020 e4e2 2440 2084     .DD...!> ...@$. 
    d003:	4b48 ff48 4949 0049 10ff 000c 4e68 2222     HKH.III.....hN""
    d013:	20a2 2424 24ff c100 0836 c136 0000 cae4     . $$.$..6.6.....
    d023:	222a 202a ff22 0024 2949 f909 2909 004f     *"* ".$.I)...)O.
    d033:	002e 2222 e022 ff22 0024 527e ff52 5352     ..""".".$.~RR.RS
    d043:	007e 002e 2422 40c2 5710 54f4 1714 fe10     ~..."$.@.W.T....
    d053:	9611 0050 8808 2488 c0c2 ff22 9b24 cfa8     ..P....$..".$...
    d063:	4808 887f 0008 022e 2ac2 20aa ff22 0024     .H.......*. ".$.
    d073:	4949 7f49 8949 0089 002e 22e2 e022 ff10     III.I......""...
    d083:	0010 487f 4949 8949 0089 824c e2c0 e022     ...HIII...L...".
    d093:	ff21 0022 2910 8f49 2949 0010 002e 2e22     !."..)I.I)....".
    d0a3:	2022 ff22 1024 5223 9292 2352 0010 002e     " ".$.#R..R#....
    d0b3:	22e2 002e ff22 0024 2442 00ff 24ff 0042     ."..".$.B$...$B.
    d0c3:	002e 8024 e0e2 ff10 0010 f905 8781 f981     ..$.............
    d0d3:	0009 804c 0e24 2004 ff22 0024 4afb 4a4a     ..L.$.. ".$..JJJ
    d0e3:	8a4a 009b 002e aaea e0aa fe4a 0250 f954     J.........J.P.T.
    d0f3:	4044 027e 000e aa2a aaae 20aa ff21 0022     D@~...*.... !.".
    d103:	a464 bfa4 e4a4 003f 002e ae88 8088 ff21     d.....?.......!.
    d113:	0022 6744 c854 6754 0044 002e 0068 000e     ".DgT.TgD...h...
    d123:	ff21 0022 7fa2 2222 7f22 00a2 002e 0068     !."...""".....h.
    d133:	000e ff21 7422 6454 45c4 5565 0076 042e     ..!."tTd.EeUv...
    d143:	a2aa 6022 ff44 0048 4f69 c859 4e49 0068     .."`D.H.iOY.INh.
    d153:	022e 4824 2044 ff21 0022 9ad6 97b2 9292     ..$HD !.".......
    d163:	00d2 002e 8e88 8088 ff21 9224 92ff 00ff     ........!.$.....
    d173:	88ff 00f7 062e e082 80e4 ff22 1124 9c92     ..........".$...
    d183:	bf80 94c8 0023 022e aa22 2022 fd41 5555     ....#..."." A.UU
    d193:	5755 5555 fd55 0041 4844 080e 4044 ff41     UWUUU.A.DH..D@A.
    d1a3:	5555 5555 5555 ff55 0041 260e 2ea2 2066     UUUUUUU.A..&..f 
    d1b3:	ef49 4949 e94f 7f40 ff00 0000 002c 0ae0     I.IIO.@.....,...
    d1c3:	002e 5f50 f555 5555 f555 5f55 0050 444c     ..P_U.UUU.U_P.LD
    d1d3:	4444 804e 4740 55f5 5f55 5555 47f5 0040     DDN.@G.UU_UU.G@.
    d1e3:	4444 444e 4044 4848 ea49 594d eb49 4949     DDNDD@HHI.MYI.II
    d1f3:	0049 e088 2e22 2022 5251 f857 7551 f555     I..."." QRW.QuU.
    d203:	5157 0051 e000 2e00 0000 5211 fd55 5555     WQQ........RU.UU
    d213:	ff55 5254 0011 e200 2222 002e 4b4c 4aea     U.TR....""..LK.J
    d223:	ef4a 4a4a 4bea 004c 000c 000e 004c 5f40     J.JJ.KL.....L.@_
    d233:	f555 5555 f555 5f55 0040 4444 444e 4044     U.UUU.U_@.DDNDD@
    d243:	4f40 e949 5f49 e949 4f49 0040 2222 222e     @OI.I_I.IO@.""."
    d253:	20c2 4f40 ea48 4f4a ea4a 4f48 0040 260e     . @OH.JOJ.HO@..&
    d263:	a6a2 002e 4544 e945 5749 e949 4545 0044     ....DEE.IWI.EED.
    d273:	4022 000e 2042 4848 ea4f 5b4a ea4a 4a4b     "@..B HHO.J[J.KJ
    d283:	0048 c022 000e 60e2 5244 e048 4447 ec44     H."....`DRH.GDD.
    d293:	4444 0044 8024 22e2 2022 5244 e048 5250     DDD.$.."" DRH.PR
    d2a3:	f653 525b 0043 8024 2448 e0a2 494c e949     S.[RC.$.H$..LII.
    d2b3:	4b49 e949 4949 004c 4422 848e 2042 5458     IKI.IIL."D..B XT
    d2c3:	f755 555d f557 5455 0058 4404 e444 0044     U.]UW.UTX..DD.D.
    d2d3:	494c e84a 4f48 e948 484a 004c 4422 8480     LIJ.HOH.JHL."D..
    d2e3:	2042 2223 22fe 0423 e618 3e21 0020 22e2     B #"."#...!> .."
    d2f3:	24e0 2084 2223 22fe 0023 ff00 9292 00ff     .$. #"."#.......
    d303:	22e2 68e0 e002 4f40 ea48 404d ea4f 4f4a     .".h..@OH.M@O.JO
    d313:	0040 440e c882 00ae 4141 f557 7059 f555     @..D....AAW.YpU.
    d323:	415b 0041 8224 24e0 e082 5f40 5a50 f356     [AA.$..$..@_PZV.
    d333:	5a56 5f50 0040 080e 888e 002e 5649 e944     VZP_@.......IVD.
    d343:	4441 ea58 4849 004f a4aa 0040 c022 2621     ADX.IHO...@.".!&
    d353:	24ff 9691 9f90 9690 0091 e000 2e80 8000     .$..............
    d363:	ff23 0022 2424 27fc a524 0064 000e 2422     #.".$$.'$.d..."$
    d373:	40c2 ff26 0024 ff20 2222 ff22 0020 000e     .@&.$. .""". ...
    d383:	220e 002e 2621 24ff 2320 fe22 2322 0020     ."..!&.$ #"."# .
    d393:	e000 220e 002e ff26 0024 909f fc93 9192     ..."..&.$.......
    d3a3:	009f 000e 00e8 e002 2621 22ff 554c df64     ........!&."LUd.
    d3b3:	4544 0044 e080 0e68 6008 2621 24ff 0022     DED...h..`!&.$".
    d3c3:	92ff 9292 00ff e000 e200 e022 5f48 4a6a     ..........".H_jJ
    d3d3:	fa4a 4a4a 5f6a 0048 aa2a aaaa 20aa 2621     J.JJj_H.*.... !&
    d3e3:	24ff 0022 223f a262 003f e000 e200 e022     .$".?"b.?.....".
    d3f3:	ff23 0822 88ff 08ff 88ff 00ff 020e c2c2     #.".............
    d403:	e0c2 ff26 0024 417f 00bf 80ff 00ff 080e     ..&.$..A........
    d413:	c082 80e8 2621 24ff 0022 a222 227f 0022     ....!&.$".".."".
    d423:	e000 2200 20e2 2621 24ff 4f40 df48 4f48     ...". !&.$@OH.HO
    d433:	0040 e000 0e0c 004c ff23 0022 a220 2262     @.....L.#.". .b"
    d443:	a262 0020 000e 2222 2022 ff23 0022 4868     b. ...""" #.".hH
    d453:	cf48 4848 0068 000e 2e02 0000 ff23 7c22     H.HHh.......#."|
    d463:	7c43 2420 ff22 0020 0e0e 028e 002e 5458     C| $". .......XT
    d473:	f554 5456 2058 20ff 003f ae88 8688 e082     T.VTX . ?.......
    d483:	ba82 abaa aafe aafa baab 0082 aa22 4a44     ............".DJ
    d493:	2022 5f40 5559 ff51 5551 5f59 0040 4822     " @_YUQ.QUY_@."H
    d4a3:	080e 2042 3f00 2b20 2b2a fe20 a621 0068     ..B .? +*+ .!.h.
    d4b3:	0868 488a c0c2 7f00 5744 575c fe44 c641     h..H....DW\WD.A.
    d4c3:	0058 2a68 244a c086 9292 a292 bba2 a2c2     X.h*J$..........
    d4d3:	92a2 0092 e222 aa2e a0aa ff84 8f88 8400     ...."...........
    d4e3:	84ff ff84 0084 4c0c 8006 000e ff84 8f88     .......L........
    d4f3:	4a00 fa4e 4b4a 000a 4c0c 8400 00a0 ff00     .JN.JK...L......
    d503:	be80 aaaa aabf beaa 0080 2a68 eaaa 20aa     ..........h*... 
    d513:	ff00 fa80 aaaa aaaa faab 0080 8868 ae8a     ............h...
    d523:	8088 ff84 8f88 ff08 8010 80ff 00ff 4c0c     ...............L
    d533:	4e0c e002 9f84 8fe8 7088 fe00 7000 0009     .N.......p...p..
    d543:	4c0c 2402 0048 8989 bd91 a7e4 a5a4 bda5     .L.$H...........
    d553:	0081 4822 082e 2042 ff84 8888 008f 80ff     .."H..B ........
    d563:	80bf 00ff 440c 2cc0 200c ff84 8f88 f008     .....D.,. ......
    d573:	2e21 2421 0038 4c0c 8024 2084 a0bf bfa0     !.!$8..L$.. ....
    d583:	e5a5 bfa5 a0a0 00bf 2ee2 2e22 e022 909f     .........."."...
    d593:	d0bf 909f 229f ff20 0020 c0e0 e0c2 002e     ....." . .......
    d5a3:	a2ba bba2 a2e6 baa2 aaa3 00ba a422 4a44     ............".DJ
    d5b3:	2022 4a4c 6a5e cf4a 6a4a 4a5a 004c 8888     " LJ^jJ.JjZJL...
    d5c3:	888e 8088 80ff 8eb1 00b1 d57f 7d45 0001     ............E}..
    d5d3:	a2e2 44a4 e062 fa84 9e91 5480 ff54 d554     ...Db......TT.T.
    d5e3:	0054 8024 2402 60c2 fc82 9f92 7e82 ff42     T.$..$.`.....~B.
    d5f3:	7e42 0002 c002 8024 2084 e45c 445f 0044     B~....$.. \._DD.
    d603:	223f 22ff 003f e888 e280 e0e2 f44c 444f     ?"."?.......L.OD
    d613:	0044 8a8a aa93 00ca e888 2280 20e2 b78c     D..........". ..
    d623:	ff84 0084 c17f 7d55 0001 2e68 4400 e042     ......U}..h..DB.
    d633:	fb08 524a 0256 4afa 4b4a 0098 aa0e aaaa     ..JRV..JJK......
    d643:	00ae 4949 ff49 0000 ff00 4949 0049 2e22     ..III.....III.".
    d653:	2e22 2022 5750 fd55 0505 55f5 9755 00b0     "." PWU....UU...
    d663:	440e 4444 004e 0203 22fe 0823 fe08 9611     .DDDN...."#.....
    d673:	0050 22e2 24e0 c0c2 0f00 0909 49f9 4949     P..".$.......III
    d683:	4f49 0000 0424 4220 2004 3f00 2b20 aafe     IO..$. B. .? +..
    d693:	aaaa a6aa 00b2 0e68 aaaa 20aa 003f 00ff     ......h.... ?...
    d6a3:	e21b 3322 222a 0023 e000 2ee2 e022 f700     .."3*"#....."...
    d6b3:	f404 1504 44e4 5764 0040 242a 4248 6022     .....DdW@.*$HB"`
    d6c3:	01f9 f901 cb01 91a9 a991 00c9 a622 2622     ............"."&
    d6d3:	20a2 4424 0a8f fa0a 2a1a 4f8a 0020 ea00     . $D.....*.O ...
    d6e3:	aaaa 00ae 5f80 f515 5f15 0080 007f 00ff     ....._..._......
    d6f3:	000e 002e e0a2 a238 2a6a ea2b 2a2a a26a     ......8.j*+.**j.
    d703:	0038 6a02 2222 00c2 447f 007f 4848 ff4b     8..j""...D..HHK.
    d713:	484b 0048 c0c4 0e48 4008 497f 7f49 2f00     KHH...H..@.II../
    d723:	ff21 4f41 0000 2ee2 0c00 e022 fa02 aaaa     !.AO......".....
    d733:	abaa aaaa faaa 0002 422c aa2e 20aa 92ff     ........,B... ..
    d743:	10ff cf28 0808 2fc8 0010 c0c4 0268 002e     ..(..../....h...
    d753:	92ff 00ff 4848 5868 8a89 008c c2c4 4a24     ....HHhX......$J
    d763:	2022 407f 007f 4949 ff49 4949 0049 c0c4     " .@..III.III...
    d773:	2e22 2022 407f 027f fe22 2222 22fe 0002     "." .@..".""."..
    d783:	c0c4 002c 00c2 407f 887f ff84 8080 84ff     ..,....@........
    d793:	0088 8288 222e 20e2 fc01 a7a4 a4a4 a7a4     .....". ........
    d7a3:	fca4 0001 6e2a 2e22 206a aff8 aaaa aaaa     ....*n".j ......
    d7b3:	aaaa afaa 00f8 aa0e aaaa 00ae 447f 007f     .............D..
    d7c3:	7e02 fe43 7e43 0002 c0c4 8024 2084 fe01     .~C.C~....$.. ..
    d7d3:	aaaa afaa aaaa faaa 0000 aa2a aaae 20aa     ..........*.... 
    d7e3:	447f 7f44 2010 7fc0 4949 0049 4cc4 0e00     .DD.. ..III..L..
    d7f3:	0000 407f 847f 91fa 009f 007f 00ff 8288     ...@............
    d803:	8024 e0a2 447f 7f44 8b00 e292 8a8a 00fb     $....DD.........
    d813:	4cc4 220e e022 fa02 aaab faaa aaab faaa     .L.""...........
    d823:	0002 e202 0844 204a 90f1 929f 00f2 00ff     ....D.J ........
    d833:	ff00 0000 e4e2 8006 6008 aff8 aaaa faaa     .........`......
    d843:	aaaa afaa 00f8 880e 8a88 00ae 7704 5454     .............wTT
    d853:	fd54 5454 7754 0004 242a 4448 202a f901     T.TTTw..*$HD* ..
    d863:	adaa f8a8 ada8 f9aa 0001 2c00 0e00 0000     ...........,....
    d873:	223e 22ff 003e 4040 407f 0040 e422 22e0     >".">.@@.@@.".."
    d883:	20e2 223e 22ff 80be ff80 8488 0082 e222     . >"."........".
    d893:	0ec2 0000 223e 22ff 003e 833c 0360 007c     ....>".">.<.`.|.
    d8a3:	e422 24e0 2084 fe00 9292 ff92 9292 fe92     "..$. ..........
    d8b3:	0000 0e2c a222 6068 223e 22ff 003e 84bc     ..,.".h`>".">...
    d8c3:	fc84 0007 e222 88c2 e0a2 f407 9494 9f94     ...."...........
    d8d3:	9494 f494 0007 aaaa aaae a0ac fa03 8a8a     ................
    d8e3:	888b 8a8b fa8a 0003 22e2 e2e0 e022 417f     .........".."..A
    d8f3:	007f 90ff bc93 9093 00ff 0000 22ea e02a     ............."*.
    d903:	aee8 aaaa 0aea aaea aeaa 00e3 8888 aa88     ................
    d913:	e0a2 a8ef a8ab 00ef ff20 2020 003f 84a4     ........ .  ?...
    d923:	e0a0 e022 407f 007f 7d21 1381 25fd 004d     .."..@..!}...%M.
    d933:	c0c4 0e00 0000 407f 007f 497f c9c9 4949     .......@...I..II
    d943:	007f 8088 22e2 e022 407f 007f 407f d0df     .....""..@...@..
    d953:	405f 007f 8088 88e0 e082 407f 107f 5223     _@.........@..#R
    d963:	9292 2352 0010 c0c4 22e2 002e 407f 007f     ..R#....."...@..
    d973:	4525 95aa c5a4 0006 8088 4422 0080 407f     %E........"D...@
    d983:	7f40 5a44 c041 5a41 0044 4cc4 4822 2042     @.DZA.AZD..L"HB 
    d993:	407f 007f 4850 e255 5944 0046 c0c4 2448     .@..PHU.DYF...H$
    d9a3:	2084 407f 007f 2444 ff15 2415 0044 8088     . .@..D$...$D...
    d9b3:	0e48 4008 407f 927f 92ff 00ff 88ff 00f7     H..@.@..........
    d9c3:	8688 e082 80e4 407f 007f dd33 2801 40c6     .......@..3..(.@
    d9d3:	007f 8088 4022 e022 ef00 2b28 e828 282b     ...."@"...(+(.+(
    d9e3:	eb28 0008 2268 0848 2042 007f 00ff 4a52     (...h"H.B ....RJ
    d9f3:	fe43 4a43 0052 c4c4 8024 2084 aae0 eaab     C.CJR...$.. ....
    da03:	a0a0 e0a7 afa0 00e0 e402 8200 002e 80ff     ................
    da13:	809f 28ff ff28 2b28 00a8 8424 2220 40c2     ...((.(+..$. ".@
    da23:	80ff 809f 00ff 0407 24fc 0027 8424 e220     .........$'.$. .
    da33:	e022 80fe 809f 08fe ca3b 2a0a 001b 042c     ".......;..*..,.
    da43:	e220 e022 f80e 8a8f aaba aaaa f8af 000e      .".............
    da53:	e800 8a88 00e0 197f 0966 ff00 1900 0966     ........f.....f.
    da63:	007f aaea 2a2e e0aa cf29 4949 8e00 fe82     .....*..).II....
    da73:	9292 0093 220e 0200 e022 cf29 0049 415f     ....."..".).I._A
    da83:	ff41 4141 005f 200e 0e00 6022 cf29 0049     A.AA_.. .."`).I.
    da93:	700c fe00 7000 000d 200e 2422 0048 cf29     .p...p... "$H.).
    daa3:	0049 213f ff21 2121 003f 200e 0e00 0000     I.?!!.!!?.. ....
    dab3:	cf29 0049 80ff 84bb 80bb 00ff 200e 80e0     ).I.......... ..
    dac3:	e082 cf29 0049 417f f846 4146 007f 200e     ..).I..AF.FA... 
    dad3:	00e0 e002 cf29 4949 ff00 9292 ff92 0000     ....).II........
    dae3:	220e 000e 002e cf29 4949 3000 4fc0 4040     ."....).II.0.O@@
    daf3:	0070 220e c002 20c2 cf29 4949 1000 48e0     p.."... ).II...H
    db03:	4045 007f 220e 8800 e022 cf29 4949 1100     E@..."..".).II..
    db13:	58e6 4043 007f 220e 8808 e02a 5fd2 0052     .XC@..."..*.._R.
    db23:	ff84 8484 ff84 0004 200e 222e 202e cb28     ......... .". (.
    db33:	7f48 4a4a ff00 8080 00ff 2e2e 0e44 8008     H.JJ........D...
    db43:	c82b 487f 004b 4040 407f 0040 e2e2 22e0     +..HK.@@.@@...."
    db53:	20e2 4949 8a7f 008a 9292 92ff 0092 8024     . II..........$.
    db63:	4400 40e4 aa09 aaaf eaba aaaa afaa 0008     .D.@............
    db73:	ea00 aaaa 00ae 44f4 447f ff04 9191 9f91     .......D.D......
    db83:	0080 0c2c 220e 2022 4949 897f 0f80 f909     ..,.."" II......
    db93:	4949 004f e200 2222 6022 d520 5555 5556     IIO..."""` .UUVU
    dba3:	5055 405f 0000 2202 20e2 c0c2 2010 54fe     UP_@...". ... .T
    dbb3:	5454 5454 5454 0054 0e2c 622a 6068 2272     TTTTTTT.,.*bh`r"
    dbc3:	24ff e212 ff22 2222 0022 e000 2e22 2022     .$.."."""..."." 
    dbd3:	4f88 2800 4fc8 48f8 484f 0009 2a2c 22a2     .O.(.O.HOH..,*."
    dbe3:	a0aa 4f88 5700 5454 947c 9794 0000 2a2c     ...O.WTT|.....,*
    dbf3:	aaaa 20aa 5651 94ff 700a fe02 7300 0008     ... QV...p...s..
    dc03:	e000 2402 0080 a724 b2aa fea2 b2a2 a7aa     ...$..$.........
    dc13:	0024 aa0e aaaa 00ae ff53 0192 223e ff22     $.......S...>"".
    dc23:	2222 003e 000e 0e00 0000 5350 927f 3891     "">.......PS...8
    dc33:	fc03 3803 0000 e080 002c 200c 5350 927f     ...8....,.. PS..
    dc43:	0091 2548 ff01 0002 e080 8008 000e be20     ..H%.......... .
    dc53:	aaaa ffaa aaaa beaa 0020 aa2a aaae 20aa     ........ .*.... 
    dc63:	c020 577d 5555 5555 7d55 0041 2a48 4444      .}WUUUUU}A.H*DD
    dc73:	204a c921 4969 2f49 49c9 4969 0041 0000     J !.iII/.IiIA...
    dc83:	000e 0000 7f00 9454 1400 84e5 16f5 0030     ......T.......0.
    dc93:	884e 4822 2042 3f08 00c0 aabe ffaa aaaa     N."HB .?........
    dca3:	00be 000e 4a2a 2022 3f08 9fc0 fe91 9191     ....*J" .?......
    dcb3:	91fe 009f 0e0e 0000 e002 2720 8474 2524     .......... 't.$%
    dcc3:	54f4 d754 0050 242a 4448 202a 007f 007f     .TT.P.*$HD* ....
    dcd3:	00ff a0bf a0e7 00bf 8680 a480 a084 3f08     ...............?
    dce3:	1fc0 2800 52ea 6954 0008 0c0e aa00 40a2     ...(.RTi.......@
    dcf3:	3f08 00c0 559f f515 5515 009f 000e 00e0     .?...U...U......
    dd03:	e002 3f08 00c0 f704 9f94 f794 0004 000e     ...?............
    dd13:	0e48 4008 3f08 00c0 88fb 8f88 8989 00f9     H..@.?..........
    dd23:	060e 4e84 2022 3f08 11c0 ff91 1092 11fe     ...N" .?........
    dd33:	0056 000e 022e 604c 3f08 10c0 7f53 0092     V.....L`.?..S...
    dd43:	007f 00ff 080e 000e e082 3f08 10c0 df22     ...........?..".
    dd53:	5f52 5f52 0042 000e 4c0c 406e 3f08 20c0     R_R_B....Ln@.?. 
    dd63:	482b 888b 2b48 0020 020e 2a2a 206a 3f08     +H..H+ ...**j .?
    dd73:	02c0 c925 1111 25c9 0002 000e 22e2 002e     ..%....%....."..
    dd83:	3f08 11c0 4969 5b69 a98d 0011 000e 2e00     .?..iIi[........
    dd93:	0000 3f08 20c0 aaaa aaaa aaaa 0020 000e     ...?. ...... ...
    dda3:	aaea 00ae 7e02 d252 5352 5252 7e52 0002     .....~R.RSRRR~..
    ddb3:	aa2a aaae 20aa 7d01 5555 d754 5554 7c54     *.... .}UUT.TUT|
    ddc3:	0001 4822 082e 204a 7c00 d754 7c54 5457     .."H..J .|T.T|WT
    ddd3:	7c57 0001 4822 e200 e0aa 3f08 0cc0 abaa     W|.."H.....?....
    dde3:	aaaa faab 000c 020e 8824 2042 5d41 5555     ........$.B A]UU
    ddf3:	7f55 5555 9d95 0081 44e0 484c e042 3f08     U.UU.....DLHB..?
    de03:	25c0 a9b9 a9af e9a9 0021 020e 8424 2022     .%......!...$." 
    de13:	4f88 0000 547f 54d4 5454 0077 222c aaaa     .O...T.TTTw.,"..
    de23:	a0aa 3f08 24c0 b669 3a22 4b2a 0028 0a0e     ...?.$i.":*K(...
    de33:	442a 20a2 ff00 afa0 aaaa aafa afaa 00a0     *D. ............
    de43:	0e68 aaaa 00ae cf22 0a30 4a4b 4afa 4f4a     h.....".0.KJ.JJO
    de53:	000a 000e 0208 002e c721 0018 80ff 919f     ........!.......
    de63:	809f 00ff 000e 22e2 e022 cf22 0030 4990     ......."".".0..I
    de73:	9010 9f90 0090 000e 0268 002e c721 5518     ........h...!..U
    de83:	5555 55ff 7d55 0010 440e e444 4044 c721     UU.UU}...DD.D@!.
    de93:	0018 a4ff a7a4 fda4 0002 020e 24e2 20c2     .............$. 
    dea3:	4422 1188 bf80 efa0 bfa0 0080 8024 482a     "D..........$.*H
    deb3:	204a 5425 549f 0025 86b8 8681 00f8 e082     J %T.T%.........
    dec3:	2480 2084 2b20 8b48 4888 202b 007f 00ff     .$.  +H..H+ ....
    ded3:	a222 a2a6 e082 4f88 4400 ff28 ff00 4428     "......O.D(...(D
    dee3:	0001 2a2c 2aa2 a0aa 1010 353f b555 3555     ..,*.*....?5U.U5
    def3:	103f 0010 e222 8440 204a 3524 5955 1191     ?...".@.J $5UY..
    df03:	5591 3d55 0020 222e e2e2 202e 92ff 00ff     .UU= .."... ....
    df13:	8884 ff90 8890 0088 e0e0 2a22 2022 ff00     .........."*" ..
    df23:	ff92 ff20 bf20 2c62 0020 2e68 8c2c e022     .. . .b, .h.,.".
    df33:	92ff ff92 ff00 9191 ff91 0000 2ee0 2222     ..............""
    df43:	2022 92ff ff92 e210 ff22 2222 0020 2ee0     " ......"."" ...
    df53:	2e22 2022 92ff ff92 d320 5252 415f 007f     "." .... .RR_A..
    df63:	2ee0 220e 6022 92ff 00ff 3444 ff04 1404     ...""`....D4....
    df73:	0064 e0e0 8e88 8088 92ff ff92 2f08 bf20     d............/ .
    df83:	0b44 0010 2ee0 2e80 c000 92ff ff92 0b00     D...............
    df93:	ca3a 120a 000b 2ee0 220e e022 935e b39e     :........"".^...
    dfa3:	00de fe21 3f20 0000 0e2c a222 60aa 44a2     ..!. ?..,."..`.D
    dfb3:	00bf 4a52 fe43 4a43 0052 c042 8024 2084     ..RJC.CJR.B.$.. 
    dfc3:	44a2 00bf 00ff a0bf a0ff 00bf c642 c080     .D..........B...
    dfd3:	c0e4 2251 00df 223e ff22 2222 003e c042     ..Q"..>""."">.B.
    dfe3:	2e22 202c 44a2 00bf a464 bfa4 e4a4 003f     "., .D..d.....?.
    dff3:	c042 ae88 8088 44a2 00bf 4442 c05b 445b     B......D..BD[.[D
    e003:	0042 c042 4822 2042 44a2 48bf 002f 2120     B.B."HB .D.H/. !
    e013:	21fe 00a0 c042 2cc8 200c 44a2 00bf a4ff     .!..B..,. .D....
    e023:	a7a4 fda4 0002 c042 24e2 20c2 5770 a494     ......B..$. pW..
    e033:	0794 e494 9784 00f0 442a 8480 204a e212     ........*D..J ..
    e043:	4854 0170 427e 7252 0006 0e2c a222 6068     THp.~BRr..,.".h`
    e053:	aa40 aaaa abaa aaaa 3eea 0000 0e2c a222     @........>..,.".
    e063:	6068 4fe0 0060 ff80 9292 ff92 0080 200e     h`.O`.......... 
    e073:	444c 404e 4fe0 0060 2525 55e5 5549 0049     LDN@.O`.%%.UIUI.
    e083:	200e 002c 60c2 4fe0 0060 417f ff41 4141     . ,..`.O`..AA.AA
    e093:	007f 200e 2e22 2024 4fe0 6040 5608 c041     ... ".$ .O@`.VA.
    e0a3:	5641 0048 200e 4822 2042 4fe0 6040 a200     AVH.. "HB .O@`..
    e0b3:	227f 7f22 00a2 220e c002 000e 5844 7846     .""...."....DXFx
    e0c3:	c140 7e40 5840 0044 220e 222e 002e 6b50     @.@~@XD.."."..Pk
    e0d3:	7a4a ca4a 7a4a 6e4a 0050 8808 aaaa 00ae     JzJ.JzJnP.......
    e0e3:	3340 00ff 5a62 5a62 8f42 00b2 e0c0 4008     @3..bZbZB......@
    e0f3:	002e 8901 1149 03f9 c929 5169 0061 4422     ....I...).iQa."D
    e103:	8480 2042 5e40 5252 d253 5253 5e52 0041     ..B @^RRS.SRR^A.
    e113:	ae44 0822 204a 7447 5555 d555 5555 7455     D.".J GtUUU.UUUt
    e123:	0047 0200 002e 0000 7447 5554 d555 5555     G.......GtTUU.UU
    e133:	7454 0047 4822 0e00 6022 7f00 5150 557d     TtG."H.."`..PQ}U
    e143:	55d5 517d 0050 0268 44a4 204a 4f88 0200     .U}QP.h..DJ .O..
    e153:	414c c07e 487f 0046 222c 2a2a 20a2 7f00     LA~..HF.,"**. ..
    e163:	5240 5b56 54c4 545f 0044 0a68 2a4a 20aa     @RV[.T_TD.h.J*. 
    e173:	7f12 4444 d24b 5262 444b 0044 0068 2ae2     ..DDK.bRKDD.h..*
    e183:	60a2 7f12 5f40 d254 5251 5f54 0040 2c68     .`..@_T.QRT_@.h,
    e193:	0848 6048 7f00 4540 515d 51d1 455d 004c     H.H`..@E]Q.Q]EL.
    e1a3:	2268 44a4 20a2 7f12 5f40 5252 52de 5252     h".D. ..@_RR.RRR
    e1b3:	005e 0e68 2222 e022 4984 c521 4945 4971     ^.h."""..I!.EIqI
    e1c3:	4545 0064 220e 2222 002e 528a 2a0b 52ce     EEd.."""...R.*.R
    e1d3:	5262 4a4b 006a aa2a 4c44 2042 4a08 5a6a     bRKJj.*.DLB .JjZ
    e1e3:	cf4a 5a4a 4a6a 0008 8024 002e 2084 4b08     J.JZjJ..$.... .K
    e1f3:	7a4a ca4a 7a4a 4b4a 0008 aa0e aaaa 00ae     JzJ.JzJK........
    e203:	4b4c 5a6a cf4a 5a4a 4b6a 004c 000c 000e     LKjZJ.JZjKL.....
    e213:	004c 7f40 48c8 224f 44cf 495f 004f 0268     L.@..HO".D_IO.h.
    e223:	e2e0 60a2 803f 1544 bf95 9595 8084 00ff     ...`?.D.........
    e233:	44e0 444c e042 409f bf20 aaaa bfaa 81a1     .DLDB..@ .......
    e243:	00ff 88e0 8c88 e022 409f 921e bf92 9292     ......"..@......
    e253:	809e 00ff 44e0 484c e062 449f b00f 8484     .....DLHb..D....
    e263:	89bf 90aa 00ff e0e0 8424 e024 409f 9212     ........$.$..@..
    e273:	a4ea b2aa 8082 00ff 0ee0 aeaa e002 5444     ..............DT
    e283:	d755 7d55 d555 5555 0044 2248 e222 2022     U.U}U.UUD.H""." 
    e293:	5545 d5d6 745c d554 55d6 0045 6800 0e00     EU..\tT..UE..h..
    e2a3:	0000 5545 d5d5 7f55 d555 55d5 0045 4422     ..EU..U.U..UE."D
    e2b3:	8480 2042 5545 d755 7d55 d555 5555 0045     ..B EUU.U}U.UUE.
    e2c3:	a422 4444 20a2 0969 49ff ff09 9394 9390     ".DD. i..I......
    e2d3:	009c e000 2468 2084 4f88 2400 66a5 663c     ....h$. .O.$.f<f
    e2e3:	24a5 0000 2a2c 2222 202a a525 2969 fb21     .$..,*""* %.i)!.
    e2f3:	2921 a569 0025 4422 8480 2042 4f88 9100     !)i.%."D..B .O..
    e303:	1452 14ff 9152 0000 222c a222 2022 0b68     R...R...,""." h.
    e313:	0aff 0469 8484 a49f 00c4 e0c0 0280 00e0     ..i.............
    e323:	aa22 2372 fa26 2222 aa73 0022 a422 4a44     ".r#&.""s.".".DJ
    e333:	2022 2f20 6aaa 202f 6027 2fa0 0020 8a0e     "  /.j/ '`./ ...
    e343:	82e0 002e 2f20 6aaa 3a2a 6a2a 2faa 0020     .... /.j*:*j./ .
    e353:	aa0e aaaa 00ae 4f88 ae20 2262 223f ae62     .......O .b"?"b.
    e363:	0020 222c a226 2022 2622 62bb 2026 6622      .,"&." "&.b& "f
    e373:	22bb 0026 246a 6ae0 e024 3e00 62a2 2222     ."&.j$.j$..>.b""
    e383:	6222 3ea2 0000 e268 62aa 6068 ff38 4010     "b.>..h..bh`8..@
    e393:	fd53 5f51 4141 0000 e0e0 2e24 2004 0078     S.Q_AA....$.. x.
    e3a3:	20ff 1008 3fe0 2424 0024 0c2c 0e00 8088     . ...?$$$.,.....
    e3b3:	ff18 0010 427e 5f42 8242 0082 e4e0 2e82     ....~BB_B.......
    e3c3:	4008 0078 10ff df20 5252 415e 007f 0c2c     .@x... .RR^A..,.
    e3d3:	220e 6022 003c 08ff 4030 5548 44e2 0048     .""`<...0@HU.DH.
    e3e3:	082c c464 c044 0038 08ff a000 2262 6222     ,.d.D.8.....b""b
    e3f3:	00a0 0c2c 2222 2022 aa2e 3f6a aa6a 003b     ..,.""" ..j?j.;.
    e403:	007f 00ff 8e44 c004 e0a2 4990 4900 4949     ....D......I.III
    e413:	49ff 4949 0000 222c e222 2022 4990 2500     .III..,""." .I.%
    e423:	2525 25fd 2525 0000 0e2c 2222 002e 4990     %%.%%%..,.""...I
    e433:	2200 fe22 2222 22fe 0022 022c 0048 2084     ."".""."".,.H.. 
    e443:	4990 9f00 fe91 9090 91ff 009f 0e2c 2222     .I..........,.""
    e453:	e022 55a5 1149 fb41 4949 4949 0059 4822     "..UI.A.IIIIY."H
    e463:	080e 2042 4990 2500 e525 4959 4555 004d     ..B .I.%%.YIUEM.
    e473:	2268 0e48 6022 4990 3e00 2222 22ff 3e22     h"H."`.I.>""."">
    e483:	0000 022c e222 202c 4990 ff00 af80 a8a8     ..,."., .I......
    e493:	80af 00ff 0e2c 8808 e082 4990 ff00 9f80     ....,......I....
    e4a3:	00ff 007f 00ff 022c 6048 e0a2 4990 e414     ......,.H`...I..
    e4b3:	2724 27fc 2424 0004 022c 0ec0 e022 4990     $'.'$$..,..."..I
    e4c3:	4900 4949 497f 8989 0008 0e2c 2222 002e     .III.I....,.""..
    e4d3:	4990 7f00 5040 505f 929f 0024 2c2c e000     .I..@P_P..$.,,..
    e4e3:	200c 4990 1300 4a2a 8a8a 2a4a 0013 0e2c     . .I..*J..J*..,.
    e4f3:	2222 e022 aa26 4b82 e752 4342 0a7a 001a     """.&..KR.BCz...
    e503:	8044 000e 4084 4990 1200 d523 4949 6355     D....@.I..#.IIUc
    e513:	0002 002c 22e2 002e 4990 3020 63ac 203c     ..,.."...I 0.c< 
    e523:	007f 00ff 022c e0c0 e082 4990 2100 2a31     ....,......I.!1*
    e533:	64a4 312a 0021 022c 002c 00e0 4990 0000     .d*1!.,.,....I..
    e543:	64a4 3f24 6424 00a4 002c 8e88 8088 4990     .d$?$d..,......I
    e553:	0c02 08ff ff06 0608 00ff 062c 0e80 e000     ..........,.....
    e563:	4990 c200 9a96 97b2 9292 00c0 082c 8e88     .I..........,...
    e573:	8088 4990 7100 4742 46f8 4241 0074 002c     ...I.qBG.FABt.,.
    e583:	240e 2084 4990 5510 5555 55ff 7d55 0010     .$. .I.UUU.UU}..
    e593:	442c e444 4044 007e 20ff 4a0a fa4a 4f4a     ,DD.D@~.. .JJ.JO
    e5a3:	000a e000 4008 002e 003e 30ff bf80 a4a4     .....@..>..0....
    e5b3:	bfa4 0080 e000 aa2a 20aa 001c 10ff ff48     ......*.. ....H.
    e5c3:	4448 445f 0048 e000 2c68 200c 007e 20ff     HD_DH...h,. ~.. 
    e5d3:	3444 fc07 1407 0064 e000 8024 60e2 007e     D4....d...$..`~.
    e5e3:	20ff 4908 7f49 8949 0088 e000 220e 002e     . .II.I......"..
    e5f3:	007e 20ff 407f c07f 407f 007f e000 e2e2     ~.. .@...@......
    e603:	e0e2 003e 20ff 2310 9252 2352 0010 e000     ..>.. .#R.R#....
    e613:	220e 002e 003c 20ff 405f c659 4059 005f     ."..<.. _@Y.Y@_.
    e623:	e000 a2e2 e0a2 003e 10ff a4ff a7a4 fda4     ......>.........
    e633:	0002 e000 24e2 20c2 a424 326a 6fa2 3222     .....$. $.j2.o"2
    e643:	a46a 0024 8888 888e 8088 af30 2868 6ba8     j.$.......0.h(.k
    e653:	2828 af68 0030 2422 c280 6022 4770 5555     ((h.0."$.."`pGUU
    e663:	d555 5555 4755 0070 222e 2222 202e 5f60     U.UUUGp..""". `_
    e673:	5555 dd55 5555 5755 0060 220e 222e 0022     UUU.UUUW`.."."".
    e683:	4270 5652 d35a 5252 4254 0070 aa2a aaae     pBRVZ.RRTBp.*...
    e693:	20aa 4170 555d d555 5555 415d 0070 220e     . pA]UU.UU]Ap.."
    e6a3:	2222 002e 4561 4959 df49 4949 4949 0061     ""..aEYII.IIIIa.
    e6b3:	2422 e280 6022 4a62 524a c663 4a7b 5a4a     "$.."`bJJRc.{JJZ
    e6c3:	0062 4822 0800 2042 5761 5555 c565 5575     b."H..B aWUUe.uU
    e6d3:	5557 0061 2202 8244 00e0 4b61 4949 c071     WUa.."D...aKIIq.
    e6e3:	4b7a 5a4a 0063 220e 2c60 e002 4571 7b4b     zKJZc.."`,..qEK{
    e6f3:	d555 5b55 4143 0071 220e 2222 002e 5f90     U.U[CAq.."""..._
    e703:	2400 242f 242f 21fe 00a6 402e a280 6048     .$/$/$.!...@..H`
    e713:	97e4 9794 8494 8a88 bf88 00e8 0e2c 2222     ............,.""
    e723:	60aa 5f90 0000 9c83 ff82 9c82 0083 402e     .`._...........@
    e733:	2e22 2022 5f90 0000 ada5 e5b5 bda5 0085     "." ._..........
    e743:	402e 22e2 e022 bf80 aba8 abaa abaa aaaa     .@.""...........
    e753:	00bb 0e2c 8e8e e08a 4241 5ac7 0861 4948     ..,.....AB.Za.HI
    e763:	897e 0888 e000 4802 4208 cf42 0274 ff00     ~......H.BB.t...
    e773:	9292 ff92 0000 000e 222e 202e 4241 48c7     .........". AB.H
    e783:	0076 497f 49ff 007f e000 0000 00e0 cf42     v..I.I........B.
    e793:	0274 8ff8 8888 f88f 0000 020e 00c0 e0e2     t...............
    e7a3:	9097 909f 0097 a4a7 80a7 00ff e0c0 88c0     ................
    e7b3:	e0a2 5f90 0100 95f5 9795 f595 0001 402e     ..._...........@
    e7c3:	4822 2042 5f90 0000 5914 7d51 9891 0014     "HB ._...YQ}....
    e7d3:	402e c022 e0aa 5f90 1000 df22 5b52 5f52     .@"...._..".R[R_
    e7e3:	0042 402e 440c 404e 5f90 0000 a23e 2263     B..@.DN@._..>.c"
    e7f3:	a263 003e 402e 8024 60e2 5f90 0000 8a8f     c.>..@$..`._....
    e803:	9faa caaa 000f 402e 8ee8 e08a fe02 aaaa     .......@........
    e813:	ada8 aaaa f9ae 0001 aa2a aaae 20aa 4f88     ........*.... .O
    e823:	0000 a8ff aaac faa9 0004 2a2c a2aa a02a     ..........,*..*.
    e833:	ff00 9292 04fe 84fc ff87 0084 482e 2c60     .............H`,
    e843:	200e ff00 aaa8 aaae aaab acaa 00ea 2a68     . ............h*
    e853:	eaaa 20aa fe01 afa0 aaaa afaa e3bc 0000     ... ............
    e863:	2a82 aaaa 8022 ff00 a4a0 afb4 a4a4 b4af     .*.."...........
    e873:	00e4 0868 88ac 80e8 ff00 aaa2 a2a7 a2af     ..h.............
    e883:	aaa7 00e2 4868 e000 4008 555c fc57 5554     ....hH...@\UW.TU
    e893:	54fc 7557 0007 a282 4248 00a2 88ff 00f7     .TWu....HB......
    e8a3:	4908 ff48 4949 0009 80e8 4e68 2022 4f88     .IH.II....hN" .O
    e8b3:	8400 bf84 10c8 10ff 0008 222c 2aaa 20a2     ..........,".*. 
    e8c3:	ff00 afa0 eaaa aaaa aaaa 00ef 0e68 aaaa     ............h...
    e8d3:	e0aa 9f82 00e4 5949 ca6a 4944 0052 002e     ......IYj.DIR...
    e8e3:	4422 2084 88ff 00f7 a8ef aba8 a8a8 00ef     "D. ............
    e8f3:	00e8 48a2 a042 80ff f788 2a12 8f4a 2a4a     ...HB......*J.J*
    e903:	0012 88e0 2e48 4008 88ff 00f7 291a 894a     ....H..@.....)J.
    e913:	2948 001a 80e8 2a2a 202a 88ff 00f7 4a72     H)....*** ....rJ
    e923:	ca4b 4a4b 0072 80e8 8024 60e2 e13e 003e     K.KJr...$..`>.>.
    e933:	4949 ff49 4949 0049 6068 2e22 2022 fe20     III.III.h`"."  .
    e943:	3e21 4908 fd4b 1a49 006a 8606 e280 6022     !>.IK.I.j....."`
    e953:	e13e 003e 5557 ff55 5555 005d 6068 4822     >.>.WUU.UU].h`"H
    e963:	a042 e13e 003e 90ff bc93 9093 00ff 6068     B.>.>.........h`
    e973:	22ea e02a fe20 3e21 5402 705f 9f90 0094     ."*. .!>.T_p....
    e983:	8606 e000 000e fe20 3e21 1422 00ff 14ff     ...... .!>".....
    e993:	0022 8606 8006 e0e2 41fe 927e 92ff 00ff     "........A~.....
    e9a3:	88ff 00f7 6268 e0c2 80e4 7454 49c8 0174     ....hb....Tt.It.
    e9b3:	5444 5448 0064 0e2c a222 6068 f24a 4b42     DTHTd.,.".h`J.BK
    e9c3:	077a 8bfa fa8a 0002 8044 000e 4084 5348     z.......D....@HS
    e9d3:	4ae2 7b4a 7a02 4b4a 0078 242a 4448 202a     .JJ{.zJKx.*$HD* 
    e9e3:	8c02 82f0 a4aa 82ba d2b0 001e aa2e eaea     ................
    e9f3:	20ae be00 aaaa bfea eaaa 3eaa 0000 aaaa     . .........>....
    ea03:	8ac8 e0aa 2e20 aa6a 2b2a 2a2a 4e2a 0020     .... .j.*+***N .
    ea13:	0e2c a222 6068 a908 a991 0fc9 29c9 2951     ,.".h`.......)Q)
    ea23:	0008 2422 8480 2022 ab08 aa8a d792 aa92     .."$.." ........
    ea33:	cbaa 0008 aa2a aaae 20ac 9515 9595 b7d9     ....*.... ......
    ea43:	d1bd 95d1 0019 4822 080e 2042 1602 543a     ......"H..B ..:T
    ea53:	1192 5612 142a 0002 aa2a aaae 20aa 5533     ...V*...*.... 3U
    ea63:	0099 ff49 0049 88ff 00f7 4022 002c c0e4     ..I.I....."@,...
    ea73:	dd33 2211 222f 26f8 6ea1 0020 4222 24c0     3.."/".&.n ."B.$
    ea83:	2084 dd33 0011 4a4b fa4a 4a4a 004b 4022     . 3...KJJ.JJK."@
    ea93:	22e2 e022 dd33 0011 2525 55e5 5549 0049     ."".3...%%.UIUI.
    eaa3:	4022 002c 60c2 84bc fd85 5407 705f 9f90     "@,..`.....T_p..
    eab3:	0094 2288 e0e0 000e dd33 1211 5222 9293     ..."....3..."R..
    eac3:	2252 0012 4022 226a 202c 5533 2299 2b10     R".."@j", 3U.".+
    ead3:	8a4a 2b4a 0010 2422 220e 002e dd33 2011     J.J+.."$."..3.. 
    eae3:	52df 5252 405f 007f 4022 44c4 e0e2 84bc     .RRR_@.."@.D....
    eaf3:	07fd e510 4955 5549 0065 2e8a 220e e022     ....UIIUe...."".
    eb03:	dd33 0011 e515 4955 5549 0065 4022 22e2     3.....UIIUe."@."
    eb13:	e022 dd33 0011 a27f bea2 e2a2 003e 4022     ".3.........>."@
    eb23:	22e2 e022 dd33 0011 5648 c041 5641 0048     ."".3...HVA.AVH.
    eb33:	4022 4822 2042 84bc 07fd 4840 e255 4944     "@"HB ....@HU.DI
    eb43:	0040 2e8a 240a 2084 dd33 4411 574c 44e4     @....$. 3..DLW.D
    eb53:	5847 0044 4222 0048 e0e2 5554 55ff 2254     GXD."BH...TU.UT"
    eb63:	22ff ff22 0022 e848 c042 000e 5554 55ff     ."".".H.B...TU.U
    eb73:	0894 8f88 8988 0008 e848 e242 6048 5554     ........H.B.H`TU
    eb83:	55ff 0054 4949 927f 0092 e848 0040 e0e2     .UT.II....H.@...
    eb93:	5555 55ff 0055 84ff 84fc 00fc e424 e220     UU.UU.......$. .
    eba3:	e022 ff24 1024 d13f 5f51 7151 001f 808e     ".$.$.?.Q_Qq....
    ebb3:	22e2 6022 5544 5c56 55f4 5c54 5556 0044     .""`DUV\.UT\VUD.
    ebc3:	a882 0a2e 80a2 5544 5c56 d776 5c56 5556     ......DUV\v.V\VU
    ebd3:	0044 ac82 8c8e 80a2 ff88 0088 6514 ff26     D............e&.
    ebe3:	2526 0004 804c 0e48 4008 ff84 0084 007e     &%..L.H..@....~.
    ebf3:	00ff ff84 0084 804c 022c 202e 5444 5656     ......L.,.. DTVV
    ec03:	fd55 5656 5554 0044 c8aa 888e a0c2 80ff     U.VVTUD.........
    ec13:	aaa9 aaff aaba abfa 00a8 22e2 aaaa 20aa     ..........."... 
    ec23:	a784 b2aa a7e2 b2a2 a7aa 0084 aa2a aaae     ............*...
    ec33:	20ac 9f10 9f90 1090 a0bf a0ef 00bf 0e68     . ............h.
    ec43:	a448 a084 5550 5555 75d5 555d 53db 0054     H...PUUU.u]U.ST.
    ec53:	222e e2e2 202e 80ff 9595 bf95 bf80 9595     ."... ..........
    ec63:	0095 26e2 2ea2 2022 ff21 0022 f25a 5257     ...&.." !.".Z.WR
    ec73:	f252 005b 002e 8024 e022 5212 f753 5253     R.[...$."..RS.SR
    ec83:	fe10 9611 0050 0e48 2408 c0c2 ff22 0024     ....P.H..$..".$.
    ec93:	555f ff55 d555 005f 002e 0ee0 e002 ff10     _UU.U._.........
    eca3:	0010 aabf ffaa aaaa 00be 804c 4a2a 2022     ..........L.*J" 
    ecb3:	ff22 0024 a5a5 a5fd bda5 0085 002e 22e2     ".$............"
    ecc3:	e022 ff22 0024 a8ff a8af a8af 0089 062e     ".".$...........
    ecd3:	e282 200c 5755 f75d 5555 fe10 9611 0050     ... UW].UU....P.
    ece3:	4e44 0244 c0c2 2900 ff28 0129 4848 487f     DND....)(.).HH.H
    ecf3:	0048 4c2c 2222 20a2 4908 ff48 4949 8f00     H.,L"". .IH.II..
    ed03:	8888 00fb 4c68 2a22 a0aa 4b08 fa4a 5253     ....hL"*...KJ.SR
    ed13:	fa03 1322 0010 222e e2e2 202e ff22 0024     .."...."... ".$.
    ed23:	559f f515 5515 009f 002e 00e0 e022 ff22     .U...U......".".
    ed33:	0024 aafa abaa aaaa 00fa 002e 8e88 8088     $...............
    ed43:	ff22 0024 a9f9 aba9 a9a9 00f9 002e 2e22     ".$...........".
    ed53:	2022 ff10 0010 92fe ff92 9292 00fe 804c     " ............L.
    ed63:	aeaa a0aa ff22 0024 88fb 8f88 8989 00f9     ....".$.........
    ed73:	062e 4e88 2022 ff21 0022 92ff bf94 9294     ...N" !.".......
    ed83:	00ff 002e 2ae2 e022 ff22 0024 aaef aaaa     .....*".".$.....
    ed93:	aaaa 00ef 002e 88e8 e0aa ff22 0024 a8ef     ..........".$...
    eda3:	aba8 a8a8 00ef 002e 48a2 a042 5e10 5352     .........HB..^RS
    edb3:	f252 5352 5e52 0011 e28a 0844 204a ff22     R.RSR^....D.J ".
    edc3:	f024 929f 00f3 007f 00ff 022e e0c2 e002     $...............
    edd3:	4b09 fa4e 6b5a ff00 9880 00e7 aa0e 0eae     .KN.Zk..........
    ede3:	0088 5550 51fd 0551 a1f9 bda1 00a0 220e     ..PU.QQ........"
    edf3:	2222 002e 4f88 4400 48ff ff00 9f90 0090     ""...O.D.H......
    ee03:	2a2c a2a2 202a ff21 2022 482b 888b 2b48     ,*..* !." +H..H+
    ee13:	0020 022e 2a2a 206a ff22 0024 7109 ff09      ...**j ".$..q..
    ee23:	7109 0009 002e 2e22 2022 ff22 3f21 a161     .q...."." ".!?a.
    ee33:	a1bf 3fe1 0001 222e 8444 2042 ff22 0024     ...?..."D.B ".$.
    ee43:	925e 9e93 d2b3 001e 002e 8024 60e2 fa48     ^.........$..`H.
    ee53:	0252 6b4a 4af2 7a42 0008 8a88 88ae 8088     R.Jk.JBz........
    ee63:	ff49 0150 7856 41c6 017e 000e 0424 4220     I.P.Vx.A~...$. B
    ee73:	2004 fc84 0588 a2f8 8099 04fc 003c 0e2c     . ..........<.,.
    ee83:	2222 6068 ff22 0024 437e 42d2 7a4a 0003     ""h`".$.~C.BJz..
    ee93:	0c2e 444c e0e2 5546 5754 f454 5754 5554     ..LD..FUTWT.TWTU
    eea3:	0046 ae22 2e22 20a2 ff22 0024 959f bfd5     F.".".. ".$.....
    eeb3:	95d5 001f 002e 0ee0 e002 ff10 0010 3d13     ...............=
    eec3:	17d5 2515 0011 804c 4822 2042 ff22 0024     ...%..L."HB ".$.
    eed3:	7925 2fa9 4929 0021 002e 4822 2042 ff80     %y./)I!..."HB ..
    eee3:	9494 80ff 003f 08ff 0008 884c e2e2 20e2     ....?.....L.... 
    eef3:	ff80 ff94 0081 0338 03fc 0038 8e4c c002     ......8...8.L...
    ef03:	c200 ff80 ff92 7080 fe41 4043 0070 4e4c     .......pA.C@p.LN
    ef13:	c082 e0e2 8585 a9fd a8a9 a9a9 89fd 0089     ................
    ef23:	44a4 a4a0 a044 4a49 48fd 484b 4849 4afd     .D..D.IJ.HKHIH.J
    ef33:	0049 8204 0ce0 000c 4a4a ed4a 584c ed4c     I.......JJJ.LXL.
    ef43:	4a4a 004a ac88 8e88 8088 4d49 e94b 5f49     JJJ.......IMK.I_
    ef53:	e949 4d4b 0049 4844 080e 4044 4b52 ea40     I.KMI.DH..D@RK@.
    ef63:	5a4e ea4f 4a4a 0040 2a2c eaaa 20aa 5f41     NZO.JJ@.,*... A_
    ef73:	f555 5555 f555 5f55 0041 4422 8480 2042     U.UUU.U_A."D..B 
    ef83:	4a42 ef4b 5253 ef40 4040 005f 0e48 0808     BJK.SR@.@@_.H...
    ef93:	e002 4742 e048 4a4b eb4a 4f48 0048 000e     ..BGH.KJJ.HOH...
    efa3:	8a88 002e 4d54 f04b 4242 ef42 4a42 0046     ....TMK.BBB.BJF.
    efb3:	c0a2 8024 2084 ab88 8a9a 8afa 8afa ab9a     ..$.. ..........
    efc3:	0088 aa0e aaaa 00ae 94a4 fc84 8584 fc84     ................
    efd3:	9484 00a4 0e2c a222 6068 5458 f555 5755     ....,.".h`XTU.UW
    efe3:	f555 5455 0058 2222 2a2e 2062 5058 54f7     U.UTX."".*b XP.T
    eff3:	565c 5755 50f0 0058 aa22 8aaa 00ae 5f40     \VUW.PX.".....@_
    f003:	5454 f454 5454 5f54 0040 c8aa 8888 a0ca     TTT.TTT_@.......
    f013:	2621 24ff 80ff a4a4 a4bf 00a4 e000 aae2     !&.$............
    f023:	a0aa ff23 0022 ff49 0049 88ff 00f7 000e     ..#.".I.I.......
    f033:	002c c0e4 2621 24ff 4908 fb49 4949 0008     ,...!&.$.II.II..
    f043:	e000 2e22 2022 2621 24ff 4b40 fa4a 4b4a     .."." !&.$@KJ.JK
    f053:	0040 e000 220e 002e ff26 0024 919f 90fe     @...."..&.$.....
    f063:	91ff 009f 000e 22e2 e022 ff23 0022 2949     ......."".#.".I)
    f073:	f909 2909 004f 000e 2222 e022 ff13 0012     ...)O...""".....
    f083:	80ff 9497 8097 00ff 000e 88e0 e082 2621     ..............!&
    f093:	22ff 7404 ff25 2425 0004 e000 0e48 4008     .".t%.%$....H..@
    f0a3:	ff23 0022 5752 7058 9798 0092 000e 0068     #.".RWXp......h.
    f0b3:	000e 2c23 24ff 3c12 13c0 24fc 004c e000     ..#,.$.<...$L...
    f0c3:	8e88 8088 2621 24ff 2910 8f49 2949 0010     ....!&.$.)I.I)..
    f0d3:	e000 2e22 2022 ff26 4124 ff22 0000 22ff     .."." &.$A"...."
    f0e3:	0041 020e 0048 60e2 2621 24ff 2312 49d5     A...H..`!&.$.#.I
    f0f3:	6355 0002 e000 220e 002e 2621 24ff 7f00     Uc....."..!&.$..
    f103:	4444 44df 0044 e000 2268 20e2 ff26 0024     DD.DD...h". &.$.
    f113:	5648 c041 5641 0048 000e 4822 2042 2621     HVA.AVH..."HB !&
    f123:	24ff 4842 c275 5944 0046 e000 2448 2084     .$BHu.DYF...H$. 
    f133:	ff23 0022 c941 7f49 c949 0041 000e 0e00     #.".A.I.I.A.....
    f143:	0000 2621 24ff ff00 a8a8 a8af 00fb e000     ..!&.$..........
    f153:	242e 200c 525c 5552 fa55 5452 5154 005c     .$. \RRUU.RTTQ\.
    f163:	c8aa 888e a0c2 f784 9494 9494 f794 ff84     ................
    f173:	0084 8808 8a88 002e 4f88 5c00 5457 54ff     .........O.\WT.T
    f183:	5c57 0000 2a2c a222 202a 4f88 bc00 a5a6     W\..,*".* .O....
    f193:	a5a4 bca6 0000 2a2c aaaa 20aa bd81 a5a5     ......,*... ....
    f1a3:	a7fd a5fd bda5 0081 4822 080e 2042 bb80     ........"H..B ..
    f1b3:	faaa abaa faaa bbaa 0080 242a 4448 202a     ..........*$HD* 
    f1c3:	a2bf a2fc 08bf e430 2023 003f aaea 00e0     ......0.# ?.....
    f1d3:	e022 a2bf a2fc bfa2 8f00 8888 00f9 aaea     "...............
    f1e3:	0eae e022 f84b 004f a492 00ff a492 00ff     ..".K.O.........
    f1f3:	222c a22a a02a fc02 aeaa aaaa a8a8 aaad     ,"*.*...........
    f203:	008a c888 8a88 80e8 fe01 afa9 aaaa aca8     ................
    f213:	adaa 0089 aa0e aaaa 00ae be80 abaa eaaa     ................
    f223:	aaaa beab 0080 aa2a 4a44 2022 f887 008f     ......*.DJ" ....
    f233:	80ff 909f 90ff 009f c0c4 a2e2 a0ea ff84     ................
    f243:	8f88 a400 ff94 9484 00a4 4c0c 0e00 0000     ...........L....
    f253:	f887 808f 487b 7f48 8888 008b c0c4 2e82     ....{HH.........
    f263:	8000 8f82 84f4 0087 087b 08ff 007b 220e     ........{...{.."
    f273:	e2e0 e0e2 9f84 8fe8 7f80 494a 49f8 006e     ..........JI.In.
    f283:	4c0c 242c 2084 ff00 be80 aaaa aaeb beaa     .L,$. ..........
    f293:	0080 2c68 e002 200c 5f50 4a6a 4aca 4a4a     ..h,... P_jJ.JJJ
    f2a3:	5a6a 0050 ea8a aaaa a0ac 4f88 a400 a9a4     jZP........O....
    f2b3:	bfd2 a294 0081 2a2c 6aa6 2022 f088 a6a9     ......,*.j" ....
    f2c3:	b0ac 7c00 0101 00ff 0424 4220 2004 8c82     ...|....$. B. ..
    f2d3:	91f2 909e 2564 25ff 0024 4802 c000 c0e0     ....d%.%$..H....
    f2e3:	8c82 91f2 109e 4aef 404f 007f 4802 8800     .......JO@...H..
    f2f3:	e0a2 80ff a2bf 00be a0bf a0e7 00bf e2e0     ................
    f303:	24c0 2084 e45c 445f 5400 705f 9f90 0094     .$. \._D.T_p....
    f313:	e888 e000 000e e45c 445f 4800 4156 57c0     ......\._D.HVA.W
    f323:	0048 e888 2402 20c2 415f 41ff 005f a0bf     H....$. _A.A_...
    f333:	a0e7 00bf e200 2460 2084 fb0a 524a 0253     ......`$. ..JRS.
    f343:	2afb 4b2a 004a a4a2 ea80 60a2 9989 89ef     .**KJ......`....
    f353:	0891 4cf0 7c43 0040 e422 2c40 200c 7a0a     ...LC|@.".@,. .z
    f363:	fb0a 5752 fb02 4a4a 009a 8044 000e 4084     ..RW..JJ..D....@
    f373:	3e00 2a2a eb2a aaaa beaa 0000 c8aa 888e     .>***...........
    f383:	a0ca 3f00 2820 fe28 aaaa aaaa 00b6 4e6a     ...? ((.......jN
    f393:	622a 6060 7300 fa02 3203 52c3 434a 0000     *b``.s...2.RJC..
    f3a3:	222e e2e2 202e f200 0402 0af5 a4d2 a1a8     ."... ..........
    f3b3:	00d0 c8aa 88ae a0c2 a038 296f e929 2929     ........8.o)).))
    f3c3:	a06f 0038 2c22 e200 e022 4f88 0000 aaea     o.8.",.."..O....
    f3d3:	afaa aaaa 00ea 222c aaaa a0aa 447f 007f     ......,".....D..
    f3e3:	a0bf a0ff a1ff 00bf c0c4 22ea e022 92ff     ...........""...
    f3f3:	ff92 ff00 9292 929f 00f2 4cc4 202e c0c2     ...........L. ..
    f403:	447f 7f44 2521 55e5 5549 0049 4cc4 c022     .DD.!%.UIUI..L".
    f413:	60e2 407f 127f 5452 55fc 3456 0050 c0c4     .`.@..RT.UV4P...
    f423:	ae88 8088 407f 007f e94d 494b e949 004d     .....@..M.KII.M.
    f433:	8088 8024 e022 92fe 92ff 00fe c17f 7d55     ..$.".........U}
    f443:	0001 e000 4400 e042 f901 abad afa9 aba9     .....DB.........
    f453:	f9ad 0001 4822 0e00 6022 407f 007f 555f     ...."H.."`.@.._U
    f463:	ff55 d555 005f c0c4 0ee0 e002 447f 007f     U.U._........D..
    f473:	203f a86f 202f 003f c0c4 88e0 e082 aef9     ? o./ ?.........
    f483:	aaab aaab 00fb 007f 00ff 2448 e082 e082     ..........H$....
    f493:	ea38 aaae afba aaaa eaaa 0038 8888 888e     8.........8.....
    f4a3:	8088 223e 22ff 003e 2424 24ff 0024 e422     ..>".">.$$.$$.".
    f4b3:	88e0 80e8 88ff 88ff 00ff 0969 09ff 0069     ..........i...i.
    f4c3:	c4c4 00c0 00e0 223e 22ff 003e e018 e007     ......>".">.....
    f4d3:	0018 e422 2ee0 e024 223e 22ff 003e 3e20     .."...$.>".">. >
    f4e3:	3ee1 0020 e422 24e0 2084 223e 22ff 003e     .> ."..$. >".">.
    f4f3:	2448 ff00 0001 e422 88e0 008e 223e 22ff     H$....".....>"."
    f503:	003e 929e 00f3 00ff e422 22e0 e0e0 407f     >.......".."...@
    f513:	007f 559f f515 5515 009f c0c4 00e0 e022     ...U...U......".
    f523:	407f 007f 92fe ff92 9292 00fe c2c4 aeaa     .@..............
    f533:	a0aa 80ff aaaf ffaa eaaa 80af 00ff eae2     ................
    f543:	aaae e0e2 92f2 9292 07f2 92f2 969a 00f2     ................
    f553:	4422 8480 2042 407f 107f 7f51 1092 10ff     "D..B .@..Q.....
    f563:	0053 8088 002e 202c fe00 a682 f2aa a6aa     S....., ........
    f573:	fe82 0000 0e2c 622a 6068 7814 5457 fd56     ....,.*bh`.xWTV.
    f583:	5454 7857 0014 aa02 8aaa 00ae 407f 017f     TTWx.........@..
    f593:	a17f a1bf 3fe1 0001 a288 0848 2042 407f     .....?....H.B .@
    f5a3:	007f 5555 d555 5555 0055 8088 22e2 e022     ..UUU.UUU...."".
    f5b3:	203f 003f 7a42 ca4a 7b4a 0042 c0c4 2e02     ? ?.BzJ.J{B.....
    f5c3:	0080 407f 007f a5ff 00fc 81ff 00ff 8088     ...@............
    f5d3:	84e4 00e0 407f 007f 88ff 00f7 a0bf 00ff     .....@..........
    f5e3:	c0c4 c0e4 e08a 407f 007f 6c22 27a4 4424     .......@.."l.'$D
    f5f3:	0020 c0c4 c8aa a0ca 407f 247f b669 3a22      ........@.$i.":
    f603:	4b2a 0028 8a88 442a 20a2 95f1 f595 9f95     *K(...*D. ......
    f613:	f595 9595 00f1 6a22 2222 2024 001f 007f     ......"j""$ ....
    f623:	001f 15df 15f5 00df c4c4 e0c0 e002 007f     ................
    f633:	00ff ff91 1092 11fe 0056 c4c4 022e 604c     ........V.....L`
    f643:	007f 00ff 007f a555 a5af 00d5 c4c4 44c0     ......U........D
    f653:	40e4 80ff a8ee aea9 a8a9 80ee 00ff aae2     .@..............
    f663:	2a22 e0a2 007f 00ff 247f a679 4a3a 003b     "*.......$y.:J;.
    f673:	c4c4 2aca 204a 80ff 80bf 24ff 242f 22ff     ...*J .....$/$."
    f683:	00a4 84a4 c4a2 40c2 80ff 809f 48ff 755f     .......@.....H_u
    f693:	55d5 005f 042c e020 e002 80ff 809f 24ff     .U_.,. ........$
    f6a3:	49d5 5549 0065 84a4 e2a0 e022 80ff 80bf     .IIUe.....".....
    f6b3:	00ff 447f 44df 0044 8424 8224 20e2 cf29     ...D.DD.$.$.. ).
    f6c3:	4949 1400 ff14 a928 006a 220e 4802 e084     II....(.j..".H..
    f6d3:	cf29 4949 ff20 2222 ff22 0020 220e 220e     ).II .""". .."."
    f6e3:	002e cf29 4949 0300 fe02 2222 0023 220e     ..).II....""#.."
    f6f3:	220e e022 cf29 0049 92fe ff92 9292 00fe     ."".).I.........
    f703:	200e 0e00 0000 cf29 0049 e414 ff24 2424     . ....).I...$.$$
    f713:	0024 200e c022 20c2 cf29 1049 4222 8a92     $.. ".. ).I."B..
    f723:	2342 0010 200e 8400 00a0 cf29 4949 0b00     B#... ....).II..
    f733:	82fa fa82 000b 220e 220e e022 44e5 447f     .......".""..D.D
    f743:	0045 ff42 7e42 0002 e2e2 c0e2 00c2 d520     E.B.B~........ .
    f753:	555d 5557 555d 405f 0000 4404 44e4 c0c2     ]UWU]U_@...D.D..
    f763:	5526 5fd5 5555 5056 405f 0001 442a 204a     &U._UUVP_@..*DJ 
    f773:	c0c2 2272 24ff 4b4a fa4a 4f4a 004a e000     ..r".$JKJ.JOJ...
    f783:	8200 002e 7109 ff21 2222 a2bf a2fc 00bf     .....q!.""......
    f793:	0e00 ea00 e0aa 4f88 2b00 4aca 4afa 4b4a     .......O.+.J.JJK
    f7a3:	0000 2a2c aaaa 20aa 5515 5f55 7f50 5f50     ..,*... .UU_P.P_
    f7b3:	9995 0013 4422 848e 2042 4949 897f 0089     ...."D..B II....
    f7c3:	e618 7e41 0040 22e2 24e0 2084 5350 92ff     ..A~@..".$. PS..
    f7d3:	0011 82ba 82ff 00ba e080 0000 00e0 5350     ..............PS
    f7e3:	92ff ff00 9292 ff92 0000 e080 222e 202e     .............". 
    f7f3:	5350 927f 7e00 4242 7e42 0000 e080 002c     PS...~BBB~....,.
    f803:	200c 5651 94ff 7e02 fe43 7e43 0002 e000     . QV...~C.C~....
    f813:	8024 2084 5350 92ff 6414 fe25 2425 0004     $.. PS...d%.%$..
    f823:	e080 8024 2084 5350 927f 0891 40f7 405f     ..$.. PS.....@_@
    f833:	0067 e080 8200 80e0 ff53 0092 0007 619f     g.......S......a
    f843:	7806 0003 080e e224 80e0 4f88 ac28 a4b7     .x....$....O(...
    f853:	a4fc abb6 0028 2a2c 2a22 20aa c820 4a6a     ....(.,*"*.  .jJ
    f863:	2f4a 55d5 5175 0041 8888 228e 6022 c921     J/.UuQA....""`!.
    f873:	4969 2f49 49c9 7149 0051 4422 8480 2042     iII/.IIqQ."D..B 
    f883:	d535 5575 355f 55d5 5f75 0044 4822 0000     5.uU_5.Uu_D."H..
    f893:	0000 3f08 00c0 5457 fd54 5454 0057 000e     ...?..WTT.TTW...
    f8a3:	48a2 a042 3f08 4bc0 fa4a 4a4a 4afa 004b     .HB..?.KJ.JJ.JK.
    f8b3:	0e0e aaaa e0aa 3f08 40c0 555f 55f5 5f55     .......?.@_U.UU_
    f8c3:	0040 020e 22e2 202e 3f08 54c0 6555 65c5     @....". .?.TUe.e
    f8d3:	5754 0054 000e 4cc4 002e 3f08 5fc8 4a6a     TWT....L...?._jJ
    f8e3:	4adf 5f6a 0008 080e ea88 60aa 3f08 3fc0     .Jj_.......`.?.?
    f8f3:	0908 a0bf a0ef 00bf 080e a480 a084 3f08     ...............?
    f903:	92c0 dfb2 92a2 007f 00ff 020e 442e e082     .............D..
    f913:	3f08 00c0 509f f417 5017 009f 000e c4e0     .?...P...P......
    f923:	e0c2 3f08 00c0 aaff aaaa ffaa 0000 0a0e     ...?............
    f933:	88c8 a08c 3f08 03c0 aafa aaaa faaa 0003     .....?..........
    f943:	0e0e aaaa e0aa 3f08 7fc0 b925 afa9 e9a9     .......?..%.....
    f953:	0021 0c0e 8024 2084 7b20 0282 ab22 faaa     !...$..  {.."...
    f963:	abaa 0020 242a 4448 202a 3f08 7fc0 4742     .. .*$HD* .?..BG
    f973:	c558 5f44 0044 2c0e 080e 002e 3f08 4bc0     X.D_D..,.....?.K
    f983:	5a6a 4aca 6a5a 004b 0e0e 2222 e022 3f08     jZ.JZjK..."""..?
    f993:	2cca 2aba 2aea 2cbb 000a 000e aaea 60a2     .,.*.*.,.......`
    f9a3:	3f08 4cc0 0077 5555 55ff 007d 0a0e 22c4     .?.Lw.UU.U}...."
    f9b3:	20a2 7f01 5555 55d5 5555 7f55 0001 4422     . ..UU.UUUU..."D
    f9c3:	8480 2042 7f01 55d5 027f 2628 ff20 0020     ..B ...U..(& . .
    f9d3:	8244 02e0 002e 7f01 d555 7f55 9e00 9292     D.......U.U.....
    f9e3:	00f3 4844 002e e022 7f00 5555 55d5 5555     ..DH.."...UU.UUU
    f9f3:	7f55 0000 0e24 622a 6060 3f08 00c0 a0ff     U...$.*b``.?....
    fa03:	a2ae a2af 00ee 060e e280 e0e2 cf22 0030     ............".0.
    fa13:	484b ff48 4949 0049 060e 4e84 2022 cf22     KHH.III....N" ".
    fa23:	0030 2a12 8f4a 2a4a 0012 000e 2e48 4008     0..*J.J*....H..@
    fa33:	ff00 aaaa 00be e514 f584 0016 8a2c 24e0     ............,..$
    fa43:	2084 7f04 7fd5 7f04 5f40 7f40 0000 0e2c     . ......@_@...,.
    fa53:	4802 e062 7f04 44d5 207f 884f 2f49 0010     .Hb....D. O.I/..
    fa63:	022c e2e0 6022 7f04 44d5 047f f20a fa82     ,..."`...D......
    fa73:	000b 022c 2ae0 204a 7f04 7fd5 4004 d05f     ..,..*J .....@_.
    fa83:	405f 0040 0e2c 8006 e0e2 4f88 2420 5455     _@@.,......O $UT
    fa93:	549f 2455 0020 2a2c a22a 202a 7a40 6a6a     .TU$ .,**.* @zjj
    faa3:	afaa 6aaa 7a6a 0040 8a88 88ae 8088 140c     ...jjz@.........
    fab3:	c527 1525 c52d 1427 000c c444 4444 40e4     '.%.-.'...D.DD.@
    fac3:	4a48 b5aa 161d abb2 4949 0000 8a88 a42a     HJ......II....*.
    fad3:	0048 6243 425a 5864 8242 e29a 0083 aaea     H.CbZBdXB.......
    fae3:	aaa2 e0aa 5458 5775 755d 5555 d4b5 0098     ....XTuW]uUU....
    faf3:	2a8a 4444 20a2 4555 9d6a 00a7 2320 ff2c     .*DD. UEj... #,.
    fb03:	0020 a244 82c0 002e 6a4a d954 10a7 48e0      .D.....JjT....H
    fb13:	4046 007f a244 00c0 e022 c734 c404 0037     F@..D...".4...7.
    fb23:	a0bf a0e7 00bf 0268 24e0 2084 e118 e00e     ......h..$. ....
    fb33:	0018 a0bf a0e7 00bf 2c6a a420 a084 2525     ........j, ...%%
    fb43:	b454 1057 a515 2454 0027 4222 22e0 e042     T.W...T$'."B."B.
    fb53:	92ff 00ff 5557 ff55 5555 005d e0e0 4822     ....WUU.UU]..."H
    fb63:	a042 92ff 00ff a07f a8af efa9 0020 e2e0     B........... ...
    fb73:	e2c0 6022 92ff ff92 fb00 4a4a 8a4a 00bb     .."`......JJJ...
    fb83:	2ee0 aa0e e0aa 92ff 20ff 4adf 4a44 405f     ......... .JDJ_@
    fb93:	007f e0e0 8888 e0a2 92ff ff92 2312 49d5     .............#.I
    fba3:	6355 0002 2ee0 220e 002e 92ff 00ff 447f     Uc.....".......D
    fbb3:	df44 4444 0040 e2e0 2ec2 2022 92ff 00ff     D.DD@....." ....
    fbc3:	6352 c854 6354 0052 e0e0 0068 000e 92ff     RcT.TcR...h.....
    fbd3:	00ff 5648 c041 5641 0048 e0e0 4822 2042     ..HVA.AVH..."HB 
    fbe3:	92ff 00ff 405f c659 4059 005f e0e0 a2e2     ...._@Y.Y@_.....
    fbf3:	e0a2 92ff 01ff 4371 f24c 4241 0074 e0e0     ......qCL.ABt...
    fc03:	240e 2084 4f88 1200 7fa4 8888 88ff 0088     .$. .O..........
    fc13:	2a2c aaa2 a0aa 2251 00df 92fe ff92 9292     ,*....Q"........
    fc23:	00fe c042 aeaa a0aa 44a2 00bf 547f 57d4     ..B......D...T.W
    fc33:	7d54 0002 c242 20e2 2084 407f 009f 92ff     T}..B.. . .@....
    fc43:	00fe 80ff 00ff c28a e0e4 80e8 4784 2800     .............G.(
    fc53:	6a28 57d2 6a52 0008 222c aeaa a0aa d27e     (j.WRj..,"....~.
    fc63:	7e42 7003 c14f 4442 0070 a244 e2e0 e022     B~.pO.BDp.D...".
    fc73:	fb08 928a 038a f28a 8b82 00f8 aa0e aaae     ................
    fc83:	00ae ab48 92aa 03e6 8afa abaa 00e8 aa2a     ..H...........*.
    fc93:	a8aa e0aa a262 ffa2 7f00 4f48 49f8 006e     ....b.....HO.In.
    fca3:	2e22 222c 20c2 4fe0 6040 ff88 1091 11fe     ".,". .O@`......
    fcb3:	00d6 200e 24ae 6048 4fe0 6040 6504 6c56     ... .$H`.O@`.eVl
    fcc3:	9754 00a4 200e a422 20a2 6380 5414 5b54     T.... ".. .c.TT[
    fcd3:	5df1 5455 001c 2a68 44a4 20a2 6180 5544     .]UT..h*.D. .aDU
    fce3:	5555 55ff 5f55 0045 022c 442a 20a2 5844     UU.UU_E.,.*D. DX
    fcf3:	4540 c178 7c44 5040 004c 0e2c a222 6068     @Ex.D|@PL.,.".h`
    fd03:	8901 1149 03f9 c929 5169 0061 4822 080e     ..I...).iQa."H..
    fd13:	2042 4985 fd11 1300 d424 7148 0000 4822     B .I....$.Hq.."H
    fd23:	842e 20c2 5f44 5555 d555 5555 5f55 0044     ... D_UUU.UUU_D.
    fd33:	6a44 0822 a04a 5c40 5555 fc56 5457 5c54     Dj".J.@\UUV.WTT\
    fd43:	0041 2e88 0824 204a 4447 5574 d555 5555     A...$.J GDtUU.UU
    fd53:	4474 0047 0ce0 4c44 e022 7440 d554 7556     tDG...DL".@tT.Vu
    fd63:	ff41 9880 00e7 ae88 0e80 0088 7f00 5150     A.............PQ
    fd73:	557d 55d7 517d 0050 0e68 e000 002e 6380     }U.U}QP.h......c
    fd83:	3f08 25e5 7f25 25a5 0025 0e68 2e22 2022     .?.%%..%%.h."." 
    fd93:	7f00 5944 4145 41df 5945 0044 2268 e222     ..DYEA.AEYD.h"".
    fda3:	2022 7f12 4940 4848 49cf 4949 0048 2e68     " ..@IHH.IIIH.h.
    fdb3:	e222 2022 7f12 5740 5554 55de 5454 0057     "." ..@WTU.UTTW.
    fdc3:	0e68 0080 e082 7f12 4540 4959 49cf 4949     h.......@EYI.III
    fdd3:	0041 2268 0848 2042 4a4a 526a d352 5252     A.h"H.B JJjRR.RR
    fde3:	4a6a 004a 8ee8 8e88 e08a 7f12 4444 524a     jJJ.........DDJR
    fdf3:	51e4 444a 0044 0068 a2aa 0048 7f12 4a40     .QJDD.h...H...@J
    fe03:	5a72 55d5 5a54 0042 0068 4244 00a0 7f12     rZ.UTZB.h.DB....
    fe13:	5f40 5352 7ed2 5352 0058 2c68 a422 20a2     @_RS.~RSX.h,".. 
    fe23:	5252 0d57 c535 0d35 5257 0052 e400 4444     RRW.5.5.WRR...DD
    fe33:	00e0 5248 56c1 0048 ee10 3e21 0020 8424     ..HR.VH...!> .$.
    fe43:	2420 2084 5d41 6d45 d557 6d55 5d45 0041      $. A]EmW.UmE]A.
    fe53:	4ce0 4844 e062 4848 526a d155 5452 4968     .LDHb.HHjRU.RThI
    fe63:	0048 c8aa 888e a0c2 7f00 5544 5555 55ff     H.........DUUU.U
    fe73:	5f55 0044 0e68 2222 002e 9494 05a7 cd2d     U_D.h.""......-.
    fe83:	6555 4c55 006c 222e 00a4 60e2 5388 2a0a     UeULl.."...`.S.*
    fe93:	53ca 5262 4b4a 0068 242a 4448 202a 23c0     .SbRJKh.*$HD* .#
    fea3:	5e40 5252 52d3 5e52 0040 4868 e002 4008     @^RR.RR^@.hH...@
    feb3:	232c 21e0 002e 0203 22fe 0023 2c2a e240     ,#.!....."#.*,@.
    fec3:	e022 7544 c54d 754d 0044 007f 00ff 220e     ".DuM.MuD......"
    fed3:	002e e0a2 5710 5575 d555 5555 5775 0010     .....WuUU.UUuW..
    fee3:	2422 e280 6022 7544 c54d 754d ff44 9880     "$.."`DuM.MuD...
    fef3:	00e7 220e 0e2e 0088 525a 7253 d652 7252     ..."....ZRSrR.Rr
    ff03:	5252 005a 8824 8888 e0aa 7f40 48c8 224f     RRZ.$.....@..HO"
    ff13:	70cf 4247 0044 2268 e0e0 200c 4b48 5a6a     .pGBD.h"... HKjZ
    ff23:	db5a 6a6a 534a 0048 aa0e aaae 00ae 409f     Z.jjJSH........@
    ff33:	b21e 9293 b293 809e 00ff 24e0 e280 e0e2     ...........$....
    ff43:	5444 d655 7d55 d557 5755 0055 2288 222e     DTU.U}W.UWU.."."
    ff53:	202e 4101 c949 7f49 c949 4149 0001 0424     . .AI.I.I.IA..$.
    ff63:	4220 2004 bf24 bf24 8024 92ff 9f90 0080      B. $.$.$.......
    ff73:	0e2c e402 204e 5512 75d9 d755 7555 55d9     ,...N .U.uU.Uu.U
    ff83:	0012 4444 446e 4044 0b68 0aff 0069 e714     ..DDnDD@h...i...
    ff93:	e404 0017 e0c0 4882 e002 0b68 0aff 0069     .......H..h...i.
    ffa3:	2448 ff01 0002 e080 8800 000e 2722 72aa     H$.........."'.r
    ffb3:	2223 7223 27aa 0022 222e e2e2 202e 5544     #"#r.'".."... DU
    ffc3:	d555 557f d57f 5f55 0044 4822 e8e0 2042     U..U..U_D."H..B 
    ffd3:	ff18 0210 5752 55fd 5535 0094 e0e0 0200     ....RW.U5U......
    ffe3:	002e 003c 02ff fe22 2222 22fe 0002 0c2c     ..<...".""."..,.
    fff3:	002c 00c2 0018 00ff 0018 a0bf a0ef 00bf     ,...............
   10003:	0c2c 2420 2084 0038 20ff 2501 55e5 5549     ,. $. 8.. .%.UIU
   10013:	0049 0e2c 002e 60c2 0038 08ff 223e ff22     I.,....`8...>"".
   10023:	2222 003e 0e2c 2e02 202c 0078 20ff 90ff     "">.,..., x.. ..
   10033:	bc93 9093 00ff 0c2c 22ea e02a 0078 20ff     ......,.."*.x.. 
   10043:	e312 4a56 6356 0002 0c2c 220e 002e 4f88     ..VJVc..,.."...O
   10053:	2e00 6baa 6a3f 3baa 0000 2a2c a2a2 20aa     ...k?j.;..,*... 
   10063:	4990 5500 5755 55fd 5755 0055 042c 0084     .I.UUW.UUWU.,...
   10073:	002e 4990 2200 24ff 7f00 4f48 0088 022c     ...I.".$..HO..,.
   10083:	68e0 000e 4990 5c00 f252 5257 53f2 005c     .h...I.\R.WR.S\.
   10093:	022c 8224 002e 4990 5f40 5555 55ff df55     ,.$....I@_UU.UU.
   100a3:	0040 0e2c e000 002e 4990 0000 929f 90fc     @.,......I......
   100b3:	92fe 009f 002c aaea e0aa 4990 0900 087a     ....,......I..z.
   100c3:	28ff 2b28 0008 022c a42a 0080 4990 9f00     .((+..,.*....I..
   100d3:	1555 f515 5515 009f 0e2c 0000 e022 4990     U....U..,..."..I
   100e3:	0700 95f4 959e f494 0007 0e2c 0080 e082     ..........,.....
   100f3:	4990 2000 4acb fa4a 4a4a 004b 002c 22e2     .I. .JJ.JJK.,.."
   10103:	e022 4990 ff12 5252 525f 5f52 0042 0c2c     "..I..RR_RR_B.,.
   10113:	c444 404e 4990 1200 4a2a 8f8a 2a4a 0012     D.N@.I..*J..J*..
   10123:	022c 2ec0 6008 4990 2200 9945 2121 4599     ,....`.I."E.!!.E
   10133:	0022 002c 22e2 002e 4990 6900 4959 5b69     ".,.."...I.iYIi[
   10143:	9d4d 00a9 002c 2e02 0000 4990 3f00 a161     M...,......I.?a.
   10153:	a1bf 3fe1 0001 2268 0848 2042 4990 1500     ...?..h"H.B .I..
   10163:	d525 4b49 6555 0005 022c 2e40 2004 4990     %.IKUe..,.@.. .I
   10173:	4800 584b 48eb 504b 0048 022c c0c0 e0e2     .HKX.HKPH.,.....
   10183:	4990 3f00 5292 921f 8092 00ff 0e2c c444     .I.?.R......,.D.
   10193:	e042 4990 3f00 5f80 9212 809f 00ff 0e2c     B..I.?._......,.
   101a3:	440c e0c2 4990 2e00 6aab 6a3f 3baa 0000     .D...I...j?j.;..
   101b3:	062c e080 004c 4990 7f00 5454 57d4 7d54     ,...L..I..TT.WT}
   101c3:	0002 2e2c 4024 2084 4990 0c00 abaa aaaa     ..,.$@. .I......
   101d3:	faab 000c 022c 8824 2042 4990 9e00 f392     ....,.$.B .I....
   101e3:	ff04 2714 00c4 022c 0e2e 6028 9524 0048     ...'..,...(`$.H.
   101f3:	b9a4 b8a4 a5e0 003c a222 4248 20a2 4990     ......<.".HB. .I
   10203:	9400 88a5 84f3 fc84 0000 2268 eae2 20aa     ..........h"... 
   10213:	4990 9f00 d595 b5bf d5d5 001f 0e2c e000     .I..........,...
   10223:	e002 003e 20ff 5458 f554 5456 0058 e000     ..>.. XTT.VTX...
   10233:	ae88 8088 003e 20ff a584 e5bd bda5 0084     ....>.. ........
   10243:	e000 220e 002e 007e 00ff 559f f515 5515     ..."..~....U...U
   10253:	009f e000 00e0 e002 007e 20ff aafa abaa     ........~.. ....
   10263:	aaaa 00fa e000 8e88 8088 003c 20ff 5fc2     ..........<.. ._
   10273:	5f52 5f52 0042 e000 4c0c 404e 003e 20ff     R_R_B....LN@>.. 
   10283:	509f b11e 909e 00ff e000 80e8 e08a 003e     .P............>.
   10293:	00ff 67bc 2424 bc67 0000 e000 002c e0e2     ...g$$g.....,...
   102a3:	4571 5555 ff55 5555 4555 0071 220e 2222     qEUUU.UUUEq.."""
   102b3:	002e 5770 7c54 d554 7c54 5754 0070 242a     ..pWT|T.T|TWp.*$
   102c3:	4448 202a 4570 5555 da5a 5755 4453 0070     HD* pEUUZ.UWSDp.
   102d3:	4404 2c8a 4008 4f70 5a6a fa4a 5a4a 4f6a     .D.,.@pOjZJ.JZjO
   102e3:	0070 880e 8888 00ae 4171 557d d557 5555     p.......qA}UW.UU
   102f3:	417d 0071 2c22 4444 20a2 4070 545f d454     }Aq.",DD. p@_TT.
   10303:	5454 4057 0070 c8aa 8888 a0ca 5468 6457     TTW@p.......hTWd
   10313:	c540 6547 5555 0069 c844 2200 c022 5160     @.GeUUi.D.."".`Q
   10323:	6c52 c547 5575 5555 0064 0000 44e4 0044     RlG.uUUUd....DD.
   10333:	5362 6555 c949 6549 5355 0062 220e 2222     bSUeI.IeUSb.."""
   10343:	002e 5262 565a f352 5652 525a 0062 8808     ..bRZVR.RVZRb...
   10353:	888e 0088 5272 5a52 d574 5a54 5252 0072     ....rRRZt.TZRRr.
   10363:	acaa 8c8e a0aa 5f90 0000 5744 fd55 5755     ......._..DWU.UW
   10373:	0044 402e 440e 004e 7f00 d454 7c55 ff00     D..@.DN...T.U|..
   10383:	9292 00ff 242e 2c86 e002 5f90 1100 5351     .....$.,..._..QS
   10393:	5af6 3252 0053 402e aa0e e0aa 5f90 0000     .ZR2S..@....._..
   103a3:	e948 5d4b e949 0049 402e e280 e022 5f90     H.K]I.I..@..".._
   103b3:	0000 555b f751 5151 0059 402e 4822 2042     ..[UQ.QQY..@"HB 
   103c3:	bf80 abaa abaa aaa8 aaab 00bb 4468 04ae     ............hD..
   103d3:	e04a 5f90 0000 2424 00ff 24ff 0024 402e     J.._..$$...$$..@
   103e3:	e088 80e8 cf42 0a74 4b48 ff48 4b48 0048     ....B.t.HKH.HKH.
   103f3:	000e 0e68 6008 cf42 0a74 223f ff22 2222     ..h..`B.t.?"".""
   10403:	003f 000e 2ee2 e022 cf42 0a74 df20 5252     ?.....".B.t. .RR
   10413:	415e 007f 000e 220e 6022 cf42 0a74 7f00     ^A.....""`B.t...
   10423:	494a 49f8 006e 000e 2468 2084 c741 017a     JI.In...h$. A.z.
   10433:	a424 3f64 a464 0024 000e 8e88 8088 5f90     $.d?d.$........_
   10443:	0000 aafa ffaa aaaa 00fa 402e 0e2c 200c     ...........@,.. 
   10453:	80e0 aabe abaa aaaa 80be 00e0 c8aa 8888     ................
   10463:	a0ca 5f90 1000 403f 25a5 25ff 0025 402e     ..._..?@.%.%%..@
   10473:	22e0 20e2 5f90 0000 88ff faab 88ab 00ff     .". ._..........
   10483:	402e c4e0 e0c2 9fe8 a9e9 afa9 a9a9 8fb9     .@..............
   10493:	00e0 2422 e280 60a2 5f90 0000 525e d352     .."$...`._..^RR.
   104a3:	5252 005e 402e 2e2c 200c 5f90 0000 7440     RR^..@,.. ._..@t
   104b3:	d554 7456 0040 402e ae88 8088 5f90 0000     T.Vt@..@....._..
   104c3:	4524 f308 2408 0045 402e 48a2 204a 5f90     $E...$E..@.HJ ._
   104d3:	0000 5f60 d555 5f55 0060 402e 222e 202e     ..`_U.U_`..@.". 
   104e3:	a9aa afa8 f9a8 000a 007f 00ff 2e24 2004     ............$.. 
   104f3:	e0a2 fe02 aaaa aca8 aaaa f9ae 0001 e260     ..............`.
   10503:	622a 6060 ff00 abaa aabe aaab aabe 00ea     *b``............
   10513:	2e68 0822 204a ff00 9595 959f 00f5 007f     h.".J ..........
   10523:	00ff e268 e022 e082 ff00 a0a0 adb7 bda5     ..h."...........
   10533:	ada5 00f7 0068 44e4 e044 959d 9494 00f7     ....h..DD.......
   10543:	959d 9494 00f7 8244 44e0 e082 88ff 00f7     ......D..D......
   10553:	5454 f15b 545d 005c 82e8 44aa 20a2 d531     TT[.]T\....D. 1.
   10563:	5555 f555 5555 d555 0031 4022 002e 2042     UUU.UUU.1."@..B 
   10573:	88ff 20f7 4ada 4a4f 404a 007f 80e8 c4c4     ... .JOJJ@......
   10583:	e0c2 88ff 00f7 e213 4044 4a4a 007b 80e8     ........D@JJ{...
   10593:	a2ea e0aa 88ff 00f7 6b48 ca5a 6b5a 0048     ........HkZ.ZkH.
   105a3:	80e8 220e 002e f827 3f20 f520 9795 9595     ..."..'. ? .....
   105b3:	00f5 c22a 4822 2042 fe20 3e21 ef00 aaaa     ..*."HB  .!>....
   105c3:	aaaa 00ef 8606 880e e08a 5a42 44ec 724d     ..........BZ.DMr
   105d3:	fe00 8282 00fe 0e2c a22a 6068 fd23 3e21     ......,.*.h`#.!>
   105e3:	ff88 1091 11fe 00d6 8806 24ae 6048 fe20     ...........$H` .
   105f3:	3e21 7f00 d454 7c57 0001 8606 242e 200c     !>..T.W|.....$. 
   10603:	4f88 9f00 d595 b5bf 9fd5 0000 2a2c a222     .O..........,*".
   10613:	202a 6a2f 2aaa 2f4a fb00 4949 009a 88e8     * /j.*J/..II....
   10623:	0eae 6022 83bc 10fc c03f 4949 49ff 0049     .."`....?.II.II.
   10633:	e0e0 22e0 20e2 a888 a89f 00cc a0bf a0ef     ...". ..........
   10643:	00bf e022 a400 a084 9d08 aada a1ad ada8     ..".............
   10653:	9ada 000d acaa 8c8e a0aa 5533 2299 ef00     ..........3U."..
   10663:	aaaa aaaa 00ef 2422 880e e0aa dd33 0011     ......"$....3...
   10673:	5a56 7e53 9b92 0094 4022 8224 e0aa 84bc     VZS~...."@$.....
   10683:	07fd 2a10 8a49 2849 0013 2e8a a202 20aa     ...*I.I(....... 
   10693:	dd33 0011 00ff 086b 08ff 006b 4022 22e2     3.....k...k."@."
   106a3:	20a2 bc84 8484 24f7 a679 4a3a 003b a288     . .....$y.:J;...
   106b3:	2aea 204a ff88 0088 2528 ff20 a520 0028     .*J ....(% . .(.
   106c3:	804c 2e48 4008 ff88 0088 60bf ef20 6020     L.H..@.....` . `
   106d3:	00bf 804c 48a2 a042 ff88 0088 92fe ff92     ..L..HB.........
   106e3:	9292 00fe 824c aeaa a0aa ff88 0088 584b     ....L.........KX
   106f3:	c86b 504b 0048 824c c0c0 e0e2 ff88 0088     k.KPH.L.........
   10703:	547f 57d4 7d54 0002 824c 40e2 2084 ff22     .T.WT}..L..@. ".
   10713:	0024 5655 f75d 565d 0055 002e 4e44 4044     $.UV].]VU...DND@
   10723:	ff10 0a10 4a4b 4afe 2b5a 0048 804c aaea     ....KJ.JZ+H.L...
   10733:	00ae ff22 4824 fa4b 4a4a 4bfa 0048 002e     ..".$HK.JJ.KH...
   10743:	aaea 00ae ff22 0024 e94f 4f49 e949 004f     ....".$.O.IOI.O.
   10753:	002e 2ee2 e022 ff10 4010 545c 405d 42ff     ...."....@\T]@.B
   10763:	00cc 804c 2488 c086 ff22 0024 5549 c565     ..L..$..".$.IUe.
   10773:	5565 0049 002e 2e24 2004 ff22 4824 6a5f     eUI...$.. ".$H_j
   10783:	4adf 5f6a 0048 002e ea88 60aa ff22 8824     .Jj_H......`".$.
   10793:	aaaa aaff beaa 0088 022e eac4 20aa ff22     ............. ".
   107a3:	0024 2424 00ff 24ff 0024 002e c08a 80e8     $.$$...$$.......
   107b3:	8f88 8aba fa8a aaaa aaaa 0088 8a2a 8a8a     ............*...
   107c3:	e08a ff22 0024 151f 55f5 5555 005f 042e     ..".$....UUU_...
   107d3:	4e44 4044 ff22 0024 bfa4 ffa4 bfa4 00a4     DND@".$.........
   107e3:	002e aeaa a0aa 480b f84f 4b4f e618 7e41     .......HO.OK..A~
   107f3:	0040 8286 24e0 2084 ff10 0810 e53f ff25     @....$. ....?.%.
   10803:	2525 0025 804c 2ee2 2022 ff22 1024 e53f     %%%.L..." ".$.?.
   10813:	3f25 25e5 0025 002e 2ee2 2022 ff10 0010     %?.%%....." ....
   10823:	557f 55d5 5555 0077 844c 4e44 4044 ff22     .U.UUUw.L.DND@".
   10833:	7f24 8f48 2188 41de 0060 682e 2c0e 200c     $.H..!.A`..h.,. 
   10843:	ff22 0024 7658 7455 b695 0018 002e 4822     ".$.XvUt......"H
   10853:	2042 ff22 1024 5424 9495 2655 0010 062e     B ".$.$T..U&....
   10863:	220e 6060 5252 5df4 d476 fe10 7e41 0040     ."``RR.]v...A~@.
   10873:	ae88 2488 2084 ff22 1024 5ae6 4a4f 404a     ...$. ".$..ZOJJ@
   10883:	007f 002e c4c4 e0c2 ff21 1f22 9272 8092     ........!.".r...
   10893:	f292 001f 0e2e 2222 e022 ff22 0024 525e     ......""".".$.^R
   108a3:	d352 5252 005e 002e 2e2c 200c ff22 0024     R.RR^...,.. ".$.
   108b3:	417f ff41 4949 0049 0e2e 220e e022 ff10     .AA.III....""...
   108c3:	4810 5a6b 4aca 6b5a 0048 804c 22e2 002e     .HkZ.JZkH.L.."..
   108d3:	ff22 0024 7a4a ce4b 7b4a 004a 002e 442a     ".$.JzK.J{J...*D
   108e3:	20c2 ff22 4824 7fc8 48c8 88ff 00f7 022e     . ".$H...H......
   108f3:	c2c0 00e8 ff22 0024 4564 c179 457d 006c     ....".$.dEy.}El.
   10903:	002e 2e22 2022 ff22 0024 8aca 87b2 8aba     .."." ".$.......
   10913:	00da 002e 8e24 2084 ff22 0024 a0ff a4a4     ....$.. ".$.....
   10923:	a4af 00e4 062e ea80 e0aa ff22 0024 a0ff     ..........".$...
   10933:	a2ae a2af 00ee 062e e280 e0e2 ff22 0024     ............".$.
   10943:	6c2a 3aaa 4c2a 002a 002e aa2a 20aa ff80     *l.:*L*...*.. ..
   10953:	ff92 fc00 8485 8584 00fc 4e4c 8006 6008     ..........LN...`
   10963:	fd44 5456 5554 5454 fd56 0044 aaa2 aaae     D.VTTUTTV.D.....
   10973:	a0a2 ff80 ffa4 2490 9754 2454 0017 8e88     .......$T.T$....
   10983:	0e00 8008 ff42 5352 ff52 2042 20ff 003f     ....B.RSR.B . ?.
   10993:	a20e 862a e082 92ff 80ff 417f 009f 80ff     ..*........A....
   109a3:	00ff e0c4 8024 80e8 fd85 a5a5 fdab 0181     ....$...........
   109b3:	99a5 00e5 a422 4444 20a2 5444 f555 7f57     ....".DD. DTU.W.
   109c3:	f555 4d5d 0054 e288 2222 002e 5545 f655     U.]MT...""..EUU.
   109d3:	7d55 f655 5555 0045 2a22 4a44 2022 f547     U}U.UUE."*DJ" G.
   109e3:	f55f 2047 ff20 2020 003f e444 c042 e022     _.G  .  ?.D.B.".
   109f3:	5710 f555 5f55 f555 5755 0010 442e 444c     .WU.U_U.UW...DLD
   10a03:	204e 4a4a ea4a 405f ea5f 4a4a 004a 8a44     N JJJ._@_.JJJ.D.
   10a13:	e8c0 8088 4a4f ef4a 4040 ea4f 4a4a 004f     ....OJJ.@@O.JJO.
   10a23:	4cc4 c802 e08a 5c40 f454 575d f55d 5d55     .L....@\T.]W].U]
   10a33:	0040 aa2a 4462 0080 5f40 f550 5755 f555     @.*.bD..@_P.UWU.
   10a43:	5f50 0040 260e a6ae 002e 5555 d955 7d53     P_@..&....UUU.S}
   10a53:	d951 5555 0055 2a22 4a44 2022 4d49 e94b     Q.UUU."*DJ" IMK.
   10a63:	4b4d e949 5553 0041 4822 080e 2042 7348     MKI.SUA."H..B Hs
   10a73:	f55d 5557 f555 5050 005f 2206 26e2 e002     ].WUU.PP_..".&..
   10a83:	7549 f153 5157 f553 5051 005f 8024 84e0     IuS.WQS.QP_.$...
   10a93:	e022 4a42 ee4a 5a4a ee4a 4a4a 0042 aa0e     ".BJJ.JZJ.JJB...
   10aa3:	aaaa 00ae 5244 e048 4a4c ef48 4a48 004c     ....DRH.LJH.HJL.
   10ab3:	002c 8e88 8088 4a54 ef40 4b4a fe4a 4b4a     ,.....TJ@.JKJ.JK
   10ac3:	004c 2c2c a422 20a2 505c f457 5f54 f454     L.,,".. \PW.T_T.
   10ad3:	5057 005c aa22 aaae 20a4 5158 f55d 5555     WP\.".... XQ].UU
   10ae3:	f555 515d 0058 220e 2222 002e 555f 55f5     U.]QX..""".._U.U
   10af3:	085f e414 4645 0040 e444 6a40 e022 4544     _...EF@.D.@j".DE
   10b03:	f555 7f55 f555 445f 0044 c222 424e 000e     U.U.U._DD.".NB..
   10b13:	505f eb54 4940 eb4d 4b59 004d 80e8 002c     _PT.@IM.YKM...,.
   10b23:	0000 4645 e54c 4046 e545 454f 0045 c4aa     ..EFL.F@E.OEE...
   10b33:	e220 e022 ff26 0224 222f 222f 21fe 00a6      .".&.$./"/".!..
   10b43:	020e e2c0 6048 2621 24ff 2621 24ff 2412     ....H`!&.$!&.$.$
   10b53:	0048 e080 e080 8024 6250 6cf4 0556 6454     H.....$.Pb.lV.Td
   10b63:	66f5 0050 2222 8844 0000 5149 51fd 014b     .fP.""D...IQ.QK.
   10b73:	5149 51fd 0049 a422 4444 20a2 ff26 0024     IQ.QI.".DD. &.$.
   10b83:	aabf ffaa aaaa 00be 000e 4a2a 2022 2621     ..........*J" !&
   10b93:	20ff a584 e5bd bda5 0084 e000 220e 002e     . ..........."..
   10ba3:	ff23 0022 559f f515 5515 009f 000e 00e0     #."..U...U......
   10bb3:	e022 2621 24ff df22 5f52 5f52 0042 e000     ".!&.$".R_R_B...
   10bc3:	4c0c 406e ff23 2022 482b 888b 2b48 0020     .Ln@#." +H..H+ .
   10bd3:	020e 2a2a 206a 2621 24ff 5b48 cb68 5348     ..**j !&.$H[h.HS
   10be3:	0048 e000 0c2c 200e ff26 0024 aa2e 3f6b     H...,.. &.$...k?
   10bf3:	aa6a 003b 000e 0e48 c004 2422 24ff 959f     j.;...H..."$.$..
   10c03:	bfd5 95d5 001f e000 0ee0 e002 ff26 0124     ............&.$.
   10c13:	7629 22a2 4b3a 0028 020e 442a 20a2 202d     )v.":K(...*D. - 
   10c23:	20ff 00ad fe10 3e21 0020 e082 2480 2084     . ....!> ....$. 
   10c33:	7c40 5557 55fd 55fd 7c57 0040 e200 2222     @|WU.U.UW|@...""
   10c43:	00e0 aabb abaa aaaa 00bb 007f 00ff aeea     ................
   10c53:	e0aa e0a2 ba80 aaaa aafa aafa baaa 0080     ................
   10c63:	c8aa 88ae a0ca a2bf a2fc 08bf 8f88 8988     ................
   10c73:	0008 aaea e2e2 202c a2bf a2fc 00bf 31ff     ......, .......1
   10c83:	310e 00ff aaea eae0 e02a ff00 8988 89bf     .1......*.......
   10c93:	bf88 a5a5 00bf 8068 8ee0 e022 7f00 4242     ......h..."...BB
   10ca3:	4a5f ff4a c340 004c c268 c2e0 c0c2 ff84     _JJ.@.L.h.......
   10cb3:	8f88 4908 fb49 4949 0008 4c0c 2e22 2022     ...II.II...L"." 
   10cc3:	ff84 8888 008f a0bf a0e7 00bf 440c a4c0     .............D..
   10cd3:	a084 5252 6b5b de4a 6a4a 5356 0052 0e88     ..RR[kJ.JjVSR...
   10ce3:	aaaa 00ae 4d42 43f1 4955 4971 4355 0040     ....BM.CUIqIUC@.
   10cf3:	222e e2e2 202e 4a55 4055 fc43 4043 4a55     ."... UJU@C.C@UJ
   10d03:	0055 4822 0800 2042 4c4c 5557 4ded 557d     U."H..B LLWU.M}U
   10d13:	64d7 004c c444 4444 40e4 5252 6b5a 4fd2     .dL.D.DD.@RRZk.O
   10d23:	6a5a 4aca 005a e288 a402 204a 7d02 5551     Zj.JZ.....J .}QU
   10d33:	415d 4bf1 db45 0046 222e e2e2 202e 80ff     ]A.KE.F.."... ..
   10d43:	a8bf eaab aaab aaab 00bb a2e6 eaea e0ea     ................
   10d53:	a2bc aaaa faa2 aaa2 a3aa 00bc aa0a aaaa     ................
   10d63:	00ae e45c 454f 2a2f ff2a aa2a 002f e088     ..\.OE/**.*./...
   10d73:	8ee8 e08a e45c 445f a1bf a1fe a1fe 00bf     ....\._D........
   10d83:	e888 00e0 e002 1f00 52f2 005e 909f 90f7     .........R^.....
   10d93:	009f 0068 a400 a084 3f00 2828 abfe abaa     ..h......?((....
   10da3:	a6aa 00b0 a668 2e2e a026 3f00 fe28 aaaa     ....h...&..?(...
   10db3:	0036 4924 0092 2c68 2a0e 60a2 c724 0a06     6.$I..h,.*.`$...
   10dc3:	ea2a 2217 c202 0022 aa0e eaaa 20aa a038     *..".."...... 8.
   10dd3:	2a6e eb2a 2a2a a06e 0038 aa2a aaae 20aa     n**.**n.8.*.... 
   10de3:	4170 55dd d755 5555 41dd 0070 000c 000e     pA.UU.UU.Ap.....
   10df3:	004c 92ff 00ff 80ff a4a4 a4bf 00a4 c0c4     L...............
   10e03:	aae2 a0aa aafa aaab faaa ff00 1008 0023     ..............#.
   10e13:	eae4 2aa2 a0aa ff00 abaa aaaa abaa faaa     ...*............
   10e23:	000a 2e68 0824 204a 92ff 04ff a464 bfa4     ..h.$.J ....d...
   10e33:	e4a4 003f c0c4 ae88 8088 92ff 00ff 2948     ..?...........H)
   10e43:	ff08 2908 0048 c0c4 0e68 6008 92ff ff92     ...)H...h..`....
   10e53:	ff00 9292 fe93 0000 4cc4 222e a084 ff02     .........L."....
   10e63:	aaaa aaaa aaaa ffaa 0002 e2a4 62aa a064     .............bd.
   10e73:	a5fd a5ff 00fd a888 a99f 00ce e422 0240     ............".@.
   10e83:	00e0 407f 217f 22ff 447f 44c4 007f 8288     ...@.!.".D.D....
   10e93:	e2e0 e022 407f 217f 22ff 4758 41c0 005e     .."..@.!."XG.A^.
   10ea3:	8288 2ae0 202a f90f afa9 a9a9 a9af 0ff9     ...** ..........
   10eb3:	0000 a422 4a44 2022 447f 007f df22 5f52     ..".DJ" .D..".R_
   10ec3:	5f52 0042 c0c4 4c0c 404e 447f 007f a37e     R_B....LN@.D..~.
   10ed3:	bea2 e2a3 003e c0c4 002c e0e2 407f 927f     ....>...,....@..
   10ee3:	a492 d9a4 8b8f 0090 8488 a248 80c0 407f     ..........H....@
   10ef3:	007f 2424 00ff 24ff 0024 c0c4 e088 80e8     ..$$...$$.......
   10f03:	90f3 929f 00f2 91ff 9191 009f e4e2 e240     ..............@.
   10f13:	2022 90f3 929f 00f2 003f 08ff 0008 e4e2     " ......?.......
   10f23:	e242 20e2 407f 007f ea2f ea2a aaaa 00af     B.. .@../.*.....
   10f33:	8088 88e8 e08a 90f7 f29f 4404 7f44 8484     ...........DD...
   10f43:	0004 e4e2 c022 20c2 447f 447f 227f 49d5     ....".. .D.D.".I
   10f53:	5549 0062 c4c4 e2c0 002e 223e 22ff 003e     IUb.......>".">.
   10f63:	487f 8f48 0088 e422 e2c2 202e 223e 22ff     .HH...".... >"."
   10f73:	003e a222 227f 0022 e222 22e0 20e2 223e     >."..""."..". >"
   10f83:	22ff 003e 4f70 42c1 0074 e222 0ec2 e022     .">.pO.Bt."...".
   10f93:	407f 007f 283f fe28 aaaa 00b6 8688 c882     .@..?((.........
   10fa3:	60e2 fa00 adaa faa9 acaa f9a8 0000 c8aa     .`..............
   10fb3:	888e a0c2 abea 0aea aaea 00ea 88ff 00f7     ................
   10fc3:	aa08 00ae 80e8 407f 007f fa03 aaaa faaa     .......@........
   10fd3:	0003 c0c4 aaea e0aa 7700 5555 ff55 5555     .........wUUU.UU
   10fe3:	7755 0000 0624 622a 4068 407f 007f 92f1     Uw..$.*bh@.@....
   10ff3:	94fd 96f5 00f0 8288 4822 0000 407f 007f     ........"H...@..
   11003:	5f54 7f54 9f54 0094 c0c4 aeaa a0aa 407f     T_T.T..........@
   11013:	087f e53f 2525 a57f 0025 8088 22e2 20e2     ..?.%%..%....". 
   11023:	407f 007f 557c 7cd6 5455 007c c0c4 8888     .@..|U.|UT|.....
   11033:	80e8 407f 007f 3515 9f55 3555 0015 8088     ...@...5U.U5....
   11043:	22e2 e022 407f 107f 5455 ff54 7c54 0011     .""..@..UTT.T|..
   11053:	8288 8ec4 e084 ff00 2a22 2a2a 2aff 2a2a     ........"***.***
   11063:	00e2 2a68 eaaa 20aa 007f 00ff 047f 554d     ..h*... ......MU
   11073:	54e5 004f c4c4 c4c0 e0c2 2d6b 293b e029     .TO.......k-;)).
   11083:	292f 2929 0069 e444 c042 000e 4f88 e200     /)))i.D.B....O..
   11093:	faa4 eaa9 e0ac 0000 222c 22aa 2022 2f64     ........,"."" d/
   110a3:	2a30 ea2a 2a3f 2a2a 006a 0a0e eaaa a0aa     0**.?***j.......
   110b3:	203f 20ff 103f 25ff 7f25 00a5 e880 e280     ? . ?..%%.......
   110c3:	202e 55df 5555 c05f 555f 5555 00df 02e0     . .UUU_._UUU....
   110d3:	e0e0 e002 51dd 5555 f555 5555 5155 00dd     .....QUUU.UUUQ..
   110e3:	4022 002e 2042 007f 00ff a0ff a2ae a2af     "@..B ..........
   110f3:	00ee c6c4 e2c0 e0e2 92ea 93a2 06ea 92ea     ................
   11103:	92a3 00ea a422 4a44 2022 80ff efaa eab8     ....".DJ" ......
   11113:	edba 80aa 00ff 2ae2 aaaa e022 cf29 4949     .......*..".).II
   11123:	5100 f752 325a 0052 220e 0a00 e0aa cf29     .QR.Z2R.."....).
   11133:	4949 4900 0929 29f9 004f 220e 2202 e022     II.I)..)O.."."".
   11143:	cf29 4949 f300 9292 9292 00f3 220e 220e     ).II........."."
   11153:	e022 cf29 0049 80ff a8af 80af 00ff 200e     ".).I.......... 
   11163:	88e0 e082 cf29 4949 1100 d623 524a 0063     ....).II..#.JRc.
   11173:	220e e200 e022 cf29 0049 684f c858 6858     ."..".).I.OhX.Xh
   11183:	0048 200e 00e0 0000 cf29 4949 ff00 a7a4     H.. ....).II....
   11193:	fda4 0002 220e 240e 2084 44f4 447f 5402     .....".$. .D.D.T
   111a3:	705f 9f90 0094 0c2c e020 000e 4949 897f     _p....,. ...II..
   111b3:	2089 22ff ff22 0020 22e2 e2e0 002e ff53     . ."". .."....S.
   111c3:	0092 4a4b fa4a 4a4a 004b 000e 22e2 e022     ..KJJ.JJK...."".
   111d3:	b925 fda1 b3a1 0129 0571 00fd 4844 080e     %.....).q...DH..
   111e3:	4044 ab24 fdb1 abb1 7921 0501 00fc 44c4     D@$.....!y.....D
   111f3:	444e 4044 7f49 0889 24e2 f92a 2928 00ee     NDD@I....$*.()..
   11203:	080e 2422 0080 5651 94ff 2412 4ad5 6252     .."$..QV...$.JRb
   11213:	0003 e000 2a0a 0048 c424 4665 2f44 46c4     .....*H.$.eFD/.F
   11223:	4465 0044 0488 444e 8008 c424 5f64 2744     eDD...ND..$.d_D'
   11233:	44c4 456d 0044 c022 aa4e 6022 cf20 4969     .DmED.".N."` .iI
   11243:	3f49 49c9 4f69 0040 220e 222e 002e cd22     I?.IiO@.."."..".
   11253:	6545 2f45 45c5 4565 0040 2222 222e 2022     EeE/.EeE@.""."" 
   11263:	c721 6458 2445 44c4 446f 0044 000e 2208     !.XdE$.DoDD...."
   11273:	00e0 d730 5575 3f55 55d5 5d75 0041 4822     ..0.uUU?.Uu]A."H
   11283:	000e c044 df22 5f52 5f52 1802 21e6 003e     ..D.".R_R_...!>.
   11293:	4c0c 406e 6068 3f08 23c0 23fe ee10 3e21     .Ln@h`.?.#.#..!>
   112a3:	0020 0e0e 242e 2084 2212 837a 4642 e243      ....$. ."z.BFC.
   112b3:	ca52 005b e28a 0822 204a 3d10 3dc0 2500     R.[...".J .=.=.%
   112c3:	48f4 7548 0044 0e48 a222 c060 3f08 00c0     .HHuD.H.".`..?..
   112d3:	62b2 ea2b 622a 00b2 000e a226 202c 3f08     .b+.*b....&., .?
   112e3:	00c0 aafb ffaa aaaa 00fb 000e 4ce0 e04a     .............LJ.
   112f3:	3f08 02c0 aafb faab aaaa 00fb 000e 28e2     .?.............(
   11303:	204a 3f08 17c0 5525 9097 2053 0017 0e0e     J .?..%U..S ....
   11313:	e044 e082 2010 827e c824 7e42 4840 0066     D.... ~.$.B~@Hf.
   11323:	0e2c 622a 6068 2110 817d 5555 fd55 5555     ,.*bh`.!}.UUU.UU
   11333:	0055 220e 2222 e022 3f08 00c0 7546 d555     U..""""..?..FuU.
   11343:	7555 0046 000e 2e02 0000 3f08 bfc0 aaab     UuF........?....
   11353:	aaab aaab 00bb 480e c8e8 e0ca 7f01 55d5     .......H.......U
   11363:	027f 80ff 8eb1 00b1 8244 e2e0 a0a2 447c     ........D.....|D
   11373:	7d80 d454 7d54 4400 007c 4822 0e00 e022     .}T.T}.D|."H..".
   11383:	3f08 00c0 92ff 00f2 9495 00f7 000e 80e8     .?..............
   11393:	202c 7f00 ffc0 7f40 64a4 643f 00a4 2e2e     , ....@..d?d....
   113a3:	a82e 80e8 c721 2418 ff24 0000 24ff 0024     ....!..$$....$$.
   113b3:	080e 00ac 80e8 c721 0018 7b08 ff08 4949     ......!....{..II
   113c3:	0049 020e 4e48 2022 cf22 0230 aafa aaaa     I...HN" ".0.....
   113d3:	faab 0002 080e 8ac8 80e8 cf22 2000 5fd2     ..........".. ._
   113e3:	0052 9f90 0090 000e 200e 002e 0a08 487c     R........ ....|H
   113f3:	ec48 485a 7e4a 0008 aa2e eaea 20ae 7f04     H.ZHJ~....... ..
   11403:	44d5 047f 623f 22a2 003f 022c e2e0 e022     .D..?b."?.,...".
   11413:	7f04 44d5 087f 82f3 f382 0008 022c e2e0     ...D........,...
   11423:	002e 7f04 44d5 407f c25f 4442 0074 0268     .....D.@_.BDt.h.
   11433:	e2e0 6022 5425 549f 0025 2448 ff01 0002     .."`%T.T%.H$....
   11443:	e082 8880 000e 2e20 6a4a aaaa 6aaa 2e4a     ...... .Jj...jJ.
   11453:	0020 aa2e eaea 20ae 4a23 4a8a 0023 d27e      ...... #J.J#.~.
   11463:	7a4a 0003 22e2 88e0 e0a2 2112 9254 2651     Jz...".....!T.Q&
   11473:	de20 7e41 0040 2422 2444 2084 5212 5874      .A~@."$D$. .RtX
   11483:	7e51 5850 92b4 0012 0e2c 222a 6068 c523     Q~PX....,.*"h`#.
   11493:	c519 0023 41f8 415e 0078 22e2 68e0 6008     ..#..A^Ax..".h.`
   114a3:	85a4 85af 00a4 2222 4444 0088 e080 2280     ......""DD....."
   114b3:	8044 2212 8a52 2243 a0bf a0ef 00bf 4a08     D.."R.C".......J
   114c3:	a400 a084 92ff 00ff fe25 0025 80ff 00ff     ........%.%.....
   114d3:	e0e0 c0c4 80e8 92ff ff92 5900 f555 5557     ...........YU.WU
   114e3:	0059 2ee0 2200 00e0 92ff 00ff 555f ff55     Y...."......_UU.
   114f3:	d555 005f e0e0 0ee0 e002 92ff 00ff a4a4     U._.............
   11503:	dfa9 8986 0090 e0e0 2c8a 4008 92ff ff92     .........,.@....
   11513:	1100 4a28 4889 1629 2ee0 a202 4422 92ff     ..(J.H)....."D..
   11523:	ff92 bc00 2467 6427 00bc 2ee0 c002 e0e2     ....g$'d........
   11533:	7a22 aaaa bdad a9aa 3ae9 0004 aaaa ac46     "z.......:....F.
   11543:	4008 e611 2021 123f d924 6256 0003 a288     .@..! ?.$.Vb....
   11553:	a2e0 00c8 4f88 7c00 a7a4 a7bc 3de4 0000     .....O.|.....=..
   11563:	2a2c 2aa2 20aa 44a2 00bf 5754 ff54 5754     ,*.*. .D..TWT.TW
   11573:	0054 c042 880e 00ae 44a2 00bf 4f0a fa4a     T.B......D...OJ.
   11583:	6a5a 008b c042 aa0e e0aa 44a2 00bf fa4b     Zj..B......D..K.
   11593:	4a4a fa4a 004b c042 aaea e0aa 44a2 00bf     JJJ.K.B......D..
   115a3:	e94f 4f49 e949 004f c042 2ee2 e022 ff00     O.IOI.O.B..."...
   115b3:	be80 aaeb 80be 00ff 0000 2a68 a2ea c0c2     ..........h*....
   115c3:	44a2 00bf fa03 aaaa faaa 0003 c042 aaea     .D..........B...
   115d3:	e0aa 44a2 00bf 9111 bd95 91d1 0011 c242     ...D..........B.
   115e3:	e2e2 e0e2 d524 95a9 05e5 25c5 a995 00c4     ....$......%....
   115f3:	4022 002e 2042 4fe0 0060 e213 4044 4a48     "@..B .O`...D@HJ
   11603:	0073 200e a2ea e0aa 4fe0 6040 6000 d55f     s.. .....O@`.`_.
   11613:	5d55 0061 220e e200 e022 6380 5500 5c56     U]a..".."..c.UV\
   11623:	57f4 565c 0055 0a68 caaa a0aa 6380 3f00     .W\VU.h......c.?
   11633:	2a2a fe2b ae21 0020 2c68 c244 c0c2 7559     **+.!. .h,D...Yu
   11643:	5555 da57 525a 7252 0058 4444 aaea 60aa     UUW.ZRRrX.DD...`
   11653:	7444 5454 d554 5655 7456 0040 0424 42a8     DtTTT.UVVt@.$..B
   11663:	2004 7f00 4840 c95f 4949 5f49 0048 2468     . ..@H_.III_H.h$
   11673:	0406 2024 7f00 4b40 4b5f 4bc0 4b5f 0040     ..$ ..@K_K.K_K@.
   11683:	8068 80e0 80e0 7f00 5452 755f 55df 545f     h.......RT_u.U_T
   11693:	0052 0068 e200 6022 7f12 4444 524a 52d3     R.h..."`..DDJR.R
   116a3:	444a 0044 2a68 eaaa 20aa 7f12 4a40 4a5a     JDD.h*... ..@JZJ
   116b3:	4acf 4a5a 0040 0868 e888 0088 7f12 5f40     .JZJ@.h.......@_
   116c3:	5555 55d5 5f55 0040 2e68 0824 a04a 7f00     UU.UU_@.h.$.J...
   116d3:	5f40 5575 40df 525f 005d 2e68 2024 c0e4     @_uU.@_R].h.$ ..
   116e3:	7f00 5544 5555 55ff 5f55 0044 2a68 e042     ..DUUU.UU_D.h*B.
   116f3:	204a 7f00 5754 d555 557f 7f55 0050 0e68     J ..TWU..UU.P.h.
   11703:	e444 004e 7f00 5554 d47c 7d54 5454 005d     D.N...TU|.T}TT].
   11713:	2e68 0eaa 60aa 4984 0111 c525 7149 4549     h....`.I..%.IqIE
   11723:	0064 222e e2e2 202e 5f10 7555 d555 7555     d.."... ._UuU.Uu
   11733:	5f55 0010 4444 444e 4044 5f10 7555 d555     U_..DDNDD@._UuU.
   11743:	7555 5f55 0010 4822 e200 6022 494f 5d6a     UuU_.."H.."`OIj]
   11753:	c949 5f49 4a6a 004f 0ce0 4c44 e002 7f40     I.I_jJO...DL..@.
   11763:	4fc8 2540 49d9 494f 0049 2e68 2400 2084     .O@%.IOII.h..$. 
   11773:	7f40 4fc8 2040 48cb 494f 004d 2e68 8406     @..O@ .HOIM.h...
   11783:	20e2 7a42 4aca 074a aafa aaaa 00fe aa2a     . Bz.JJ.......*.
   11793:	aaae 20aa 5241 4248 eb56 4256 5248 0041     ... ARHBV.VBHRA.
   117a3:	8888 888e 8088 409f 950f a0e5 bda5 8087     .......@........
   117b3:	00ff c4e0 4440 e0e2 409f d51f 9fb5 d5b5     ....@D...@......
   117c3:	809f 00ff 44e0 444e e042 5444 d557 7d55     .....DNDB.DTW.U}
   117d3:	d555 5755 0044 e248 2222 002e a424 a43f     U.UWD.H.""..$.?.
   117e3:	2400 9754 5494 0027 c88a 0e00 c004 5544     .$T..T'.......DU
   117f3:	d555 7d55 d555 5555 0044 222e e2e2 202e     U.U}U.UUD.."... 
   11803:	2a09 ba6f ea2a ba2a 2a6f 0009 ea00 aaaa     .*o.*.*.o*......
   11813:	00e0 0b68 0aff 0069 0407 24fc 0027 e0c0     ..h...i....$'...
   11823:	e280 e022 0b68 0aff 0069 92ff ff92 0000     ..".h...i.......
   11833:	e0c0 e282 202e 0b68 0aff 0069 4758 40c0     ..... h...i.XG.@
   11843:	005f e0c0 2a80 202e 24ff ff15 2415 487f     _....*. .$...$.H
   11853:	8f48 0088 2eea c02a 000e 505e d458 5e52     H.....*...^PX.R^
   11863:	dc40 4240 005e aaaa 8ac8 e0aa 7e02 d252     @.@B^........~R.
   11873:	7e52 d252 7e52 0002 aa0e aaaa 00ae 0038     R~R.R~........8.
   11883:	08ff fa00 aaaa aaab 00fa 0c2c 8828 80e8     ..........,.(...
   11893:	ff18 3f10 a161 a1bf 3fe1 0001 6268 0848     ...?a....?..hbH.
   118a3:	2042 4990 5704 5555 55fd 5755 0004 0e2c     B .I.WUU.UUW..,.
   118b3:	4444 004e 4990 5200 5855 5073 9499 0012     DDN..I.RUXsP....
   118c3:	042c e082 c0c0 4990 4000 407f 7e00 4ad2     ,......I.@.@.~.J
   118d3:	007b 0468 08c8 e0a2 4990 2621 24ff 2621     {.h......I!&.$!&
   118e3:	26ff 0021 002c 00e0 00e0 4990 ff00 9484     .&!.,......I....
   118f3:	bd94 9494 0084 2c2c ae2a 20aa 4990 4800     ......,,*.. .I.H
   11903:	6a5f 4adf 5f6a 0048 002c ea88 60aa 54a2     _j.Jj_H.,....`.T
   11913:	fe00 abaa aaaa baaa 0082 acaa 8e8e a0aa     ................
   11923:	4990 342c 25ef 7f25 8f48 0088 882c 68e0     .I,4.%%.H...,..h
   11933:	000e 4990 0504 24ff bc05 fc83 0000 022c     ...I...$......,.
   11943:	2ce0 200c 4890 0025 509f f417 5017 009f     .,. .H%..P...P..
   11953:	8024 c4e0 e0c2 4990 fb00 a9a9 aba8 f9a9     $......I........
   11963:	0002 2e2c 0e24 6022 4990 0800 e53f 2525     ..,.$."`.I..?.%%
   11973:	a57f 0025 002c 22e2 20e2 4990 2900 aeab     ..%.,..". .I.)..
   11983:	4a5a abaa 0028 002c 88e8 00ae 4990 0000     ZJ..(.,......I..
   11993:	24ff 7f15 2415 00ff 0e2c 0c08 e008 4990     .$...$..,......I
   119a3:	6501 4555 4977 a999 0001 022c e222 0022     .eUEwI....,.".".
   119b3:	4990 1000 d43f 5f54 1474 001f 022c aaaa     .I..?.T_t...,...
   119c3:	a0aa 4990 2400 4ada 4a4f 404a 007f 002c     ...I.$.JOJJ@..,.
   119d3:	c4c4 e0e2 4990 4000 5474 55d4 7456 0040     .....I.@tT.UVt@.
   119e3:	082c ae88 8088 4990 4200 714f 79c6 5354     ,......I.BOq.yTS
   119f3:	005c 002c 24e0 2084 4990 3f20 27e4 3028     \.,..$. .I ?.'(0
   11a03:	32c4 0008 2c2c 082e 0042 4990 0000 498a     .2..,,..B..I...I
   11a13:	e710 4910 008a 002c 4822 2042 4990 0000     ...I..,."HB .I..
   11a23:	486b cf48 4949 0069 062c 2e84 2022 4990     kHH.IIi.,..." .I
   11a33:	ca02 b28b 8287 8abb 00da 242c e080 2084     ..........,$... 
   11a43:	4990 ff00 9f94 07f4 007f 00ff 6868 4c0e     .I..........hh.L
   11a53:	e002 4990 8f00 9580 9ff2 8582 008f 0e2c     ...I..........,.
   11a63:	6a22 e022 9523 0541 5379 f55b 5b55 0063     "j".#.A.yS[.U[c.
   11a73:	2a22 4444 20a2 a523 0189 8bb5 85f1 fd85     "*DD. #.........
   11a83:	0011 4844 080e 4044 4990 2a00 ac6a 2939     ..DH..D@.I.*j.9)
   11a93:	ca2c 002a 002c 24aa 0048 003e 10ff 5744     ,.*.,..$H.>...DW
   11aa3:	fd55 5755 0044 e000 440e 004e 003e 28ff     U.UWD....DN.>..(
   11ab3:	fa4b 4a4a 4bfa 0008 e000 aaea 00ae 003c     K.JJ.K........<.
   11ac3:	00ff 744c 44cf 487f 008f e000 e888 e0e0     ..Lt.D.H........
   11ad3:	003e 20ff 1f00 f515 5555 005f e000 4e44     >.. ....UU_...DN
   11ae3:	4044 007e 20ff ff00 aaaa ffaa 0000 e000     D@~.. ..........
   11af3:	88ac a08c 003c 21ff fa06 aaab faab 0003     ....<..!........
   11b03:	e200 2448 e082 003e 20ff 3f08 25e5 a57f     ..H$..>.. .?.%..
   11b13:	0025 e000 220e 20e2 ff1c 0010 525e d352     %....". ....^RR.
   11b23:	5252 005e 000e 2ec0 c000 ff18 0010 417f     RR^............A
   11b33:	ff41 4949 0049 0e0e 220e e022 003e 20ff     A.III...."".>.. 
   11b43:	5945 c345 5945 0045 e000 0e00 0000 ff1c     EYE.EYE.........
   11b53:	6110 495e 40cf 494f 006f 000e 002c 60e2     .a^I.@OIo...,..`
   11b63:	003e 08ff 6c2a 2cba 4c29 002a e000 aa0a     >...*l.,)L*.....
   11b73:	0024 003c 00ff fa23 fbaa faaa 0023 e000     $.<...#.....#...
   11b83:	48a2 a042 5764 5754 c044 7c45 5655 0060     .HB.dWTWD.E|UV`.
   11b93:	0e2c 6a22 e062 5760 5555 df55 5555 5755     ,."jb.`WUUU.UUUW
   11ba3:	0060 442e 444c 204e 4571 5555 f159 5559     `..DLDN qEUUY.YU
   11bb3:	4155 0071 440c c244 002e 4262 4a5f c04a     UAq..DD...bB_JJ.
   11bc3:	494a 4948 006e e0c2 24c0 2084 4761 4058     JIHIn....$. aGX@
   11bd3:	ca4b 4a4e 4b4a 0060 000e aaea 00ae 4a68     K.NJJK`.......hJ
   11be3:	5e5a cb6a 5a6a 4a5c 0068 aa2a aaae 20aa     Z^j.jZ\Jh.*.... 
   11bf3:	4b69 655d c745 6545 4d55 0069 2206 222e     iK]eE.EeUMi.."."
   11c03:	0026 526a 5e44 ca6a 6252 5046 0068 220e     &.jRD^j.RbFPh.."
   11c13:	222e 002e 5f90 0000 fd41 5755 fd55 0041     ."..._..A.UWU.A.
   11c23:	402e 0e2c 200c 5f90 4100 45fd 57f5 f555     .@,.. ._.A.E.WU.
   11c33:	0045 402e 0e2c 200c 5f90 4800 ea4e 5a4a     E..@,.. ._.HN.JZ
   11c43:	ea4a 0048 422e e0c0 60e2 5f90 0000 4afb     J.H..B...`._...J
   11c53:	0652 4afa 0053 402e aaea e0aa cf42 0a74     R..JS..@....B.t.
   11c63:	3f10 11d0 11fe 00d0 000e 2c0e 200c cf42     .?.........,. B.
   11c73:	0074 5755 55fd 5755 0055 000e 4048 002e     t.UW.UUWU...H@..
   11c83:	cf42 0274 f407 9e95 f495 0007 000e 00e8     B.t.............
   11c93:	e00a 5f90 0000 aff8 faaa afaa 00f8 402e     ..._...........@
   11ca3:	880e 00ae 5f90 0000 684f c959 6a5a 0048     ....._..OhY.ZjH.
   11cb3:	422e 22c0 4024 5f90 2400 0017 08eb 08ff     .B."$@._.$......
   11cc3:	00eb 422e a2c2 a0a2 4f88 5610 5455 54ff     ...B.....O.VUT.T
   11cd3:	7e55 0010 aa2c e226 a02a bfa0 aaea a0bf     U~..,.&.*.......
   11ce3:	fe10 3e21 0020 884c 06e0 0086 aaff abaa     ..!> .L.........
   11cf3:	eaaa 2720 ff20 0020 0eec 020c 002e ff00     .. ' . .........
   11d03:	a2a0 abaa aabe a7aa 00ea 0868 aa8e 00ae     ..........h.....
   11d13:	929e 00f3 aa3e 3f6a aa6a 003e e022 8e88     ....>.j?j.>."...
   11d23:	8088 88ff 08f7 e557 5d55 5755 0044 80e8     ......W.U]UWD...
   11d33:	44e4 004e 80fe dca4 5108 d47e 5454 005e     .DN......Q~.TT^.
   11d43:	aa2a aaae 20aa 88ff 00f7 0fc8 7f50 55d5     *.... ......P..U
   11d53:	005f 80e8 2a2c a022 b388 9292 ff8a aaaa     _...,*".........
   11d63:	8baa 00c8 aa2a aaae 20ac 88ff 00f7 aafb     ....*.... ......
   11d73:	ffaa aaaa 00fb 80e8 4ce0 e04a 88ff 00f7     .........LJ.....
   11d83:	ce29 97aa caaa 000a 80e8 ae2a 20aa 88ff     ).........*.. ..
   11d93:	00f7 aa6a aaaa eaaa 003e 82e4 2a4e 6062     ..j.....>...N*b`
   11da3:	fe20 3e21 ff04 a2aa a7fa 0028 8606 aa0e      .!>......(.....
   11db3:	00ae f827 3f20 5f60 ff54 5f54 0060 c22a     ..'. ?`_T.T_`.*.
   11dc3:	8e28 0088 e13e 613e 495e 40cf 494f 006f     (...>.>a^I.@OIo.
   11dd3:	6068 002c 60e2 7f00 f849 404f a0bf a0ef     h`,..`..I.O@....
   11de3:	00bf 2c68 a420 a084 9494 d4a7 0094 a0bf     ..h, ...........
   11df3:	a0ef 00bf e422 a440 a084 dd33 0011 5457     ....".@...3...WT
   11e03:	fd54 5454 0057 4022 48a2 a042 dd33 0a11     T.TTW."@.HB.3...
   11e13:	4a4b 4afe 2a5a 004b 4022 aaea e0aa dd33     KJ.JZ*K."@....3.
   11e23:	0011 5b55 ff55 5151 0059 4022 8024 2084     ..U[U.QQY."@$.. 
   11e33:	84bc 07fd 5b48 cb6a 5f68 0048 2e8a 8808     ....H[j.h_H.....
   11e43:	002e dd33 0011 151f f515 5555 005f 4022     ..3.......UU_."@
   11e53:	4e44 4044 dd33 0011 aaef bfaa aaaa 00ef     DND@3...........
   11e63:	4022 8e88 60aa 5533 2299 ff20 4949 49ff     "@...`3U." .II.I
   11e73:	0049 2422 220e 20e2 dd33 0011 557d d755     I."$.". 3...}UU.
   11e83:	5555 007d 4022 0ee0 e002 dd33 0011 92ff     UU}."@....3.....
   11e93:	00ff 92ff 00ff 4022 e0e0 e0e0 dd33 0011     ......"@....3...
   11ea3:	80ff faab 80ab 00ff 4022 88e0 e082 dd33     ........"@....3.
   11eb3:	0011 4272 d352 4252 0072 4022 2e48 4008     ..rBR.RBr."@H..@
   11ec3:	dd33 0011 4869 cf48 4949 0068 4222 2ec2     3...iHH.IIh."B..
   11ed3:	2022 dd33 0c11 a9aa a9af fcaa 0008 4422     " 3..........."D
   11ee3:	e082 4084 5533 0099 92aa 00eb 92aa 00eb     ...@3U..........
   11ef3:	2022 a0a4 a0a4 5f01 15b5 bf55 5515 1fb5     " ....._..U..U..
   11f03:	0001 4822 080e 2042 a9a9 aaf9 04aa aaaa     .."H..B ........
   11f13:	a9f9 00a9 8800 ac88 0080 ff88 2188 ff26     .............!&.
   11f23:	2624 26ff 0021 804c 000e 00e0 ff88 0088     $&.&!.L.........
   11f33:	9292 a9a4 8bdf 0090 844c a248 80c0 ff88     ........L.H.....
   11f43:	0088 525e d352 5252 005e 804c 2e48 4008     ..^RR.RR^.L.H..@
   11f53:	ff88 2088 e324 203c ff84 0084 824c c0c0     ... $.< ....L...
   11f63:	202e 5752 56fa 0252 5652 57fa 0052 aa0e     . RW.VR.RV.WR...
   11f73:	aaaa 00ae ff22 0024 5655 fd55 5655 0055     ....".$.UVU.UVU.
   11f83:	002e 4c46 4046 5555 55f5 0055 e018 202f     ..FLF@UU.UU.../ 
   11f93:	0038 e042 2c40 200c ff10 4210 52ff 5253     8.B.@,. ...B.RSR
   11fa3:	fe53 0042 804c 22ea a0aa ff10 4410 e945     S.B.L..".....DE.
   11fb3:	5555 45e9 0044 804c 22e2 002e ff22 4420     UU.ED.L.."..". D
   11fc3:	e945 5555 45e9 0044 002e 22e2 002e ff10     E.UU.ED...."....
   11fd3:	0010 82ff aabf bfaa 0082 804c 6ae2 20a6     ..........L..j. 
   11fe3:	ff21 0822 4afb 0652 4afa 009b 002e aaea     !."..JR..J......
   11ff3:	e0aa 4849 49ff 0049 417f 43fc 00cd c2e4     ..IH.II..A.C....
   12003:	a22a a0a2 282b 2aff 200a 8a4a 4994 0022     *...+(.*. J..I".
   12013:	c2e4 aa22 20a2 4848 49ff 6409 a4a4 e4a4     ..".. HH.I.d....
   12023:	003f e2e4 aa2a a0aa 484b 49ff 0049 e497     ?...*...KH.II...
   12033:	9484 00f7 c2e8 aa22 a0aa ff21 0022 04f7     ......"...!."...
   12043:	07f4 54e4 0057 002e 4822 6062 ff10 0210     ...TW..."Hb`....
   12053:	aafa abaa aaaa 00fa 824c 2ec4 a0aa ff22     ........L.....".
   12063:	0024 aafa abaa aaaa 00fa 002e 2e2c a0aa     $...........,...
   12073:	ff08 4008 555f ff55 d555 005f 040e 4446     ...@_UU.U._...FD
   12083:	406e ff21 0022 aff9 aaaa faaa 0003 082e     n@!."...........
   12093:	aa0e e062 5d51 5755 f555 5755 5d55 0051     ..b.Q]UWU.UWU]Q.
   120a3:	220e 2222 002e 5557 55f5 5755 2200 4422     ."""..WU.UUW.""D
   120b3:	0088 22a6 026a 8024 ff22 0024 2aeb ee2b     ..."j.$.".$..*+.
   120c3:	2a2b 00eb 002e e0e0 e0e0 ff22 1024 5453     +*........".$.ST
   120d3:	7f50 9250 0093 002e 2eea e02a ff22 4800     P.P.......*."..H
   120e3:	7f4b 898a ff10 0010 0e2e 020e e0c0 ff22     K.............".
   120f3:	0024 557d fd01 5501 007d 002e 442a 204a     $.}U...U}...*DJ 
   12103:	5212 5557 f55d 5555 5735 0090 c422 4664     .RWU].UU5W..".dF
   12113:	204c ff22 0024 d794 d59d d595 0094 042e     L ".$...........
   12123:	a482 204a ff22 0024 6a39 b9ad eaac 0039     ..J ".$.9j....9.
   12133:	002e 4204 00a2 5212 f653 5253 ff12 9710     ...B...RS.SR....
   12143:	0050 e24a 8286 60c2 ff22 0024 8a7f 945a     P.J....`".$...Z.
   12153:	829a 00ff 002e eae0 e0e2 ff22 0024 d554     ..........".$.T.
   12163:	7d57 d555 0055 082e 22a2 20e2 ff21 0022     W}U.U....". !.".
   12173:	b129 fd23 b121 0029 002e 442a 204a ff21     ).#.!.)...*DJ !.
   12183:	0022 6fb0 eb28 6f28 00b0 002e 482a 606a     "..o(.(o....*Hj`
   12193:	5758 5555 f555 5555 5755 0058 a622 2622     XWUUU.UUUWX."."&
   121a3:	20a2 ff22 0024 a8ff aeaa acab 00ea 062e     . ".$...........
   121b3:	aa82 a0ea ff21 0022 d497 afa4 d4a4 0097     ....!.".........
   121c3:	002e aeaa a0ac ff22 0024 a929 bfb5 a9e1     ......".$.).....
   121d3:	0031 002e 0e48 4008 ff41 5555 41ff 7f00     1...H..@A.UU.A..
   121e3:	4f48 0088 0024 2c42 000e ff41 5555 41ff     HO..$.B,..A.UU.A
   121f3:	ff00 9292 00ff 0024 6842 e002 ff41 5555     ......$.Bh..A.UU
   12203:	41ff e018 404f 0078 0424 2c20 200c ff80     .A..O@x.$. ,. ..
   12213:	ff94 a424 3e65 a465 0024 8e48 8024 2084     ..$.e>e.$.H.$.. 
   12223:	4949 e95f 4049 ea4f 4a4a 004f 22e2 c8e2     II_.I@O.JJO.."..
   12233:	e08a ff48 4a4a 48ff fe10 3e21 0020 8a0e     ..H.JJ.H..!> ...
   12243:	24e0 2084 5252 dd57 5575 f555 5755 0050     .$. RRW.uUU.UWP.
   12253:	0624 262a 2004 5755 f55d 5056 f55f 5555     $.*&. UW].VP_.UU
   12263:	0053 6c44 4444 40e4 5e42 f253 5253 f252     S.DlDD.@B^S.SRR.
   12273:	5e53 0042 2a4a aec8 4008 7d40 d556 5454     S^B.J*...@@}V.TT
   12283:	5554 7cd4 0047 0e80 a6aa e002 4848 ea4f     TU.|G.......HHO.
   12293:	5f4a ea4a 484f 0048 aa2a aaae 20aa 7748     J_J.OHH.*.... Hw
   122a3:	f555 555f f75d 5054 005f 440e 4ee4 e002     U._U].TP_..D.N..
   122b3:	5b44 4bea 4fe8 fe50 3e21 0020 8a08 242e     D[.K.OP.!> ....$
   122c3:	2084 7248 fd54 5252 f25c 5f51 0040 0624     . HrT.RR\.Q_@.$.
   122d3:	262a 2004 4448 e05f 4d49 ed49 5349 0055     *&. HD_.IMI.ISU.
   122e3:	e048 4008 002e 5546 dd55 7755 dd55 5555     H..@..FUU.UwU.UU
   122f3:	0046 000c 000e 004c 5244 e148 5d45 ea4a     F.....L.DRH.E]J.
   12303:	494d 0041 002c aaea 00ae 555f 55f5 005f     MIA.,....._U.U_.
   12313:	2a2a 2aff 002b e444 0040 c0e4 555f 55f5     **.*+.D.@..._U.U
   12323:	005f 92ff 9292 00ff e444 c042 e022 5d41     _.......D.B.".A]
   12333:	5555 f755 5555 5d55 0041 4c44 4c46 4044     UUU.UUU]A.DLFLD@
   12343:	5a52 f654 435a ea52 4a54 0042 aa2a cac8     RZT.ZCR.TJB.*...
   12353:	20aa 2621 20ff 5655 f75d 565d 0055 e000     . !&. UV].]VU...
   12363:	4e04 0044 ff23 0022 5a15 f256 5b52 0014     .ND.#."..ZV.R[..
   12373:	0a0e 442a 20a2 2621 24ff ff41 5555 ff55     ..*D. !&.$A.UUU.
   12383:	0041 e000 0024 2004 ff26 8024 92ff 80ff     A...$.. &.$.....
   12393:	88ff 00f7 040e e8c4 80e8 2621 24ff 401f     ..........!&.$.@
   123a3:	555f 55f5 005f e000 e2e2 e022 4a4a 6257     _U.U_.....".JJWb
   123b3:	f842 6242 4a57 004a e848 4840 40e8 514a     B.BbWJJ.H.@H.@JQ
   123c3:	50fc 0348 5048 51fc 004a 4422 8480 2042     .PH.HP.QJ."D..B 
   123d3:	2621 20ff 4d45 e555 4f54 0044 e000 4cc4     !&. EMU.TOD....L
   123e3:	002e ff26 0924 ff08 4948 83bc 00fc 080e     ..&.$...HI......
   123f3:	082e 6068 ff23 0022 abfa ffaa abaa 00fa     ..h`#.".........
   12403:	000e 0e68 6008 ff26 0024 a9fb a8a9 a9ab     ..h..`&.$.......
   12413:	00fa 020e 40e2 60e2 2621 24ff 3f08 25e5     .....@.`!&.$.?.%
   12423:	a57f 0025 e000 220e 20e2 2621 24ff 7d01     ..%....". !&.$.}
   12433:	57d5 7d55 0001 e000 0ec0 c004 ff26 0024     .WU}........&.$.
   12443:	92ff 00ff 92ff 00ff 000e e0e0 e0e0 2621     ..............!&
   12453:	24ff 4272 d352 4252 0072 e000 2e48 4008     .$rBR.RBr...H..@
   12463:	ff26 0024 5f60 d555 5d55 0060 000e 220e     &.$.`_U.U]`...."
   12473:	002e ff26 0024 d47f 007c 88ff 00f7 020e     ..&.$...|.......
   12483:	e0e4 80e8 ff23 ff22 f788 7f50 55d5 005f     ....#."...P..U_.
   12493:	0e0e 0e48 e002 7d41 5555 ff55 5555 7e55     ..H...A}UUU.UUU~
   124a3:	0041 0624 a222 4068 555d 5555 425d 4df0     A.$.".h@]UUU]B.M
   124b3:	c542 005b 0624 262a 2004 4f88 bb00 aaaa     B.[.$.*&. .O....
   124c3:	aaab bbaa 0000 2e2c eaaa 20ae a9b9 abad     ......,.... ....
   124d3:	aff9 abf9 a9ad 00b9 4844 080e 4044 505e     ........DH..D@^P
   124e3:	52ff 005e 505e 52ff 005e e848 4840 40e8     .R^.^P.R^.H.@H.@
   124f3:	a2bf a2fc 20bf 22ff ff22 0020 aaea e2e0     ..... ."". .....
   12503:	002e a2bf a0fc a2fc 49bf ff4a 0089 aaea     .........IJ.....
   12513:	e0aa 000e ff00 ae80 aeaa 9680 bf90 0090     ................
   12523:	2e68 402c 002e ff00 be80 aaab aaea beab     h.,@............
   12533:	0080 2a68 4c2c 2022 ff84 8f88 be80 ffaa     ..h*,L" ........
   12543:	beaa 0080 4c0c 4a2a 2022 9f84 88e8 008f     .....L*J" ......
   12553:	15df 15f5 00df 440c e0c0 e002 ff84 9f90     .......D........
   12563:	7f00 bfa9 e9a9 003f 4c0c 0e2c e002 ff84     ......?..L,.....
   12573:	8f88 4b40 eb58 5348 0048 4c0c 0c2c 200e     ..@KX.HSH..L,.. 
   12583:	ff00 8f82 8fb4 95b5 95bf 0095 0e68 220e     ............h.."
   12593:	20e2 fa84 9e91 5f80 5f40 55f5 005f c002     . ....._@_.U_...
   125a3:	2e0e e022 f692 a7ae b6aa 7203 0a02 00fa     .."........r....
   125b3:	e28a 0844 204a ff20 2720 0820 e53f 7f25     ..D.J  . ' .?.%.
   125c3:	00a5 e268 e260 202e 4554 45fe 0054 a0bf     ..h.`.. TE.ET...
   125d3:	a0ef 00bf 0868 2c60 200c a338 aaaa fba2     ....h.`,. 8.....
   125e3:	aaa2 a2aa 0038 2a68 8aac 00ae 7554 54de     ....8.h*....Tu.T
   125f3:	0254 507c 915e 0090 aa0e aaaa 00ae f888     T.|P^...........
   12603:	ff8b 1088 25ff ff25 0025 2e48 e200 202e     .....%%.%.H.... 
   12613:	eb4a ab52 00aa ffa2 a280 00ff 0c68 aa22     J.R.........h.".
   12623:	a02a 5554 5557 07fd 55fd 5555 0054 4444     *.TUWU...UUUT.DD
   12633:	444e 4044 5454 fe55 0100 fe00 5454 0054     NDD@TTU.....TTT.
   12643:	0e2c a222 6068 7010 f515 525a f202 5554     ,.".h`.p..ZR..TU
   12653:	00b0 c8aa 888e a0c2 5197 f515 171d f51d     .........Q......
   12663:	5115 0097 22e2 222e e022 2f48 2ff8 d608     .Q..."."".H/./..
   12673:	b29a 9297 00d2 0e68 8848 80e8 0a6f 0bfa     ......h.H...o...
   12683:	0f68 46f0 7e41 0040 88e8 242e 2084 a131     h..FA~@....$. 1.
   12693:	257d e725 2525 a17d 0031 4844 080e 4044     }%%.%%}.1.DH..D@
   126a3:	4770 54dc d554 5454 47dc 0070 242a 4448     pG.TT.TT.Gp.*$HD
   126b3:	202a 4560 55f5 d755 5555 49f9 0060 4444     * `E.UU.UU.I`.DD
   126c3:	446e 4044 447f 007f 5744 fd55 5755 0044     nDD@.D..DWU.UWD.
   126d3:	c0c4 440e 004e 92ff ff92 4c54 ff45 4c45     ...DN.....TLE.EL
   126e3:	0054 2ee2 0e48 4008 fa02 aaab aeaa aaaa     T...H..@........
   126f3:	f7aa 000a ea88 aaaa 80ae ff08 aaaa a8af     ................
   12703:	aaab faaa 000b 884c 2ae0 204a 447f 217f     ......L..*J .D.!
   12713:	ff26 7f24 4f48 0088 c0c4 0e0e 000e ff08     &.$.HO..........
   12723:	aaaa afaa aaaa ffaa 0008 aa2a aaae 20aa     ..........*.... 
   12733:	027e aafe aaab aaab 02fe 007e 88ac e8e0     ~.........~.....
   12743:	808e 407f 007f 7c57 f554 7c54 0057 8088     ...@..W|T.T|W...
   12753:	48a2 a042 407f 007f 6a5f fa4a 6a4a 005f     .HB..@.._jJ.Jj_.
   12763:	8088 aaaa a0aa fa03 aaaa a8ab aaab faaa     ................
   12773:	0003 aaea eae0 e0aa 407f 527f 52ff 005e     .........@.R.R^.
   12783:	007f 00ff c8c4 40e8 e082 4f88 0000 aafb     .......@...O....
   12793:	ffaa aaaa 00fb 222c aae2 e0a6 407f 007f     ......,".....@..
   127a3:	2a3f 202b 21ff 00a6 c2c4 82c8 60c2 4f88     ?*+ .!.......`.O
   127b3:	fa00 a8ad acaa f8aa 000f 222c aaaa a02a     ..........,"..*.
   127c3:	447f 007f 525e d352 5252 005e c0c4 2e2c     .D..^RR.RR^...,.
   127d3:	200c fb02 aaaa aeaa aaaa fbaa 0002 c82a     . ............*.
   127e3:	88ae 20ca 447f 447f 557f f755 5555 0059     ... .D.D.UU.UUY.
   127f3:	c4c4 c4c4 002e 90f7 f29f 5400 ff54 d554     ...........TT.T.
   12803:	0054 e4e2 2402 60c2 90f3 f29f 2320 2bfc     T....$.`.... #.+
   12813:	a928 002e e4e2 2480 2084 90f7 f29f e414     (......$. ......
   12823:	fe25 2425 0004 e4e2 8024 2084 88f9 f98f     %.%$....$.. ....
   12833:	df20 5252 415e 007f e4e2 220e 6022 90f3      .RR^A.....""`..
   12843:	f29f 7f00 4546 45fc 0076 e4e2 242c 2084     ....FE.Ev...,$. 
   12853:	4f88 7700 5454 54ff 7754 0000 222c 2a6a     .O.wTT.TTw..,"j*
   12863:	2062 223e 22ff 003e 4949 49fb 0049 e422     b >".">.II.II.".
   12873:	22e0 20e2 223e 22ff 103e 2564 25ff 0024     .". >".">.d%.%$.
   12883:	e422 48e0 40e8 223e 22ff 413e 774c ff48     "..H.@>".">ALwH.
   12893:	0088 e422 c4e2 a0aa 223e 22ff 813e cfb8     ..".....>".">...
   128a3:	7f40 0088 e422 c2c2 a0aa 223e 22ff 003e     @...".....>".">.
   128b3:	6a13 6a8a 0013 e422 e2e0 e022 407f 017f     .j.j.."..."..@..
   128c3:	aefb aaaa faaa 0003 c0c4 aaea e062 aaef     ............b...
   128d3:	aaaa 00ef c17f 4551 007d 8ae8 44e0 e042     ......QE}....DB.
   128e3:	407f 007f abfa fbaa aaaa 00fa 8088 222e     .@............."
   128f3:	a084 407f 007f 2aeb ee2b 2a2b 00eb c0c4     ...@...*+.+*....
   12903:	c0e0 e0c2 80ff 08ff c43f a939 e9af 0029     ........?.9...).
   12913:	8088 2ce0 200c 407f 007f 2527 9057 2057     ...,. .@..'%W.W 
   12923:	0027 c0c4 e0e4 e082 407f 007f 7b4c cf4a     '........@..L{J.
   12933:	7b4a 004c c0c4 0e0c 004c 407f 007f 5760     J{L.....L..@..`W
   12943:	d555 5755 0060 c0c4 222e 202e 5fc8 4949     U.UW`....". ._II
   12953:	c85f 5844 484b 00ce 220e 2ce0 200c 203f     _.DXKH...".,. ? 
   12963:	20ff 003f aabb aaab 00bb e880 ea80 e0ea     . ?.............
   12973:	203f 20ff 003f aaff aaaa 00ff e880 ea80     ? . ?...........
   12983:	e0aa 80fe 809f 91fe 1750 17f9 0090 042c     ........P.....,.
   12993:	2e2e 6028 80fe 809f 49fe fe4b 5a4a 00eb     ..(`.....IK.JZ..
   129a3:	0c2c ea20 e0aa 80ff 80bf 19ff ff55 5151     ,. .........U.QQ
   129b3:	001d 84a4 48a2 2042 80fe 809f 00fe aef9     .....HB ........
   129c3:	aaab 00fb 0c2c 4a28 e04a 9fff ff80 6b48     ....,.(JJ.....Hk
   129d3:	ca5a 6b5a 0048 4268 220e 002e f501 d595     Z.ZkH.hB."......
   129e3:	ff95 d595 f595 0001 0424 4220 2004 cf29     ........$. B. ).
   129f3:	4949 5400 5754 57fd 0055 220e 8404 002e     II.TTW.WU.."....
   12a03:	cf29 0049 555f ff55 d555 005f 200e 0ee0     ).I._UU.U._.. ..
   12a13:	e002 cf29 0049 5f90 5900 5fe9 0049 200e     ..).I.._.Y._I.. 
   12a23:	222c 202a cf29 0049 559f f515 5515 009f     ,"* ).I..U...U..
   12a33:	200e 00e0 e022 cf29 0049 509f f710 5010     . ..".).I..P...P
   12a43:	009f 200e 4822 2042 cf29 0049 92ff 20ff     ... "HB ).I.... 
   12a53:	20ff 003f 200e e2e2 e0c2 cf29 0049 94f7     . ?.. ....).I...
   12a63:	9e95 9495 00f7 200e 00e8 e00a cf29 0049     ....... ....).I.
   12a73:	5513 7f59 9499 0012 200e 8024 e0aa cf29     .UY...... $...).
   12a83:	0049 2514 4fd5 6555 0044 200e 4e44 4044     I..%.OUeD.. DND@
   12a93:	cf29 0049 7444 c74c 744c 0044 200e 8e88     ).I.DtL.LtD.. ..
   12aa3:	8088 cf29 4949 be00 2263 be63 0000 220e     ..).II..c"c...."
   12ab3:	c002 60e2 227a 22ff fa00 ffaa faaa 0003     ...`z"."........
   12ac3:	c422 c002 e022 7f52 3492 04c7 30c7 7f52     "...".R..4...0R.
   12ad3:	0092 242e e082 002e c424 447f 0044 a4bd     ...$....$..DD...
   12ae3:	a4a4 00bd 082c 2a60 202a d724 725a 565a     ....,.`** $.ZrZV
   12af3:	fa02 8b8a 00f8 aa0e aaaa 00ae 5725 56d5     ............%W.V
   12b03:	5755 5455 5057 0040 2c26 2026 c0c2 7f49     UWUTWP@.&,& ..I.
   12b13:	9292 4a08 e710 4a10 0008 220e a266 60a6     ...J...J..."f..`
   12b23:	d521 5555 5555 515f 405f 0000 402a a2e4     !.UUUU_Q_@..*@..
   12b33:	c0c2 7f49 ff8a 2a49 7e00 4ad2 007b 482e     ..I...I*.~.J{..H
   12b43:	084e e0a2 5f55 7f50 9f50 0095 007f 00ff     N...U_P.P.......
   12b53:	8e24 2084 e082 ff53 0092 559f f515 5515     $.. ..S....U...U
   12b63:	009f 000e 00e0 e022 5350 92ff f505 9795     ......".PS......
   12b73:	f595 0005 e080 2e22 2022 5350 92ff aa11     ......"." PS....
   12b83:	5aaf aa4f 00ab e080 c000 c0e4 5350 92ff     .ZO.........PS..
   12b93:	bc11 2467 bc67 0000 e080 8024 e0e2 cf20     ..g$g.....$... .
   12ba3:	6a48 2a4a 4acf 4a6a 0048 2a0e aaaa 20aa     HjJ*.JjJH..*... 
   12bb3:	d525 7555 3d55 55d5 5577 0045 8400 2200     %.UuU=.UwUE...."
   12bc3:	00e0 c828 486f 2f40 49ca 406f 0040 c844     ..(.oH@/.Io@@.D.
   12bd3:	002c e0e2 d730 5474 3f55 54d5 5775 0050     ,...0.tTU?.TuWP.
   12be3:	4822 080e 2042 c027 406f 2a4b 4fca 4a6a     "H..B '.o@K*.OjJ
   12bf3:	004b 8006 0ec0 c004 d03f 7550 3555 55d5     K.......?.PuU5.U
   12c03:	5070 005f 0ce0 4c44 e022 c722 6858 2848     pP_...DL".".XhH(
   12c13:	48df 5a69 0048 020e 4824 c042 c524 4d69     .HiZH...$HB.$.iM
   12c23:	2555 4dd5 4569 0044 220e 2222 002e cf20     U%.MiED..""".. .
   12c33:	4a6a 204f 5fc8 4868 004f 8a2c 68e0 e002     jJO ._hHO.,..h..
   12c43:	ca22 6a5a 5f4a ca2a 426f 0042 8808 88ae     ".ZjJ_*.oBB.....
   12c53:	0080 3f08 53d2 52f6 1852 21e6 003e 2c0e     ...?.S.RR..!>..,
   12c63:	e08a 6068 3f08 5ec0 5454 54fe de55 0040     ..h`.?.^TT.TU.@.
   12c73:	080e 8a8c 80e8 ff00 f312 0010 d47d 577c     ............}.|W
   12c83:	007c 0e2c 8808 808e 3e10 08c0 adea bea8     |.,......>......
   12c93:	aca8 00ea aa2a aaae 20aa 7f21 55d5 7f55     ....*.... !..UU.
   12ca3:	55d5 5555 0041 4822 080e 2042 7f10 55d5     .UUUA."H..B ...U
   12cb3:	5555 55ff 5555 0055 0424 4220 2004 3f08     UU.UUUU.$. B. .?
   12cc3:	00c0 735a d652 7252 005a 000e 882c e0aa     ..ZsR.RrZ...,...
   12cd3:	3f08 10c0 00df f752 725a 00d3 020e 0ee4     .?....R.Zr......
   12ce3:	e0aa c47f 7f44 cb28 fa4a 4b4a 0008 4cc4     ....D.(.J.JK...L
   12cf3:	220e 002e c47f 007f 5464 d457 5457 0064     ."......dTW.WTd.
   12d03:	c0c4 8024 e0e2 7e02 7752 7eda 765a 7e52     ..$....~Rw.~ZvR~
   12d13:	0002 8800 aa88 00e0 7d01 7551 7fd9 7559     .........}Qu..Yu
   12d23:	7d51 0001 4422 8480 2042 cf22 4a30 ff4a     Q}.."D..B ".0JJ.
   12d33:	4a4a 9f90 0090 040e 884c 002e 5028 40be     JJ......L...(P.@
   12d43:	829e fe82 9292 0092 0e2c a22a 6068 cf22     ........,.*.h`".
   12d53:	cb30 7f48 004a 80ff 00ff 0c0e 804c 80e8     0.H.J.......L...
   12d63:	cf22 0030 a0ff aaaf aafa 00af 060e ea80     ".0.............
   12d73:	e0aa 7f04 7fd5 b885 00cf 7f48 0088 2e2c     ..........H...,.
   12d83:	222c a0aa 5525 559f 0025 a888 aa9f 00cc     ,"..%U.U%.......
   12d93:	22e2 02e0 00e0 4f88 1700 a516 91d7 2156     .".....O......V!
   12da3:	0016 2e2c e2a6 e0e2 5312 5a76 7f52 5a52     ..,......SvZR.RZ
   12db3:	93b6 0012 aa0e aaae 00ae 5b68 9b7f 00a8     ..........h[....
   12dc3:	d494 d4af 0094 e080 8880 80e8 2f21 5b31     ............!/1[
   12dd3:	b555 5b55 2f31 0021 4ce0 4844 e042 92ff     U.U[1/!..LDHB...
   12de3:	ff92 4b00 4afa fa4a 004b 2ee0 aa0e e0aa     ...K.JJ.K.......
   12df3:	92ff 00ff 557c 7cd6 5455 007c e0e0 8888     ....|U.|UT|.....
   12e03:	80e8 92ff 02ff 5947 dd42 494a 004e e0e0     ......GYB.JIN...
   12e13:	24e0 2084 92ff 00ff 4564 c179 457d 006c     .$. ....dEy.}El.
   12e23:	e0e0 2e22 2022 92ff 02ff 486d c04f 494f     .."." ....mHO.OI
   12e33:	006f e0e0 002c 60e2 3f02 aa6a beaa aaaa     o...,..`.?j.....
   12e43:	3fea 0002 aa0e aaaa 00ae 44a2 01bf fa06     .?.........D....
   12e53:	afaa faaa 0002 c042 ae2a 20aa 44a2 00bf     ......B.*.. .D..
   12e63:	aff8 faaa afaa 00f8 c042 882c 00ae 44a2     ........B.,....D
   12e73:	00bf fb0c baaa fb8a 000c c042 880e 00ae     ..........B.....
   12e83:	44a2 08bf c03f b925 e9af 0029 c042 24e0     .D..?.%...).B..$
   12e93:	2084 9f48 b5d5 9f95 b595 9fd5 0008 6260     . H...........`b
   12ea3:	22a6 6060 e910 4c56 0070 2c22 2cf0 00a2     ."``..VLp.",.,..
   12eb3:	0824 8660 6008 4fe0 6040 7710 f554 7754     $.`..`.O@`.wT.Tw
   12ec3:	0010 200e 482a 204a 4fe0 6040 3a02 a96c     ... *HJ .O@`.:l.
   12ed3:	ecb9 003a 220e 4404 202a 4a8a fb12 4e42     ..:..".D* .J..BN
   12ee3:	fa4b 4a4a 0043 e28a 0820 204a 5348 4a42     K.JJC... .J HSBJ
   12ef3:	c772 7a4a 5342 0048 aa2a aaae 20ac 525e     r.JzBSH.*.... ^R
   12f03:	52d3 205e fe21 6027 0020 e0c2 c0c2 e0e2     .R^ !.'` .......
   12f13:	7440 d554 7456 ee50 3e21 0020 ae88 a488     @tT.VtP.!> .....
   12f23:	2084 e32c 003c a0a3 22af 23fe 00a0 e0e0     . ,.<....".#....
   12f33:	c4e2 6048 7f12 5740 5555 55d5 5755 0040     ..H`..@WUU.UUW@.
   12f43:	2268 2262 2062 7f12 4440 5f55 40d5 404f     h"b"b ..@DU_.@O@
   12f53:	005f 0468 008e e082 7f12 4f40 5454 54d7     _.h.......@OTT.T
   12f63:	475c 0040 aa68 88c8 a0ca 7f12 5740 dd55     \G@.h.......@WU.
   12f73:	5557 575d 0040 0e68 e444 004e 5f10 7555     WU]W@.h.D.N.._Uu
   12f83:	df55 7555 5f55 0010 2222 222e 2022 e02f     U.UuU_..""."" /.
   12f93:	002f 6929 22b6 4b3a 0038 8844 a422 20a2     /.)i.":K8.D.".. 
   12fa3:	549f 800a 9595 a59f 80a5 00ff 80e4 44c4     .T.............D
   12fb3:	e0e2 5545 d557 7f55 d555 5557 0045 220e     ..EUW.U.U.WUE.."
   12fc3:	2222 002e 3fa4 00a4 92a1 00ff 92a1 00ff     ""...?..........
   12fd3:	80ac e002 e002 5644 54d5 7f54 5555 55d5     ......DV.TT.UU.U
   12fe3:	0045 4022 48a2 a042 6b48 cada 4a7a ca7a     E."@.HB.Hk..zJz.
   12ff3:	6bda 0048 aa0e aaaa 00ae 2a28 77aa fa22     .kH.......(*.w".
   13003:	7722 2aaa 0028 ac8a 8c88 80aa 5f40 d652     "w.*(.......@_R.
   13013:	527a d27e 5f52 0040 8c88 aa88 80e8 be80     zR~.R_@.........
   13023:	eaaa a3b2 eaba beaa 0080 aaaa cac8 a0aa     ................
   13033:	4f88 4000 d55f 5575 5fd5 0040 222c 22e2     .O.@_.uU._@.,"."
   13043:	202e 4f88 5500 d555 5f6a 49c6 0050 222c     . .O.UU.j_.IP.,"
   13053:	6a26 a022 7800 da4b 7a4a da4a 784b 0000     &j"..xK.JzJ.Kx..
   13063:	ea00 aaaa 00e0 ff18 0010 e213 4044 524a     ............D@JR
   13073:	0063 e0e0 a2ea e0aa 4990 4a00 fa4c 4a4a     c........I.JL.JJ
   13083:	4cfb 004a 002c aaea 60a2 4990 f546 5555     .LJ.,....`.IF.UU
   13093:	55f7 f555 0046 0c2c e000 004c 4990 2320     .UU.F.,...L..I #
   130a3:	23fe ff00 9292 00ff 0e2c 0e2e e002 4990     .#......,......I
   130b3:	2621 26ff ff21 9292 00ff 002c 0ee0 e022     !&.&!.....,...".
   130c3:	4990 5f50 4a6a 4afa 5f6a 0050 2e2c aaaa     .IP_jJ.Jj_P.,...
   130d3:	20ae 00d9 525a 53f2 205a 20ff 003f 8ae0     . ..ZR.SZ . ?...
   130e3:	86e8 e082 00d9 92ff 00ff 0178 00ff 007b     ..........x...{.
   130f3:	e2e0 22e0 8024 4990 fd00 a7a4 a7a4 fda4     ..."$..I........
   13103:	0000 2a2c 2e2e 202a 4990 f900 a9a9 a9a9     ..,*..* .I......
   13113:	f9a9 0000 2e2c 2e2e 202e 4990 0000 aef9     ....,.... .I....
   13123:	aaab faaa 0003 082c 4c0c e042 4990 7710     ......,..LB..I.w
   13133:	5454 54f5 7754 0010 2a68 8424 202a 4990     TT.TTw..h*$.* .I
   13143:	fe00 809f 24fe 24ff 00a5 062c 0286 202c     .....$.$..,..., 
   13153:	4990 0c00 8afb aaba fbaa 000c 002c 88e8     .I..........,...
   13163:	00ae 4990 4900 7f49 008a ff94 0094 002c     ...I.II.......,.
   13173:	002c 808e 8910 1f40 caaa a1af 214e 001e     ,.....@.....N!..
   13183:	0e68 e08a e0e0 00d9 6b58 6a5a 7ada 6a4a     h.......XkZj.zJj
   13193:	005e 08e0 aa88 e0aa 4990 7f00 7d50 d555     ^........I..P}U.
   131a3:	7d55 0050 2c2c 442a 204a 4990 ff40 4f48     U}P.,,*DJ .I@.HO
   131b3:	d120 5751 0059 2c2c 002e 002e 4990 2e22      .QWY.,,.....I".
   131c3:	66a1 6220 21ae 0026 262c 02a6 606a 4990     .f b.!&.,&..j`.I
   131d3:	6000 5557 d555 5755 0060 022c 66e6 206e     .`WUU.UW`.,..fn 
   131e3:	4990 ff00 fe92 fd00 fc87 0084 0e2c 682c     .I..........,.,h
   131f3:	60e2 003c 00ff 7c57 f554 7c54 0057 e000     .`<...W|T.T|W...
   13203:	48a2 a042 003e 20ff ee48 5a4a ea4a 004a     .HB.>.. H.JZJ.J.
   13213:	e000 0e2c 200e 003e 20ff 5748 5df5 5755     ..,.. >.. HW.]UW
   13223:	0044 e000 440e 004e 003e 10ff abe2 0aea     D....DN.>.......
   13233:	aaea 00e2 e000 8a08 00ae 003e 20ff 94f4     ..........>.. ..
   13243:	9df7 95f5 00f5 e000 8006 e022 007e 20ff     ..........".~.. 
   13253:	7d04 d755 7d55 0004 e000 2e22 2022 007e     .}U.U}...."." ~.
   13263:	00ff 577c 7fd4 5655 007d e000 0e68 e0aa     ..|W..UV}...h...
   13273:	003e 00ff 2527 9057 2057 0027 e000 e0e4     >...'%W.W '.....
   13283:	e082 ff38 ff00 fca4 fc04 fc87 0084 2e0e     ..8.............
   13293:	2c4c e0e2 5561 ff55 5555 0061 007f 00ff     L,..aUU.UUa.....
   132a3:	220e 002e e0a2 5464 7e55 d555 7e54 5455     ."....dTU~U.T~UT
   132b3:	0064 0488 a244 8008 4577 555d d755 5555     d...D...wE]UU.UU
   132c3:	455d 0077 22e2 222e e022 5f71 5555 df55     ]Ew.."."".q_UUU.
   132d3:	5555 5f55 0071 44e0 484c e042 4968 6557     UUU_q..DLHB.hIWe
   132e3:	cf45 6545 4957 0068 440c 444e 004c 5169     E.EeWIh..DNDL.iQ
   132f3:	557d d755 5555 517d 0069 02e0 c2c0 e002     }UU.UU}Qi.......
   13303:	5662 6a5a df4a 7a4a 5a5a 0062 aa0e aaaa     bVZjJ.JzZZb.....
   13313:	00ae 5760 6555 c44e 7744 5754 0060 260e     ..`WUeN.DwTW`..&
   13323:	a6aa 002e 5564 7755 d55d 7555 5f55 0065     ....dUUw].UuU_e.
   13333:	8e44 2222 e022 4f88 8300 aaff aaaf eaaf     D."""..O........
   13343:	008f 222c 22a2 a02a bf80 afa9 aaaa afaa     ..,"."*.........
   13353:	aaaa 00ba 0e68 aeaa a0aa cf42 0a74 cb24     ....h.....B.t.$.
   13363:	2212 cb12 0024 000e 220e 002e cf42 0a74     ."..$...."..B.t.
   13373:	527f f25e 525f 0052 060e 8888 80e8 cf42     .R^._RR.......B.
   13383:	0a74 ab20 faae aaaa 00fb 040e 228e e022     t. .........."".
   13393:	cf42 0072 aa3e bf2a 6a2a 00be 000e 8e88     B.r.>.*.*j......
   133a3:	8088 cf42 0874 a9aa afa8 f9a8 000a 000e     ..B.t...........
   133b3:	2e24 2004 5f90 7f00 55d5 147f ff12 0010     $.. ._...U......
   133c3:	422e e04a 002e 5f90 0100 6d43 6755 a595     .BJ...._..CmUg..
   133d3:	00c1 402e 2e62 6022 5f90 0000 735a d652     ...@b."`._..ZsR.
   133e3:	7252 005a 402e 882c e0aa 5f90 2a00 7faa     RrZ..@,...._.*..
   133f3:	7f2a 2faa 0022 4a2e 8ece 20ca ff00 aba8     *../"..J... ....
   13403:	a1a9 a1bb a9a9 00e8 c468 e444 4044 ff00     ........h.D.D@..
   13413:	aea0 aaaa aabf aeaa 00e0 e868 eaaa e0ca     ..........h.....
   13423:	ff00 b5a4 a4ae a4bf b5ae 00e4 aa68 aaca     ............h...
   13433:	a0ea 929e 00f3 a9ef bfa9 a9a9 00ef e022     ..............".
   13443:	2e22 2024 f39e 6900 ff0a 690a 9e00 00f3     ".$ ...i...i....
   13453:	0c2e 0c0e e002 808f e29f 5b48 cb68 5348     ..........H[h.HS
   13463:	0048 e4e2 0c2c 200e 88ff 00f7 ba83 aaab     H...,.. ........
   13473:	baab 0083 80e8 46e8 e04a 88ff 00f7 955f     .......FJ....._.
   13483:	f535 9515 005f 80e8 2e24 2004 88ff 00f7     5..._...$.. ....
   13493:	4522 21a9 45a9 0022 80e8 2e2e 202e fe20     "E.!.E"......  .
   134a3:	3e21 fd41 5755 fd55 0041 8606 8e24 2084     !>A.UWU.A...$.. 
   134b3:	6848 52d2 6955 fc02 8988 00f8 c8aa 888e     Hh.RUi..........
   134c3:	a0c2 fe20 3e21 7a00 feab ab02 00fa 8606     .. .!>.z........
   134d3:	a402 204a e13e 003e a0ff eaaf aaaa 00ef     ..J >.>.........
   134e3:	6268 eac0 e0aa fe20 3e21 b788 fd95 afad     hb.... .!>......
   134f3:	00c8 8606 440e 004e af08 a595 15d5 25d5     .....DN........%
   13503:	2f55 0008 a622 2622 20a2 dd33 bf11 bfa0     U/.."."&. 3.....
   13513:	a5e5 a0bf 00bf 4e22 222e e0e2 5533 2299     ......"N."..3U."
   13523:	0ff0 2bf8 6fc8 0050 2422 482a 204a 5533     ...+.oP."$*HJ 3U
   13533:	2299 ef08 aaaa efaa 0008 2422 880c 808e     ."........"$....
   13543:	dd33 0011 95ff fb0a fb82 000a 4022 24e0     3..........."@.$
   13553:	2084 5533 2299 7554 7d57 b595 00d5 4222     . 3U."TuW}...."B
   13563:	2a48 204a dd33 0011 694d cb59 6959 004d     H*J 3...MiY.YiM.
   13573:	4022 0ec0 c004 dd33 0011 73aa fa26 7322     "@....3....s&."s
   13583:	00aa 4022 442a 00a2 84bc 07fd 7f00 ca4b     .."@*D........K.
   13593:	4a4b 007b 2c8a e868 e0e8 dd33 0011 aabf     KJ{..,h...3.....
   135a3:	aaab aaab 00bb 4022 e8e8 e0e8 84bc 07fd     ......"@........
   135b3:	d790 afa4 d4a4 0097 2e8a ae0a a0ac dd33     ..............3.
   135c3:	0411 d635 5755 755c 0044 4a22 2e48 4084     ..5.UW\uD."JH..@
   135d3:	a9a8 a9f8 02ac a9a8 a8fa 00a8 2c4a a26a     ............J,j.
   135e3:	4068 9097 129f 90ff 7e50 4ad2 007b c4e2     h@......P~.J{...
   135f3:	e884 c0a2 ff88 0088 2aeb ee2b 2a2b 00eb     .........*+.+*..
   13603:	804c c0e0 e0c2 ff88 7c88 5754 57fc 7e55     L........|TW.WU~
   13613:	0001 824c 0ec0 602a ff88 4088 08af a95a     ..L...*`...@..Z.
   13623:	480a 00af 804c a2e2 e0a2 4f48 0048 d77c     .H..L.....HOH.|.
   13633:	577c 7e55 0001 84c4 0e2c a0aa fe02 aaab     |WU~....,.......
   13643:	5582 ff55 7d55 0010 246a 4e24 4044 ff21     .UU.U}..j$$ND@!.
   13653:	8720 aafa aaab feaa 008b 022e 4aa4 204a      ............JJ 
   13663:	ff22 4124 f55f 5555 5ff5 0041 022e 8824     ".$A_.UU._A...$.
   13673:	2042 ff10 4010 555f 55f5 5f55 0040 844c     B ...@_U.UU_@.L.
   13683:	4464 4046 ff22 0024 545e fe54 d554 005e     dDF@".$.^TT.T.^.
   13693:	082e 8a8c 80ae ff10 0010 aafb a8ab aaab     ................
   136a3:	00fb 804c e04a e04a 5557 55f5 0057 494a     ..L.J.J.WU.UW.JI
   136b3:	49f8 004e 2c2e 2440 2084 ff22 0024 95f1     .IN..,@$. ".$...
   136c3:	9ff5 95f5 00f1 002e a226 2024 ff22 0024     ........&.$ ".$.
   136d3:	fd21 5555 54fd 0054 002e 002c e0aa ff22     !.UU.TT...,...".
   136e3:	0424 d47f 047f 82fb 00fb 022e e0c8 a0a4     $...............
   136f3:	ff11 6412 4959 5f69 9989 00a9 062e 2e22     ...dYIi_......".
   13703:	6022 ff22 0024 7447 d555 7455 0047 002e     "`".$.GtU.UtG...
   13713:	c4e0 e0c2 ff10 0010 557f ff55 5555 005f     .........UU.UU_.
   13723:	864c 228e e022 ff22 9c24 fc83 ff20 ff49     L.."".".$... .I.
   13733:	0049 0e2e 0e0e 202e ff80 ff94 7c84 fd57     I...... .....|W.
   13743:	7d55 0005 8e4c 0000 e022 fe43 5253 42ff     U}..L...".C.SR.B
   13753:	4408 ff20 0001 22ea 08aa 008e 4a42 eb4a     .D ...."....BJJ.
   13763:	424a eb4a 4a4a 0042 2e2c 2e0c 200c f55d     JBJ.JJB.,.... ].
   13773:	5f55 f555 205d 20ff 003f 2e22 0644 e082     U_U.] . ?.".D...
   13783:	f547 f55f 0847 00ff 08ff 0001 e444 e040     G._.G.......D.@.
   13793:	e0e2 f547 f55f 0047 84ff 84fc 00fc e444     ..G._.G.......D.
   137a3:	e240 e022 fa4b fa4a 004b c17f 7d55 0001     @.".K.J.K...U}..
   137b3:	aaea 44e0 e042 405e e05e 4844 ec58 484a     ...DB.^@^.DHX.JH
   137c3:	0048 aa2e eaea 20ae 5e42 f253 5352 f252     H...... B^S.RSR.
   137d3:	5e53 0042 2a4a aaae 402a 5f41 f555 5555     S^B.J*..*@A_U.UU
   137e3:	f555 5f55 0041 6448 444e 4068 5345 e248     U.U_A.HdNDh@ESH.
   137f3:	5a42 f554 425a 0042 2a2c aeaa a0aa 5352     BZT.ZBB.,*....RS
   13803:	fa5a 7756 fa5a 5552 0052 aa0e aaae 00ae     Z.VwZ.RUR.......
   13813:	4154 f750 5555 d57f 7755 0050 0e68 e444     TAP.UU..UwP.h.D.
   13823:	004e 5559 fa55 7452 fa52 5555 0059 ea00     N.YUU.RtR.UUY...
   13833:	aaaa 00e0 5558 f655 5756 f455 5655 0058     ....XUU.VWU.UVX.
   13843:	4a44 c8a2 2042 4545 f056 5751 f858 4556     DJ..B EEV.QWX.VE
   13853:	0049 8c24 caa8 2084 565f 56f3 005f 1310     I.$.... _V.V_...
   13863:	13fc 00d0 cae8 68e0 6008 ff26 0024 5755     .......h.`&.$.UW
   13873:	f55d 575d 0055 000e 220e 002e 6551 65fd     ].]WU...."..Qe.e
   13883:	0555 6555 65fd 0051 4022 002e 2042 524a     U.Ue.eQ."@..B JR
   13893:	52fa 034a 524a 52fa 004b 222c aa2e 20aa     .RJ.JR.RK.,"... 
   138a3:	ff26 0824 4afb 0652 4afa 009b 000e aaea     &.$..JR..J......
   138b3:	e0aa 2c23 24ff 07f2 25fc 57c4 0048 e000     ..#,.$...%.WH...
   138c3:	482a 606a 5844 51fe 014c aafe aaaa 00fe     *Hj`DX.QL.......
   138d3:	0e2c a222 6068 ff26 0024 577c 7fd4 5554     ,.".h`&.$.|W..TU
   138e3:	007c 020e 0e48 60aa ff23 0022 2517 9057     |...H..`#."..%W.
   138f3:	2053 0017 000e e0e4 e082 ff26 0024 b129     S ........&.$.).
   13903:	fd23 b121 0029 000e 442a 204a ff26 ff20     #.!.)...*DJ &. .
   13913:	fca4 fc04 fc87 0084 2e0e 2c4c e0e2 525e     ..........L,..^R
   13923:	52ff 005e a07f e0a7 003f e868 2c60 200c     .R^.....?.h.`,. 
   13933:	a4bf a4f8 00bf d522 5549 0062 aaea 0ee0     ......".IUb.....
   13943:	002e a2bf a2fc 04bf 04ff 047f 00ff aaea     ................
   13953:	e0e0 e0c0 407f 5557 5755 f940 d946 0043     .....@WUUW@.F.C.
   13963:	0624 26a2 2004 ff82 8784 fa02 aaaa fbaa     $..&. ..........
   13973:	0002 2e0e 888c 80ae 9f84 88e8 24bf 24ff     .............$.$
   13983:	24ff 003f 8a08 88ac a08c 9f84 8fe8 0080     .$?.............
   13993:	d47d 577c 007c 4c0c 8808 808e ff84 8f88     }.|W|..L........
   139a3:	5945 c345 5945 0045 4c0c 0e00 0000 ff84     EYE.EYE..L......
   139b3:	8f88 a224 207f a27f 0024 4c0c e222 20e2     ..$.. ..$..L".. 
   139c3:	ff84 8f88 5d62 cf48 494f 006f 4c0c c002     ....b]H.OIo..L..
   139d3:	60e2 ff84 8f88 f505 5754 7d54 0005 4c0c     .`......TWT}...L
   139e3:	2e24 2004 ff20 3f20 07f4 07f4 47f4 0050     $..  . ?.....GP.
   139f3:	0e68 aaaa e0aa a2bb aaaa fba2 aaa2 a2aa     h...............
   13a03:	00bb aaea aaae e0aa a2ba b6b4 faaa b6aa     ................
   13a13:	a2b4 00ba 8888 888e e0aa 8575 abae ea8a     ..........u.....
   13a23:	aa8a 89ae 0061 ac0a 8a88 00ae acb2 b5b7     ....a...........
   13a33:	f5a5 b4a7 a7b4 00b0 e200 2222 60aa 744c     .........."".`Lt
   13a43:	5fc4 0045 aabb aaab 00bb 8e88 ea00 e0ea     ._E.............
   13a53:	e45c 445f ef08 aaaa efaa 0008 e888 880c     \._D............
   13a63:	808e e45c 445f 2517 9057 2053 0017 e888     ..\._D.%W.S ....
   13a73:	e0e4 e082 2728 a2fe 02aa aac6 ab92 00c4     ....('..........
   13a83:	aa0e aaaa 00ae 7a09 ff08 4848 a0bf a0e7     .......z..HH....
   13a93:	00bf 2422 a448 a084 083b 48fb 244b 9444     .."$H...;..HK$D.
   13aa3:	458c 0026 2aea 84e0 00a0 7202 fe04 2b0a     .E&..*.....r...+
   13ab3:	46ca 5264 0042 ea2a aaae 20ea 497f 007f     .FdRB.*.... .I..
   13ac3:	5754 ff54 5754 0054 e0e2 880e 00ae 497f     TWT.TWT........I
   13ad3:	087f 4b49 4afe 2f5a 0048 e0e2 aa0e 00ae     ..IK.JZ/H.......
   13ae3:	497f 007f 5555 f359 555d 005d e0e2 2e22     .I..UUY.]U]...".
   13af3:	2022 497f 007f e94f 4f49 e949 004f e0e2     " .I..O.IOI.O...
   13b03:	2ee2 e022 497f 107f 5454 55ff 7d55 0010     .."..I..TT.UU}..
   13b13:	e2e2 e2c2 2022 92ff 00ff 5f14 7f54 9f94     ...." ....._T...
   13b23:	0014 c0c4 aeaa a0aa 497f 007f 5564 7f44     .........I..dUD.
   13b33:	9584 00a4 e0e2 0e68 6008 407f 147f 5a57     ......h..`.@..WZ
   13b43:	5afe 3352 0056 c0c4 aaea 00ae aaeb baab     .ZR3V...........
   13b53:	aaab 00eb 88ff 00f7 aae2 e0a2 80e8 407f     ...............@
   13b63:	007f 515d f553 5251 005d 8088 2e24 2004     ..]QS.QR]...$.. 
   13b73:	f80f aaaa feab acaa f9aa 000f 0e24 262a     ............$.*&
   13b83:	2004 447f 007f 7754 755d b555 0094 c4c4     . .D..Tw]uU.....
   13b93:	a4a2 204a a5fc fda5 0301 a9fd aba9 00fe     ..J ............
   13ba3:	222e e2e2 202e aef9 aaab fbaa e010 202f     ."... ......../ 
   13bb3:	0038 286a 2c2e 200c 447f 007f 4b48 ca7a     8.j(.,. .D..HKz.
   13bc3:	4b7a 0048 c0c4 aa0e 00ae 447f 007f 92ff     zKH........D....
   13bd3:	00f2 9497 00f7 c0c4 80e8 202c 91ff ff91     .........., ....
   13be3:	9700 e595 9585 00f7 0424 4220 2004 447f     ........$. B. .D
   13bf3:	447f 007f 6555 64c5 0057 c4c4 c4c0 e0c2     .D..Ue.dW.......
   13c03:	90f7 f29f 5248 ca6b 526a 0048 e4e2 8a00     ....HRk.jRH.....
   13c13:	00ae 90f7 f29f 2501 f925 5549 004d c4e2     .......%%.IUM...
   13c23:	8024 60e2 90f7 f29f 2442 00ff 24ff 0042     $..`....B$...$B.
   13c33:	e4e2 8024 e0e2 90f7 f29f f109 8781 11f1     ..$.............
   13c43:	0011 c4e2 0e24 2004 90f3 f29f 3f00 97d0     ....$.. .....?..
   13c53:	b594 00d7 e4e2 0e2c 6022 90f7 f29f 2312     ......,."`.....#
   13c63:	49d5 6355 0002 e4e2 220e 002e 90f7 929f     .IUc....."......
   13c73:	01f2 514a 51c0 004a c4e2 2440 2084 88fb     ..JQ.QJ...@$. ..
   13c83:	fa8f ff00 a7a4 fda4 0002 e4e2 442e 2084     .............D. 
   13c93:	4f88 ef20 aaaa aaea eeaa 0020 2e2c aaaa     .O ....... .,...
   13ca3:	20ae 223e 22ff 003e 09f9 a9ef 00ef e422     . >".">.......".
   13cb3:	24e0 2084 213f 21ff 94ff 9e95 9495 00f7     .$. ?!.!........
   13cc3:	e422 0068 e02a 223e 22ff ff91 1092 11ff     ".h.*.>"."......
   13cd3:	0056 e422 022e c0c2 223e 22ff 003e d555     V.".....>".">.U.
   13ce3:	d5af 0015 e422 44e0 40e4 213f 21ff 003f     ...."..D.@?!.!?.
   13cf3:	61bf 6121 00bf e222 2c42 200e 407f 007f     .a!a..".B,. .@..
   13d03:	557d 57d5 5755 007d c0c4 4822 2042 407f     }U.WUW}..."HB .@
   13d13:	107f cd25 0415 25c9 0011 8088 e0a4 e0a4     ..%....%........
   13d23:	407f 007f d59b abb5 d5b5 009b 8088 0e2c     .@............,.
   13d33:	200c ea02 abaa beea aaea eba6 0002 8e44     . ............D.
   13d43:	aaaa 00ae a8eb eaab beaa eaaa abaa 00e8     ................
   13d53:	eae2 aaaa 20ae aaea ffaa a0a0 ffa0 aaaa     ..... ..........
   13d63:	00ea ac88 0e00 8088 e300 a2a2 aafe aaea     ................
   13d73:	ebaa 0008 8888 888e 8088 eb04 aaba aaef     ................
   13d83:	ebaa a8a8 00ef aa0a caea e002 203f 20ff     ............? . 
   13d93:	003f a9fb a9af 00fb e880 2c80 200e cf29     ?..........,. ).
   13da3:	0049 4a4b 4afa fa4a 004b 200e aaea e0aa     I.KJ.JJ.K.. ....
   13db3:	cf29 0049 494f 4fe9 49e9 004f 200e 2ee2     ).I.OI.O.IO.. ..
   13dc3:	e022 cf29 4949 f900 abae fbaa 0003 220e     ".).II........."
   13dd3:	a404 e082 cf29 0049 91f0 94ff 97f4 00f0     ....).I.........
   13de3:	200e 2a82 0048 cf29 0049 bfa4 ffa4 bfa4     . .*H.).I.......
   13df3:	00a4 200e aeaa a0aa cf29 1049 c03f 2525     ... ....).I.?.%%
   13e03:	25ff 0025 200e 22e0 20e2 cf29 0049 557d     .%%.. .". ).I.}U
   13e13:	d755 5555 007d 200e 0ee0 e002 cf29 2c49     U.UU}.. ....).I,
   13e23:	1137 ff55 7d55 0010 2a0e 2ec4 2022 cf29     7.U.U}...*.." ).
   13e33:	4949 ff00 9595 959f 00f5 200e e268 e022     II......... h.".
   13e43:	cf29 0049 9111 bd95 91d1 0011 200e e2e2     ).I.......... ..
   13e53:	e0e2 44f4 447f b129 fda3 b1a1 0029 0c2c     ...D.D).....).,.
   13e63:	442a 204a 5253 927e 0093 5444 54c7 0044     *DJ SR~...DT.TD.
   13e73:	22e2 88e0 80e8 5350 92ff 3f08 25e5 a57f     ."....PS...?.%..
   13e83:	0025 e080 220e 20e2 5651 92ff 80ff fda9     %....". QV......
   13e93:	80a9 00ff e000 c4e0 e0c2 5552 957f 0092     ..........RU....
   13ea3:	a0bf a0ef 00bf 0e2c a420 a084 5c52 7e50     ......,. ...R\P~
   13eb3:	9095 0c62 0cf0 0062 0e2c 222a 6068 ca22     ..b...b.,.*"h`".
   13ec3:	4b6a 3a4e 4aca 4a6b 0042 8824 8aca 00e8     jKN:.JkJB.$.....
   13ed3:	c724 4a6a 2253 4ad2 476a 0044 e222 222e     $.jJS".JjGD.".."
   13ee3:	20e2 cb20 4b60 2a4a 4aca 486b 004f 0e0e     .  .`KJ*.JkHO...
   13ef3:	aaaa e0e2 df26 4164 2949 49df 4f69 0041     ....&.dAI).IiOA.
   13f03:	020e 0848 2042 957d 5515 007d 720b 7a42     ..H.B }..U}..rBz
   13f13:	000b e222 2a20 204a bee0 aaaa 3faa aaaa     ..". *J .....?..
   13f23:	beaa 00e0 aaaa 8ac8 e0aa fb00 aaa8 0ba8     ................
   13f33:	aaa8 fba8 0000 2a2e 2a0e 200e 3f08 04c0     .......*.*. .?..
   13f43:	3aef ea2a 2a3f 00ea 000e aaea a0ea 3f08     .:*.?*.........?
   13f53:	7ec1 6f45 6dd5 7e45 0001 2a0e 44a4 20a2     .~Eo.mE~...*.D. 
   13f63:	3f08 00c0 aa7a bead e9ab 003a 000e 4aaa     .?..z.....:....J
   13f73:	40e8 7f01 55d5 097f 87f1 f981 0009 8224     .@...U........$.
   13f83:	0ee4 2004 d77c 577c 037c 55a4 ff04 0004     ... |.|W|..U....
   13f93:	0e2c aaaa 602a c722 a518 a5fd 04bd 9f90     ,...*`".........
   13fa3:	0090 0e0e e022 002e b04f 2fe8 2fe8 04e8     ...."...O.././..
   13fb3:	21fe 003e 2ce0 400e 6068 2a2f 6a4a afaa     .!>..,.@h`/*Jj..
   13fc3:	6ea0 2140 002f 0624 26a2 2004 4f88 0000     .n@!/.$..&. .O..
   13fd3:	b495 bf94 b494 0095 222c aaaa a0aa 92ff     ........,"......
   13fe3:	28ff 2a2b 282b 20ff 00a0 e0e0 a0a4 c0c2     .(+*+(. ........
   13ff3:	92ff 00ff aaba aefb abfa 00ba e0e0 a42a     ..............*.
   14003:	20c4 92ff 01ff aafe afaa aaaa 00fa e0e0     . ..............
   14013:	ae2a 20aa 92ff 00ff a8f8 faad a9a8 00f8     *.. ............
   14023:	e0e0 e2c0 c060 92ff 00ff fc20 5557 7d55     ....`..... .WUU}
   14033:	0040 e0e0 44aa 204a 92ff 00ff 557d d754     @....DJ ....}UT.
   14043:	5554 007c e0e0 2e2c a00c ff00 ff92 ff92     TU|...,.........
   14053:	7e00 4ad2 007b 2e68 0a0e e0a2 92ff 00ff     .~.J{.h.........
   14063:	6faa ea3a 6f3a 00aa e0e0 aa2a e08a 92ff     .o:.:o....*.....
   14073:	08ff 00cf a8ff f9ae 0002 e2e0 aaca a022     ..............".
   14083:	945f d4bf 001f 52df 415e 007f aaaa e2a0     _......R^A......
   14093:	6022 5289 c03f 5e10 f253 5e53 0010 c042     "`.R?..^S.S^..B.
   140a3:	e24a a084 55f5 9557 0095 a0bf a0ef 00bf     J....UW.........
   140b3:	e424 a420 a084 d53f 755f 001f 223e 22ff     $. ...?._u..>"."
   140c3:	003e 02e0 22e0 e0e4 955f b59f 00df e296     >....".._.......
   140d3:	9287 00f2 02e0 88e0 80e8 aa6a eaaa 223e     ..........j...>"
   140e3:	4ad2 4a44 0072 0e2c 622a 6068 c929 6f59     .JDJr.,.*bh`).Yo
   140f3:	3f10 49c0 49ff 0049 2e22 020e 20e2 4fe0     .?.I.II.".... .O
   14103:	0060 f55f 5555 f555 005f 200e c446 4046     `._.UUU._.. F.F@
   14113:	4fe0 0060 8a7b 8b32 8af2 00fb 200e aeea     .O`.{.2...... ..
   14123:	e0aa 8d05 174d 05fd cf2d 556d 0065 6ae2     ....M...-.mUe..j
   14133:	6a66 e062 7d41 7545 d555 7555 7d45 0041     fjb.A}EuU.UuE}A.
   14143:	4022 002e 2042 7f12 5f41 5555 55df 5f55     "@..B ..A_UU.UU_
   14153:	0041 0268 00c0 00e0 7f00 5c50 5e75 40d0     A.h.......P\u^.@
   14163:	525f 005d 8a68 80e8 c0e4 7f12 7248 d25f     _R].h.......Hr_.
   14173:	5f40 5050 005f 2468 0e86 e022 7f12 5a40     @_PP_.h$.."...@Z
   14183:	4442 44d9 5a42 0040 2a68 8424 202a 7f00     BD.DBZ@.h*$.* ..
   14193:	5544 7f55 7fd5 5f55 0044 2468 0e8e 2084     DUU...U_D.h$... 
   141a3:	e02f 002f 5744 fd55 5755 0044 8844 440e     /./.DWU.UWD.D..D
   141b3:	004e 7a4a 7acf 004a 487f 8f48 0088 e848     N.Jz.zJ..HH...H.
   141c3:	c042 000e 7a4b 7aca 204b 44c8 4041 007f     B...Kz.zK .DA@..
   141d3:	aaea 48e0 e022 5f10 7555 d555 7555 5f55     ...H".._UuU.UuU_
   141e3:	0010 0624 222a 4068 aa09 3a6c ee2a 2a2a     ..$.*"h@..l:*.**
   141f3:	aa6c 0009 aa0e aaaa 00ae 0b68 4aff 7f00     l.........h..J..
   14203:	d252 7e53 0000 e080 222e a084 33a9 31fd     R.S~....."...3.1
   14213:	04a9 e618 3e21 0020 4a2a 2420 2084 7f40     ....!> .*J $. @.
   14223:	d554 407f c05e 7f41 0040 0424 4220 2004     T..@^.A.@.$. B. 
   14233:	ca58 c87c 0358 a8fc aaa8 00fe aa2a aaae     X.|.X.......*...
   14243:	20aa 5642 d46a 4042 d642 546a 0042 0e2c     . BVj.B@B.jTB.,.
   14253:	622a 6068 003c 20ff fd41 5755 fd55 0041     *bh`<.. A.UWU.A.
   14263:	0c2c 8e24 2084 0078 20ff 7d04 57d5 7d55     ,.$.. x.. .}.WU}
   14273:	0004 0c2c 2e22 2022 4990 5700 ff54 5454     ..,."." .I.WT.TT
   14283:	54ff 0057 0e2c 8880 e00a 4990 4100 f55f     .TW.,......I.A_.
   14293:	5555 5ff5 0041 022c 8824 2042 4990 5f00     UU._A.,.$.B .I._
   142a3:	5555 55f5 5f55 0040 2e2c 4444 204e 4990     UU.UU_@.,.DDN .I
   142b3:	ff00 be80 ebaa beaa 0080 2c2c 2e2c 200c     ..........,,,.. 
   142c3:	4990 3f00 2828 aafe aaaa 00b6 6a68 2a4e     .I.?((......hjN*
   142d3:	6060 4990 fb00 fb02 2312 53e2 0048 2e2c     ``.I.....#.SH.,.
   142e3:	2e2e 202e 4990 5700 4965 5060 c585 00a7     ... .I.WeI`P....
   142f3:	0e2c 2222 e022 4990 aa00 96ca aac7 c492     ,."""..I........
   14303:	00a2 0a2c 88ac a0ca 4990 fc04 928b 930a     ..,......I......
   14313:	8ae2 00fb 002c aeea e0aa 4990 4300 5a7a     ....,......I.CzZ
   14323:	6aef 7a5a 0043 0e2c 440c e0c2 4990 5000     .jZzC.,..D...I.P
   14333:	4d64 45d6 6548 0050 042c 248e 2084 4990     dM.EHeP.,..$. .I
   14343:	ab24 2372 2322 ab72 0024 2e2c 2e2e 202e     $.r#"#r.$.,.... 
   14353:	00d9 61af 613f 00af 92ff 00ff 02e0 00c0     ...a?a..........
   14363:	e0e0 4990 6000 545f 54d4 5457 0060 0a2c     ...I.`_T.TWT`.,.
   14373:	88ac a0ca 4990 4b62 4955 49d1 4b55 0062     .....IbKUI.IUKb.
   14383:	0e2c 2222 002e 00d9 949d f794 9d00 9494     ,.""............
   14393:	00f7 4ae0 042e e0a2 a925 1183 8ba1 81f1     ...J....%.......
   143a3:	f98b 0021 4844 080e 4044 dd33 9c11 fc83     ..!.DH..D@3.....
   143b3:	ff20 ff49 0049 4e22 0e0e 202e 003e 20ff      .I.I."N... >.. 
   143c3:	5f40 f555 5f55 0040 e000 4446 4046 5252     @_U.U_@...FDF@RR
   143d3:	4aea ca4a 4a4a 52ea 0052 aa0e aaaa 00ae     .JJ.JJ.RR.......
   143e3:	5564 7c56 d554 7c54 5556 0064 aaa2 aaae     dUV|T.T|VUd.....
   143f3:	a0a2 5161 755f d555 7555 515f 0061 4422     ..aQ_uU.Uu_Qa."D
   14403:	8480 2042 5568 456f cf40 4b48 5f68 0068     ..B hUoE@.HKh_h.
   14413:	8424 482a 004a 4f60 5b4a ca6a 4a7b 5b4a     $.*HJ.`OJ[j.{JJ[
   14423:	006e 6a68 eaaa 60aa 4468 405f d546 5555     n.hj...`hD_@F.UU
   14433:	457d 0066 e048 a402 204a 5f90 0000 4e42     }Ef.H...J ._..BN
   14443:	5fea 4eea 0042 402e ae2a 20aa ef22 0835     ._.NB..@*.. ".5.
   14453:	fb49 0849 04ff 0002 020e 442e 00e0 cf42     I.I........D..B.
   14463:	0572 abfa ffaa abaa 00fa 000e 0e48 4008     r...........H..@
   14473:	cf42 0074 aabb abaa aaaa 00bb 000e aeea     B.t.............
   14483:	e0aa 5f90 8200 a2d2 89f4 a4d9 00f2 402e     ..._...........@
   14493:	a20a 0044 5754 557d 107d 64a4 643f 00a4     ..D.TW}U}..d?d..
   144a3:	228e 88e0 80e8 a5ff a5af e5af f510 f784     ."..............
   144b3:	0010 60e0 2460 2084 ff00 9293 00f3 7c44     ...``$. ......D|
   144c3:	7cc7 0044 e268 88e0 80e8 80ff f788 5f10     .|D.h.........._
   144d3:	d575 5f75 0010 88e0 4e44 4044 f827 3f20     u.u_....DND@'. ?
   144e3:	7f20 d555 5555 007f c22a 2a46 6062 fe20      .U.UU..*.F*b` .
   144f3:	3e21 7f09 5d40 4fc9 0049 8606 000e 6068     !>..@].OI.....h`
   14503:	fe20 3e21 d555 557f d57f 005f 8606 e024      .!>U..U.._...$.
   14513:	20e4 fe20 3e21 5560 da55 5357 0064 8606     .  .!>`UU.WSd...
   14523:	6a04 80c0 9a13 d697 a2ba d6ba 9a97 0013     .j..............
   14533:	ea22 aaaa 20e2 5533 2299 7e40 fe54 fe55     ".... 3U."@~T.U.
   14543:	0040 2422 8a8a 80e8 5533 2299 4f88 6a20     @."$....3U.".O j
   14553:	52d7 0068 2422 2a2c 20ea dd33 0011 407f     .Rh."$,*. 3....@
   14563:	d27e 527f 007e 4222 aac2 a0ea da36 0012     ~..R~."B....6...
   14573:	4f60 cb4a 5252 0060 8044 88ac a08c b55f     `OJ.RR`.D....._.
   14583:	bf55 b555 001f 007f 00ff 0e2c 200c e082     U.U.......,.. ..
   14593:	5744 57fd 1544 9f55 dfb5 0004 4e0e 2e00     DW.WD.U......N..
   145a3:	0000 aaaa abfa 02aa 4a7a 4aca 007a ea44     ........zJ.Jz.D.
   145b3:	aaaa 00ae ff88 0088 455d d76d 456d 005d     ........]Em.mE].
   145c3:	804c 6ae0 e060 5b54 52f2 035e f622 4b4a     L..j`.T[.R^.".JK
   145d3:	0074 222a 4248 202a 5e51 55f4 1057 fa21     t.*"HB* Q^.UW.!.
   145e3:	7a44 0041 0424 4220 2004 ff10 4b10 5b6a     DzA.$. B. ...Kj[
   145f3:	fa4a 5a4b 006b 8e4c aa2a e0a2 ff20 0020     J.KZk.L.*... . .
   14603:	283f aaff a6ab 00b1 864c e28a a0ea baa2     ?(......L.......
   14613:	aeab eaaa aeaa baaa 00a2 8aac eae0 e0aa     ................
   14623:	ff22 0224 3aef ea2a 2a3f 00ea 002e aaea     ".$..:*.?*......
   14633:	a0ea 4f4b 4ff8 0348 4f48 4ff8 004b 2e68     ..KO.OH.HO.OK.h.
   14643:	6800 000e 5752 f55d 5d57 1055 10ff 00d3     .h..RW].W]U.....
   14653:	220e 20e2 602c 5252 52fa 0a52 a2f2 baa2     .". ,`RR.RR.....
   14663:	00a2 aa0e aaaa 00ae ff10 5010 755f 55d5     ...........P_u.U
   14673:	5f75 0050 824c 002c 60e2 ff22 0024 745f     u_P.L.,..`".$._t
   14683:	df55 7455 005f 002e c4e0 e0c2 ff21 0022     U.Ut_.......!.".
   14693:	4a54 eb56 4a56 0054 002e 8e88 8088 ff21     TJV.VJT.......!.
   146a3:	9f22 ff51 9f52 bf60 0020 0e2e 0e0e 2084     ".Q.R.`. ...... 
   146b3:	fd85 a8aa fda8 aa85 a890 00c5 4822 088e     ............"H..
   146c3:	204a 5f41 f555 5555 f555 5f55 0041 424a     J A_U.UUU.U_A.JB
   146d3:	42e0 404a 5f41 f555 5555 f555 5f55 0041     .BJ@A_U.UUU.U_A.
   146e3:	e248 2222 40e8 5e41 f555 5755 f555 5e55     H."".@A^U.UWU.U^
   146f3:	0041 4444 446e 4044 7d47 d755 5555 d755     A.DDnDD@G}U.UUU.
   14703:	7d55 0047 a422 4444 20a2 5d40 f555 575d     U}G.".DD. @]U.]W
   14713:	555d 5df7 0041 042c a402 60a2 4a4a f557     ]U.]A.,....`JJW.
   14723:	455d f55d 5a57 0042 4022 002e 2042 5f40     ]E].WZB."@..B @_
   14733:	f454 755f f555 545f 0054 2468 2404 2024     T._uU._TT.h$.$$ 
   14743:	424b e25f 424b 4b5c 4fe8 0048 e8e8 24e0     KB_.KB\K.OH....$
   14753:	2084 5754 e140 525f f75a 5e52 0043 402e     . TW@._RZ.R^C..@
   14763:	c4c4 e0c2 81ff e7bd bda5 ff00 9191 00f3     ................
   14773:	0424 4220 2004 555f f555 5d55 eb48 5f48     $. B. _UU.U]H.H_
   14783:	0048 2ee4 0a04 002e 535e 53f2 005e 535e     H.......^S.S^.^S
   14793:	53f2 005e 0e2c 2c40 600e ff26 4124 f55f     .S^.,.@,.`&.$A_.
   147a3:	5555 5ff5 0041 020e 8824 2042 ff23 7022     UU._A...$.B #."p
   147b3:	fa03 fa03 5a63 0043 020e e2e2 e0e2 ff26     ....cZC.......&.
   147c3:	0824 4a7b 4b92 4a72 007b 000e aeea e0aa     $.{J.KrJ{.......
   147d3:	2621 24ff 535a d672 5272 005a e000 882c     !&.$ZSr.rRZ...,.
   147e3:	e0aa ff23 0022 546a c56f 5565 0069 000e     ..#.".jTo.eUi...
   147f3:	e400 4044 ff26 0024 5362 c965 5365 0062     ..D@&.$.bSe.eSb.
   14803:	000e 220e 002e 94f7 84f7 80ff c130 415e     ..."........0.^A
   14813:	0070 8288 68e0 6008 4f88 7c40 fd57 fd55     p....h.`.O@|W.U.
   14823:	7c57 0040 222c 22e2 20e2 a2bf a2fc 00bf     W|@.,".". ......
   14833:	5452 56fd 0034 aaea 8ae0 80e8 a2bf a2fc     RT.V4...........
   14843:	20bf 4acb 4afa 004b aaea e2e0 e022 a2bf     . .J.JK....."...
   14853:	a2fc 00bf 547f 54d7 007d aaea e2e0 200c     .....T.T}...... 
   14863:	a2bf a2fc 24bf a679 4a3a 003b aaea 2ae0     .....$y.:J;....*
   14873:	204a 7f42 0f48 fd41 f745 f555 0045 4c0c     J B.H.A.E.U.E..L
   14883:	8e24 2084 f88f 808f 2a3f fe2b ae21 0020     $.. ....?*+.!. .
   14893:	c2c4 c2c4 c0c2 ff84 8f88 29e8 f92e 292b     ...........)..+)
   148a3:	00ea 4c0c 2468 2084 ff84 8f88 c35c 404c     ...Lh$. ....\.L@
   148b3:	c35c 004c 4c0c e4c4 e0c4 ff00 be80 eaab     \.L..L..........
   148c3:	aaab beab 0080 6868 a662 6028 a2ba aaaa     ......hhb.(`....
   148d3:	fba2 aaa2 a2aa 00ba 8ee8 8e88 e08a e45c     ..............\.
   148e3:	445f 5561 ff55 5555 0061 e888 22e2 e022     _DaUU.UUa...."".
   148f3:	e45c 445f ff00 9f95 9f95 00f5 e888 e268     \._D..........h.
   14903:	a084 007f 08ff 10ff ff20 7f25 00a5 e4e2     ........ .%.....
   14913:	6ee2 202e 4262 4afa ce4b 4a4b 42fa 0062     .n. bB.JK.KJ.Bb.
   14923:	ae44 0822 204a aafa aaff 00fa a0bf a0ef     D.".J ..........
   14933:	00bf e868 2c60 200c 92ff 01ff ff92 0092     ..h.`,. ........
   14943:	ff10 0010 e0e2 000e e0e0 aafa aafe 11fa     ................
   14953:	9290 d0be 0098 aa2a aaae 20aa 407f 527f     ......*.... .@.R
   14963:	52ff f05e 202f 0038 c8c4 2ce8 200c 90f7     .R^./ 8....,. ..
   14973:	f29f 9f00 df95 d5b5 009f e4e2 0e0e e002     ................
   14983:	223e 22ff 443e 5457 54ff 0057 e422 e8e0     >".">DWT.TW."...
   14993:	e08a 223e 22ff 4b3e 4afa fa4a 004b e222     ..>".">K.JJ.K.".
   149a3:	aa4e e0aa 223e 22ff 003e aaef aabf 00ef     N...>".">.......
   149b3:	e222 88c2 a0ea 223e 22ff e43e 243f 407f     ".....>".">.?$.@
   149c3:	007f e222 86c6 c0c4 223e 22ff 003e 69bf     ..".....>".">..i
   149d3:	693f 00bf e222 4442 40e4 213f 407f 5f49     ?i..".BD.@?!.@I_
   149e3:	48c9 495f 0048 8806 080e 80e0 407f 007f     .H_IH........@..
   149f3:	684f cf5a 685a 004f 8088 eae0 e0e0 80ff     OhZ.ZhO.........
   14a03:	80bf 55ff 55ff d57f 005f 84a4 e0a4 20e4     ...U.U.._...... 
   14a13:	cf29 0049 7f49 1c89 ff00 0010 280e 080e     ).I.I........(..
   14a23:	e0e0 cf29 0049 95ff fb0a fb82 000a 200e     ..).I.......... 
   14a33:	24e0 2084 cf29 0049 507f d57d 7d55 0050     .$. ).I..P}.U}P.
   14a43:	200e 2ae0 204a d734 557d 547d 557d 557f     . .*J 4.}U}T}U.U
   14a53:	0055 24a6 c484 40e4 7f49 1289 9894 98f3     U..$...@I.......
   14a63:	9294 0012 e4e2 e882 4048 5350 927f 6a2a     ........H@PS..*j
   14a73:	aaaa eaaa 003e e280 2a4e 6068 ba20 baaa     ....>...N*h` ...
   14a83:	ffaa baaa baaa 0020 8cac caa8 a08c df28     ...... .......(.
   14a93:	6a4a 2a4a 4aca 5f6a 0048 c8aa 8888 a0ca     JjJ*.Jj_H.......
   14aa3:	df20 5575 3555 55d5 5f75 0040 644c 4444      .uUU5.Uu_@.LdDD
   14ab3:	406c dc20 5775 355d 55dd 5d75 0040 220a     l@ .uW]5.Uu]@.."
   14ac3:	44a6 0080 d03c 557f 3555 55d5 517d 005c     .D..<..UU5.U}Q\.
   14ad3:	e200 2222 002e c424 7555 3f55 55d5 645f     ..""..$.UuU?.U_d
   14ae3:	0044 242c 040e 002e ff00 24a4 ef5a 244a     D.,$.......$Z.J$
   14af3:	ffa4 0000 c8aa 8888 a0ca 3f08 68c0 755f     ...........?.h_u
   14b03:	55d5 5f75 0068 020e 2e40 2004 3f08 00c0     .Uu_h...@.. .?..
   14b13:	d77c 7d55 d755 007c 000e 220e 002e 0700     |.U}U.|...."....
   14b23:	557d 57d5 5555 077d 0000 664c 444c 406c     }U.WUU}...LfLDl@
   14b33:	c47f 007f 577c 7fd4 5655 007d c2c4 0e48     ....|W..UV}...H.
   14b43:	60aa d77c 577c 027d 4a49 4aff 0049 0e2c     .`|.|W}.IJ.JI.,.
   14b53:	a2aa 60e2 7454 a759 7c00 54d7 7c57 0000     ...`TtY..|.TW|..
   14b63:	2c8a c002 e0e2 92ff 00ff 5f41 55f5 5ff5     .,........A_.U._
   14b73:	0041 e0e0 4822 2042 92ff 00ff 545e fe54     A..."HB ....^TT.
   14b83:	d554 005e e0e0 888c 80ae 92ff 00ff 735a     T.^...........Zs
   14b93:	d652 7252 005a e0e0 882c e08a 945f d4bf     R.RrZ...,..._...
   14ba3:	491f 7fc9 c949 0049 aaaa 0ea0 0000 fd02     .I..I.I.........
   14bb3:	5755 3595 a888 a99f 00cd 4802 c242 20e2     UW.5.......HB.. 
   14bc3:	497f 00bf 88ff 49ff 4b69 00ad 80a4 80e8     .I.....IiK......
   14bd3:	002e 4fe0 0f60 aff9 a9a9 f9af 000f 220e     ...O`.........."
   14be3:	44a4 204a 7d45 5456 fe55 5455 7d56 0045     .DJ E}VTU.UTV}E.
   14bf3:	ae44 8444 20a2 7547 55d5 4774 0b08 49f8     D.D.. Gu.UtG...I
   14c03:	004e 4ce4 242e 2084 7546 5655 d754 5455     N..L.$. FuUVT.UT
   14c13:	7555 0046 4844 c8a2 4044 7758 555d d555     UuF.DH..D@Xw]UU.
   14c23:	5555 775d 0058 440e 4444 006e 4f88 7e01     UU]wX..DDDn..O.~
   14c33:	5e48 ca4a 5e4a 0048 a22c a2a2 a0a2 7f00     H^J.J^H.,.......
   14c43:	5f48 5262 53d7 7e56 0053 0e68 440a e0a0     H_bR.SV~S.h..D..
   14c53:	7f12 5151 557a 55d5 517a 0051 0e68 aaaa     ..QQzU.UzQQ.h...
   14c63:	00ae 7f12 5f40 5555 55d5 5f55 0040 2e68     ....@_UU.UU_@.h.
   14c73:	2e2e 202e 7f12 5f40 4155 41df 5f55 0040     ... ..@_UA.AU_@.
   14c83:	2268 44a4 20a2 5444 55c7 5e44 ff53 5e53     h".D. DT.UD^S.S^
   14c93:	0040 c08a 0e48 4008 5f50 d575 5f75 2250     @...H..@P_u.u_P"
   14ca3:	4422 0088 4f44 4244 8024 7017 1017 fb02     "D..DODB$..p....
   14cb3:	aaae faab 0003 8844 260e e0a6 c05e 005f     ......D..&..^._.
   14cc3:	2aeb ee2b 2a2b 00eb 404c c0e0 e0c2 ff40     .*+.+*..L@....@.
   14cd3:	4f48 d120 557f 7f55 0051 2e68 4002 2004     HO ..UU.Q.h..@. 
   14ce3:	0b68 4aff 5704 fd55 5755 0004 e080 440e     h..J.WU.UW.....D
   14cf3:	004e 0b68 0aff 5945 c345 5945 0045 e080     N.h...EYE.EYE...
   14d03:	0e00 0000 ff55 7f55 5fd5 c024 405f 0070     ....U.U.._$._@p.
   14d13:	0f2f 1e42 100e 28bc 28fd 00bc f424 7449     /.B....(.(..$.It
   14d23:	0044 c88a 8888 80e8 0078 20ff 7f00 d555     D.......x.. ..U.
   14d33:	7f55 0000 0c2c 6a20 4060 003c 00ff 536a     U...,. j`@<...jS
   14d43:	c945 5345 006a 0c2c 220e 002e ff38 7f10     E.ESj.,.."..8...
   14d53:	4a4b 48cb 4a4b 007b 6868 e04a e04a 4990     KJ.HKJ{.hhJ.J..I
   14d63:	0400 f555 7f55 ff55 0044 002c 4e2c 004e     ..U.U.U.D.,.,NN.
   14d73:	0190 5252 4865 48f3 5265 0052 022c e042     ..RReH.HeRR.,.B.
   14d83:	2042 00d9 525e 52ff 005e 2ff0 0030 48e0     B ..^R.R^../0..H
   14d93:	40e8 6068 4990 ba00 faaa aaaa aafa 00ba     .@h`.I..........
   14da3:	0a2c aec8 a08c 4990 fa0e aeaa aeaa fbaa     ,......I........
   14db3:	000e 222c 44a4 20a2 00d9 505f 5575 55df     ..,".D. .._PuU.U
   14dc3:	5075 005f e0e0 44c4 e0c2 4990 5544 55d5     uP_....D...IDU.U
   14dd3:	547f 54d4 0045 2a2c e842 204a 4990 5760     .T.TE.,*B.J .I`W
   14de3:	5555 55df 5755 0060 2e2c c444 204e 00d9     UU.UUW`.,.D.N ..
   14df3:	a0ff aaab afaa aaaa 00eb e0e0 4eea e0a4     .............N..
   14e03:	003e 20ff fa0e aaae fbae 000e e000 a422     >.. ..........".
   14e13:	20a2 007e 00ff 447f d555 557f 005f e200     . ~....DU..U_...
   14e23:	02ca a0e0 5665 7d55 d755 7d55 5655 0065     ....eVU}U.U}UVe.
   14e33:	2402 848e 0022 5564 7c57 d554 7c54 5557     .$..".dUW|T.T|WU
   14e43:	0064 a282 4248 80a2 4372 4a7e ca4a 4a4a     d...HB..rC~JJ.JJ
   14e53:	437e 0072 aa80 aac8 80e0 4e6a 545a c25a     ~Cr.......jNZTZ.
   14e63:	4852 5c54 0064 c82a 88ae 00ca 5764 5a46     RHT\d.*.....dWFZ
   14e73:	df6a 6a5a 435a 0068 aa2a aaae 20ac 5262     j.ZjZCh.*.... bR
   14e83:	546a ca7d 6c55 7a52 0062 aa00 44aa 0080     jT}.UlRzb....D..
   14e93:	5f90 0000 afb8 aafa affa 00b8 402e 8e88     ._...........@..
   14ea3:	8088 f589 a5a5 8fe5 d52d 6f55 0049 4444     ........-.UoI.DD
   14eb3:	444e 404c cf42 0a74 aefb aaaa faaa 0003     NDL@B.t.........
   14ec3:	000e a6ea e002 cf42 0a74 57a4 ff00 afa8     ......B.t..W....
   14ed3:	00fa 000e 2a2c a0a2 5f90 2200 a32a 227e     ....,*..._."*.~"
   14ee3:	a37e 002a 402e aa0e 00ae 88ff 02f7 4093     ~.*..@.........@
   14ef3:	34aa a62f 0049 82e8 aac2 2022 e13e 523e     .4/.I....." >.>R
   14f03:	52ff 085e 21fe 003e 6868 40e8 6068 d584     .R^..!>.hh.@h`..
   14f13:	95a6 0df4 d584 95a6 00f4 8888 888e 8088     ................
   14f23:	7f20 2aaa 207f 55ff 5555 0033 0424 4220      ..*. .UUU3.$. B
   14f33:	2004 aa0a ba92 2aee baee aa92 008a 2c22     . .....*......",
   14f43:	8e88 6022 84bc 07fd abf9 f9ad aea9 00f9     .."`............
   14f53:	2e8a 2e24 2004 dd33 6411 405f 55d7 555d     ..$.. 3..d_@.U]U
   14f63:	0077 4022 e2e0 e022 5554 55fd 0555 5555     w."@..".TU.UU.UU
   14f73:	57fd 0054 0624 222a 6060 ff22 0024 f755     .WT.$.*"``".$.U.
   14f83:	0f55 f555 0055 002e 4e44 4044 ff11 4012     U.U.U...DND@...@
   14f93:	52ff 40ff 487f 008f 0a2e cac8 e0c0 ff22     .R.@.H........".
   14fa3:	4824 4aff 48ff 21fe 003e 002e e0e8 6068     $H.J.H.!>.....h`
   14fb3:	ff22 0024 5f68 ca6a 5f6a 0068 002e ae28     ".$.h_j.j_h...(.
   14fc3:	2088 ff48 814a aaff 80ff 4659 0079 22ec     . H.J.....YFy.."
   14fd3:	a222 a0a2 4444 44ff 60bf e92f 602f 00bf     "...DD.D.`/./`..
   14fe3:	c2e4 22a2 a02a ff22 0024 c560 d775 c975     ..."*.".$.`.u.u.
   14ff3:	0060 002e 4e44 4044 ff22 0824 aaff a8af     `...DND@".$.....
   15003:	faaa 000b 042e e0c8 a0a4 ff21 0220 5253     ..........!. .SR
   15013:	7454 aaab 00aa 082e a8ea a0ea ff22 0024     Tt..........".$.
   15023:	7a57 7f52 ba52 0097 002e aeea e0aa ff22     WzR.R.........".
   15033:	0024 654d efb5 65b5 004d 002e c4e4 e084     $.Me...eM.......
   15043:	ff10 4010 d574 4076 41fe 007e 804c 82ae     ...@t.v@.A~.L...
   15053:	6048 ff22 0024 5f50 df75 5f75 0050 002e     H`".$.P_u.u_P...
   15063:	2e22 2022 ff22 5024 d577 5067 21fe 003e     "." ".$Pw.gP.!>.
   15073:	002e e0e4 6068 ff10 0010 d77c 7c44 d744     ....h`....|.D|D.
   15083:	007c 804c aa0e 00ae ff22 0024 aaba 02ef     |.L.....".$.....
   15093:	aabf 00ea 002e 88ac a08c ff80 9292 00ff     ................
   150a3:	62be 6222 00be 444c e0e0 a0a2 f547 f55f     .b"b..LD....G._.
   150b3:	0047 4949 49fb 0049 e444 2240 20e2 f547     G.II.II.D.@". G.
   150c3:	f55f 0047 4774 47dc 0074 e444 2440 2084     _.G.tG.Gt.D.@$. 
   150d3:	7f48 f555 5555 f55f 5555 0055 442c c664     H.U.UU_.UUU.,Dd.
   150e3:	6044 4844 ed40 5444 ec44 4841 0044 e2e0     D`DH@.DTD.AHD...
   150f3:	0e2c c022 5053 da57 5540 f55c 5954 0054     ,.".SPW.@U\.TYT.
   15103:	c4e2 0c2c 200e 5649 e845 4140 f55f 5f55     ..,.. IVE.@A_.U_
   15113:	0040 28aa 2e2e 202e 2621 24ff 5710 5ff5     @..(... !&.$.W._
   15123:	57f5 0010 e000 4c2e 204e ff26 4024 577c     .W.....LN &.$@|W
   15133:	55fd 57fd 007c 000e 220e 002e ff23 0022     .U.W|...."..#.".
   15143:	92ea 06eb 93ea 00ea 000e 442a 20a2 ff26     ..........*D. &.
   15153:	0024 aa7a baad eaa9 0038 000e 4aaa 40e8     $.z.....8....J.@
   15163:	2621 24ff 5f50 d575 5f75 0050 e000 4e44     !&.$P_u.u_P...DN
   15173:	4044 ff26 1024 f59f 109f 21fe 003e 040e     D@&.$......!>...
   15183:	e0c4 6068 7d41 ff55 fd55 f648 3e21 0020     ..h`A}U.U.H.!> .
   15193:	022c 24e0 2084 a4bd 00bd 5966 c04f 484f     ,..$. ....fYO.OH
   151a3:	006f a0a2 002c 60e2 aaba aafa aafa b1ff     o...,..`........
   151b3:	b18e 00ff aea8 c88a e008 a2bf a2fc 00bf     ................
   151c3:	fa4b fa4a 004b aaea eae0 e0aa a2bf a2fc     K.J.K...........
   151d3:	40bf 5474 56d5 0074 aaea 8ae0 80e8 a2bf     .@tT.Vt.........
   151e3:	a2fc 00bf 5844 58c5 0044 aaea 88e0 80e8     ....DX.XD.......
   151f3:	ff84 8f88 5b14 f352 5b52 0014 4c0c 4c4c     .....[R.R[...LLL
   15203:	404c a292 aafb a8aa aaaa baab 0082 aa4e     L@............N.
   15213:	4ee0 e0aa ff84 8f88 725a d653 7252 005a     .N......ZrS.RrZ.
   15223:	4c0c c802 e0aa ff84 8f88 ff00 afa5 afa5     .L..............
   15233:	00e5 4c0c 2e2c 202c a5b7 b5b5 f5a5 b5a5     ...L,., ........
   15243:	a5b5 00b5 2ee0 0824 204a a7b4 aab6 fea2     ......$.J ......
   15253:	aaa2 a7b6 00b4 880e 8888 00ae afb5 b5b5     ................
   15263:	ffa5 b5a5 a7b5 00b5 440c 464c 006e 92ff     .........DLFn...
   15273:	00ff 5457 54ff 54ff 0057 c0c4 08e8 e00a     ..WT.T.TW.......
   15283:	a8fb a9af 00f9 a0bf a0ef 00bf c2e4 6a22     .............."j
   15293:	602a fa02 afaa aaaa afaa faaa 0002 acac     *`..............
   152a3:	8cae a0ac 497f 007f 4a6a fe4a 4a4a 006a     .....I..jJJ.JJj.
   152b3:	e0e2 aaea e0aa 407f 007f 535e f252 5352     .......@..^SR.RS
   152c3:	005e 8088 aaea e0aa 407f 207f 2aff 20ff     ^........@. .*. 
   152d3:	507f 009f cac4 cac8 e0c0 407f 007f f55f     .P.........@.._.
   152e3:	005f 92ff 00ff c0c4 404e e0e0 407f 007f     _.......N@...@..
   152f3:	5f68 d575 5f75 0068 8088 2e24 2004 fb02     h_u.u_h...$.. ..
   15303:	aeaa fbaa 2002 4422 0088 8e0a 028a 8024     ..... "D......$.
   15313:	90f7 f29f f900 abae fbaa 0003 e4e2 a484     ................
   15323:	e082 90f7 f29f 7348 fa0a 7302 0028 e4e2     ......Hs...s(...
   15333:	aa0e 00ae 9ff0 00f2 5564 7f44 9584 00a4     ........dUD.....
   15343:	402e 0e68 6008 90f3 929f 00f2 5465 54d7     .@h..`......eT.T
   15353:	0065 e4e2 c240 c0e0 223e 22ff 403e 45fd     e...@...>".">@.E
   15363:	55f7 00f5 e222 48c2 40e8 223e 22ff 113e     .U.."..H.@>".">.
   15373:	11ff 92ff 00ff e422 2e4e e082 223e 22ff     ......".N...>"."
   15383:	003e aabb aaab 00bb e422 eae0 e0ea 223e     >.......".....>"
   15393:	22ff 013e affa aaaa 00fb e422 a2c6 e082     .">.......".....
   153a3:	223e 22ff 533e 927f ff24 0001 e422 e0e0     >".">S..$..."...
   153b3:	008e 223e 22ff 003e d57d 5557 007d e422     ..>".">.}.WU}.".
   153c3:	22e0 20e2 223e 22ff aabf aaab aaab 00bb     .". >"."........
   153d3:	e422 c8e8 e0ca 407f 007f aafa ff8a aa8a     "......@........
   153e3:	00fa 8088 e8e8 e0e8 203f 003f a0ff aaae     ........? ?.....
   153f3:	aabf 00ee 8688 e880 e0ca 203f 20ff 5f3f     ..........? . ?_
   15403:	df75 5f75 0010 e880 2ea2 2022 fa03 abaa     u.u_......" ....
   15413:	ffaa abaa faaa 0003 aa2a aaae 20aa cf29     ........*.... ).
   15423:	0049 7f41 d555 7f55 0041 200e 0024 2004     I.A.U.U.A.. $.. 
   15433:	5fd2 0052 7447 d555 7455 0047 200e c4e0     ._R.GtU.UtG.. ..
   15443:	e0c2 5fd2 0052 735a d652 7252 005a 200e     ..._R.ZsR.RrZ.. 
   15453:	882c e0aa dd31 5555 f457 5557 5d55 0011     ,...1.UUW.WUU]..
   15463:	4644 e4c0 4044 ff53 0092 6b5e 4aca d37a     DF..D@S...^k.Jz.
   15473:	0056 000e aa0e 00ae 5651 92ff cf20 c089     V.......QV.. ...
   15483:	c9a0 00af e000 220e e022 b129 b2fd 152a     ......."".)...*.
   15493:	4ae2 4571 007d 2802 0a2e 0022 ff53 0092     .JqE}..(..".S...
   154a3:	7447 d555 7455 0047 000e c4e0 e0c2 5651     GtU.UtG.......QV
   154b3:	947f 5560 da55 5357 0064 e000 6a04 80c0     ..`UU.WSd....j..
   154c3:	c524 456f 2f44 4aca 4a6a 004f e048 aa8e     $.oED/.JjJO.H...
   154d3:	e0aa c828 5c6a 3e49 5cc8 486a 0048 acaa     ..(.j\I>.\jHH...
   154e3:	aeaa 80aa cf28 5a6a 2f4a 5fc8 4f68 0048     ....(.jZJ/._hOH.
   154f3:	8a0e 0cae 002e df30 7555 3555 55d5 5d75     ......0.UuU5.Uu]
   15503:	0051 e468 4e4e e046 ff08 bf22 aaaa aabf     Q.h.NNF...".....
   15513:	bfaa 00a2 2e0e eaaa 20ae d57f 017f 509f     ......... .....P
   15523:	f417 5017 009f e024 88e0 e0a2 3f08 ffc0     ...P..$......?..
   15533:	fb8a 7c44 7cc7 0044 8e0e 882e 80e8 4f24     ..D|.|D.......$O
   15543:	0190 555d f55d 555d 005d 060e a206 6068     ..]U].]U].....h`
   15553:	ff04 7f55 7d04 fd55 5501 007d 2e2c a402     ..U..}U..U}.,...
   15563:	204a 92ff 00ff 524a f964 5264 004a e0e0     J ....JRd.dRJ...
   15573:	2ea8 a00a 92ff 00ff 6eb0 eb2a 6e2a 00b0     .........n*.*n..
   15583:	e0e0 ae2a 20aa 955f d5bf 001f 92fe 92ff     ..*.. _.........
   15593:	00fe 2422 aa40 a0ea d53f 157f 527f 007e     .."$@...?....R~.
   155a3:	407f 007f 4422 c4e2 80e8 7444 57d5 755c     .@.."D....Dt.W\u
   155b3:	fc4a 7e44 0003 0424 4220 2004 7f00 5542     J.D~..$. B. ..BU
   155c3:	557f 55c3 557f 0042 4468 e446 4044 5e48     .U.U.UB.hDF.D@H^
   155d3:	4060 f445 5e51 7450 0045 ae44 0822 204a     `@E.Q^PtE.D.".J 
   155e3:	7f12 5f40 d555 5575 5f55 0040 4868 6a62     ..@_U.uUU_@.hHbj
   155f3:	6028 7f12 5f42 5652 52c3 535e 005e 0e68     (`..B_RV.R^S^.h.
   15603:	eaaa 00ae 7f12 5156 485e 68df 5f4a 004a     ......VQ^H.hJ_J.
   15613:	6868 e260 a0ae 3340 7d41 7545 75d5 7d45     hh`...@3A}Eu.uE}
   15623:	0041 2468 e002 2004 5f00 d572 5172 a0bf     A.h$... ._r.rQ..
   15633:	a0ef 00bf 842c a480 a084 7555 77da 0453     ....,.....Uu.wS.
   15643:	f710 f784 0010 ac44 2408 2084 0b68 48ff     ......D..$. h..H
   15653:	fe23 0023 92ff 00ff e080 e0e2 e0e0 4f88     #.#............O
   15663:	5f00 f955 5151 55fd 005f 222c 222a 206e     ._U.QQ.U_.,"*"n 
   15673:	48fe 48fe 21fe f442 5448 0062 0e2c a222     .H.H.!B.HTb.,.".
   15683:	6068 4990 5b14 5af2 5a16 5bf2 0014 0e2c     h`.I.[.Z.Z.[..,.
   15693:	aaaa 00ae 4990 5700 f555 5755 4422 0099     .....I.WU.UW"D..
   156a3:	022c c4e2 8024 00d9 555f 55f5 005f 92ff     ,...$..._U.U_...
   156b3:	00ff 44e0 40e4 e0e0 4990 bc00 fda7 a5a5     ...D.@...I......
   156c3:	a7fd 00bc 042c e444 4044 a944 0653 8b4a     ....,.D.D@D.S.J.
   156d3:	ea0e a013 0040 ea22 aaae 20e2 4990 7f01     ....@.".... .I..
   156e3:	d955 597f 7f55 0001 222c 0848 2042 4990     U..YU...,"H.B .I
   156f3:	d700 92ba 92ff d6ba 0093 0e2c eaaa e0aa     ..........,.....
   15703:	4990 5700 d575 5067 21fe 003e 0e2c e044     .I.Wu.gP.!>.,.D.
   15713:	6068 4990 3f00 5f90 bf15 9593 00ff 0e2c     h`.I.?._......,.
   15723:	4e02 e042 4990 d000 d5a7 9515 a755 0050     .NB..I......U.P.
   15733:	022c 2226 2062 003c 00ff ef48 5f4a ef4a     ,.&"b <...H.J_J.
   15743:	0048 e000 aeaa a0aa 007c 10ff ff20 5555     H.......|... .UU
   15753:	55ff 0055 e000 6060 6060 007e 00ff 547e     .UU...````~...~T
   15763:	7de8 5468 007e e000 c8aa a0ca 003e 20ff     .}hT~.......>.. 
   15773:	d77c 7d45 d745 007c e000 220e 002e 5a6a     |.E}E.|...."..jZ
   15783:	d474 625a a0bf a0e7 00bf aaea 24e0 2084     t.Zb.........$. 
   15793:	aaff baab 9103 ffa2 a291 00ff e8e8 2ee0     ................
   157a3:	e002 cf42 0a74 a1ff a5bd abb1 00b5 060e     ..B.t...........
   157b3:	8080 002e 5f90 2400 0017 5774 57fd 0075     ....._.$..tW.Wu.
   157c3:	422e 2ec4 e022 5f68 df6a 6a4a 7e00 4ad2     .B..".h_j.Jj.~.J
   157d3:	007b ae0e 08aa e0a2 be22 eaaa 20bf d422     {.......".... ".
   157e3:	7448 0042 e260 622a 6068 aaff afa9 eaa8     HtB.`.*bh`......
   157f3:	5d40 ff41 0040 6260 22a2 6060 f806 aaae     @]A.@.`b."``....
   15803:	00ee 7454 74de 0054 aaaa 88c8 e0aa ff00     ..Tt.tT.........
   15813:	b3a9 bea4 aaab afaa 00e8 0e68 a40a 204a     ..........h...J 
   15823:	9fa8 cda8 6a39 bdaa e9ab 003a 042e a248     ....9j....:...H.
   15833:	40e8 da36 0012 5068 ca6f 506f 0068 8044     .@6...hPo.oPh.D.
   15843:	ae24 2084 ff22 0224 557f 4057 46f9 00db     $.. ".$..UW@.F..
   15853:	062e a206 6060 ff22 0024 aabb fba2 aaa2     ....``".$.......
   15863:	00bb 002e aeea e0aa ff22 0024 f51d a3bd     ........".$.....
   15873:	f5bd 001d 002e 8e24 2084 ff22 0024 477c     ......$.. ".$.|G
   15883:	d575 4775 007c 002e 222e 202e 4a49 50ff     u.uG|....". IJ.P
   15893:	5557 5057 49ff 004b 0424 4220 2004 535c     WUWP.IK.$. B. \S
   158a3:	fa5a 5f52 fa52 535a 005c aa0e aaae 00ae     Z.R_R.ZS\.......
   158b3:	7541 d555 5f75 d575 7553 0049 e244 2222     AuU.u_u.SuI.D.""
   158c3:	002e 5a4f ee4a 4a40 fb4e 4a4e 0042 aeea     ..OZJ.@JN.NJB...
   158d3:	8e08 0088 5349 da44 7a4a d84a 5176 005e     ....ISD.JzJ.vQ^.
   158e3:	0e0e 408e 6068 fd48 5d55 5df3 3323 33ed     ...@h`H.U].]#3.3
   158f3:	0022 4444 446e 4044 4e4a ee5b 404a ea4f     ".DDnDD@JN[.J@O.
   15903:	534a 0052 ecac c0a2 000e 5244 f048 555f     JSR.......DRH._U
   15913:	ff55 7555 005f 8424 4464 406e 555f 55f5     U.Uu_.$.dDn@_U.U
   15923:	005f a0bf a0e7 00bf 0424 2420 2084 555f     _.......$. $. _U
   15933:	55f5 205f 9f54 5488 003f e444 ae40 e04a     .U_ T..T?.D.@.J.
   15943:	f584 f595 ff84 f584 f595 0084 2e2e 2e2e     ................
   15953:	202e ff23 ff22 af80 afa9 8980 00bf 0c0e     . #."...........
   15963:	2e2e e002 ff26 0024 a557 15d5 a5d5 0057     ....&.$.W.....W.
   15973:	000e 622a 206a ff26 0720 b62d bcac ade7     ..*bj &. .-.....
   15983:	0037 0e0e aa0e e0e2 7642 fe5a 775a f642     7.......BvZ.ZwB.
   15993:	764a 0042 e222 aa2e a0aa ea8f eaac 008f     JvB."...........
   159a3:	223e 22ff 003e e8e8 22e0 e0e4 aaba aafa     >".">...."......
   159b3:	aafa 40ff 407f 00bf aea8 e08a e0e0 a2bf     ...@.@..........
   159c3:	a2fc 01bf aafe aaaf 00fa aaea aae0 a0ea     ................
   159d3:	a7b2 b5bd f5a5 b5af a5b5 00b5 220e e222     ............."".
   159e3:	2022 8961 ada9 f98b ad8b 89a9 0061 2a02     " a.........a..*
   159f3:	4a44 0022 e75c 104c d577 1077 a06f 003f     DJ".\.L.w.w.o.?.
   15a03:	808e e0e4 6068 5f50 f555 1f15 f515 5f55     ....h`P_U.....U_
   15a13:	00b0 6c46 4c44 4066 3724 aded 0db5 d595     ..FlDLf@$7......
   15a23:	d7ad 0014 222e 8420 204a 407f 127f 1a77     ....." .J .@..w.
   15a33:	5bfa fe0a 0053 8288 88c8 e08a 90f7 f29f     .[..S...........
   15a43:	7f00 7d51 7dd5 0050 c4e2 2a68 204a 90f7     ..Q}.}P...h*J ..
   15a53:	f29f 6b4c cf5a 6b5a 004c e4e2 0e0c 004c     ..LkZ.ZkL.....L.
   15a63:	90f3 f29f a901 a7b1 a1fd 0031 e4e2 0e2c     ..........1...,.
   15a73:	200c 223e 22ff 5f41 55f5 5ff5 0041 e422     . >"."A_.U._A.".
   15a83:	4862 2042 223e 22ff 685e cf5a 6a5a 004c     bHB >"."^hZ.ZjL.
   15a93:	e422 2cc6 e08a f505 9597 0cf5 95f5 f597     "..,............
   15aa3:	0005 220e e2e0 002e 407f 007f f51d a3bd     ...".....@......
   15ab3:	f5bd 001d c0c4 0e48 4008 b9e5 e58b 89b9     ......H..@......
   15ac3:	7ee4 4ad2 007b 442a 88a2 c0a2 80ff 809f     .~.J{.*D........
   15ad3:	57fc 7cc4 d744 007c 8624 aa0e 00ae aafa     .W.|D.|.$.......
   15ae3:	ff8a 8aaa 10fa 10ff 0050 a8a8 aca8 200c     ........P...... 
   15af3:	aafa aaff 24fa 9454 5494 0027 a8a8 22a0     .....$T..T'...."
   15b03:	0048 cf29 0049 6f48 ca5a 6f5a 0048 200e     H.).I.HoZ.ZoH.. 
   15b13:	c82a 60ea d534 fd59 1155 d935 fd51 0054     *..`4.Y.U.5.Q.T.
   15b23:	222a 4248 202a 5350 92ff 5274 5ed2 5154     *"HB* PS..tR.^TQ
   15b33:	0074 e080 aa0a 40a2 c12e 5f61 2541 49d9     t......@..a_A%.I
   15b43:	496d 0048 222e e2e2 202e c121 557f 3555     mIH.."... !..UU5
   15b53:	55d5 417f 0041 262c 2ca2 202c d528 604a     .U.AA.,&.,, (.J`
   15b63:	3354 50dc 5e72 0044 acaa 8c8e a0aa df31     T3.Pr^D.......1.
   15b73:	5b71 3555 5bd5 5f71 0051 4ce0 4844 e062     q[U5.[q_Q..LDHb.
   15b83:	3f08 00c0 aaba fba2 aaa2 00ba 000e e8e8     .?..............
   15b93:	e0e8 4f88 7400 55df 0875 43fc 007c 262c     ...O.t.Uu..C|.,&
   15ba3:	e2a6 e0e2 9f44 be60 bfaa 3eea 9f90 0090     ....D.`....>....
   15bb3:	0a0e cac8 002e 92ff 00ff f557 0057 2412     ..........W.W..$
   15bc3:	00d9 e0e0 6062 8024 aaff abfe ffa8 7f20     ....b`$....... .
   15bd3:	7fa5 00a5 88e8 0e2e 202e 955f d5bf 001f     ......... _.....
   15be3:	525e 52d3 005e 2422 c240 c0e0 7f00 5a56     ^R.R^."$@.....VZ
   15bf3:	5a7f 5ad6 5a7e 0056 4e68 aaaa e0aa 7f12     .Z.Z~ZV.hN......
   15c03:	7f40 f748 6a5a 6f5a 0040 0e68 aaa6 60ea     @.H.ZjZo@.h....`
   15c13:	7f12 7955 5d55 5dc3 5555 005d e468 4a4a     ..UyU].]UU].h.JJ
   15c23:	e044 6380 fe00 5a4b a889 a99f 00c9 0a68     D..c..KZ......h.
   15c33:	c4ca 20e2 c754 0055 007f 00ff c754 0054     ... T.U.....T.T.
   15c43:	00ac 8006 808e c754 0055 5f90 0010 c755     ......T.U.._..U.
   15c53:	0055 00ac 402e 000e 0b68 20ff 00bf 2a6b     U....@..h.. ..k*
   15c63:	2afa 002b e280 aac2 a0aa 0b68 4aff 7f00     .*+.......h..J..
   15c73:	5555 55ff 005f e080 e268 e022 0b68 0aff     UU.U_...h.".h...
   15c83:	0069 c949 c97f 0049 e0c0 6080 6060 003c     i.I...I....```<.
   15c93:	10ff 56e9 2679 26f8 00a1 082c 6060 6060     ...Vy&.&..,.````
   15ca3:	4990 ff08 082a a0bf a0e7 00bf 2a68 2440     .I..*.......h*@$
   15cb3:	2084 4990 121e 9ef2 9e91 12f2 001e aa2c     . .I..........,.
   15cc3:	e8c8 a0ca 0190 cf7a 7a4a fe10 3e21 0020     ......z.Jz..!> .
   15cd3:	2c2c 06ae 0086 ff18 521e 52ff 907f f097     ,,.......R.R....
   15ce3:	001f 480e 24e4 2084 003e 00ff 557f 4057     ...H.$. >....UW@
   15cf3:	46f9 005b e000 6a60 4022 007e 64ff e4bf     .F[...`j"@~..d..
   15d03:	973f 97e2 00f2 e800 e08a 808e 4a6f 605d     ?...........oJ]`
   15d13:	cb4a 5774 5a54 0062 c0e4 aea2 20aa f806     J.tWTZb...... ..
   15d23:	aaae 01ee 7454 74de 0054 aa2a aaae 20aa     ....Tt.tT.*.... 
   15d33:	4f88 ff02 f794 7a48 7acf 0048 2a2c 22aa     .O....Hz.zH.,*."
   15d43:	20a2 da36 6212 fb88 fbaa fbaa 0088 8044     . 6..b........D.
   15d53:	ae2e 20ae dd33 7d11 55d7 207d 21fe 003e     ... 3..}.U} .!>.
   15d63:	4222 60c4 6068 5f11 ff55 5f55 1011 10ff     "B.`h`._U.U_....
   15d73:	00d7 c446 40c6 602c ff22 0024 546a c25a     ..F..@,`".$.jTZ.
   15d83:	545a 007a 002e aeac a08c 5551 d57f 4a51     ZTz.......QU..QJ
   15d93:	ea5f 5f4a 004a e424 ea20 00ae f547 f55f     _.J_J.$. ...G._.
   15da3:	2a47 5fc3 4a43 007f e444 0e48 e00a 455d     G*._CJ..D.H...]E
   15db3:	f55f 575d ff50 7750 0050 e4e0 02c4 c0c2     _.]WP.PwP.......
   15dc3:	4f4a fd52 4f54 ea5a 4f4a 0040 a284 c8ca     JOR.TOZ.JO@.....
   15dd3:	60ea ff26 5824 f554 5556 55f4 005a 0a0e     .`&.$XT.VU.UZ...
   15de3:	aea4 2084 2c23 24ff 7f22 b6aa 3ae2 002a     ... #,.$"....:*.
   15df3:	e000 ea68 00ae ff26 4024 437e ca7a 437a     ..h...&.$@~Cz.zC
   15e03:	007e 000e aa2e 20ae 9f84 8fe8 7fa0 55d5     ~...... .......U
   15e13:	d57f 0055 4c0c 6060 6060 ff84 8f88 aa21     ..U..L````....!.
   15e23:	f923 ab22 0022 4c0c c88a 808e a1b9 a9ab     #."."..L........
   15e33:	f8a1 aaa3 a2aa 00bb e424 ea20 e0aa a537     ........$. ...7.
   15e43:	b5b5 f0a7 b5a5 a5b5 0037 44e4 2a40 204a     ........7..D@*J 
   15e53:	4a7f 007f 4f54 ea5a 4f5a 0054 c0c4 ae28     .J..TOZ.ZOT...(.
   15e63:	2088 94ff 20ff 807f 5555 55ff 0055 a48a     . ... ..UU.UU...
   15e73:	2404 2024 4a7f 017f 735a 7350 b752 009a     .$$ .J..ZsPsR...
   15e83:	c2c4 4cc8 404e 92ff 00ff 5f50 df75 5f75     ...LN@....P_u.u_
   15e93:	0050 e0e2 2e22 2022 92ff 00ff aaff bfaa     P..."." ........
   15ea3:	aaaa 00ee c6c4 8e8e e0a8 4a7f 007f d3a8     ...........J....
   15eb3:	caaa d3aa 00a8 c0c4 ea2a 20ea 447f 007f     ........*.. .D..
   15ec3:	aae2 beeb a7ea 00ea c0c4 ea48 00ae 90f7     ..........H.....
   15ed3:	f29f fa03 a8ab aaab 00fb e4e2 e04a e04a     ............J.J.
   15ee3:	90f3 f29f 5700 4865 8560 00a7 e4e2 220e     .....WeH`......"
   15ef3:	e022 223e 22ff 003e adfa acfa 00f9 e422     ".>".">.......".
   15f03:	a8e0 a0e8 223e 22ff 003e 99b4 99fc 00b4     ....>".">.......
   15f13:	e422 e2e0 8026 223e 22ff 4054 eb56 4056     "...&.>"."T@V.V@
   15f23:	0054 e422 8ee8 8088 407f 007f 7559 d756     T."......@..YuV.
   15f33:	7455 0059 8088 a244 40c8 9fff ff80 7f00     UtY...D..@......
   15f43:	b2aa f2a6 002a 2aac ea68 e0aa 5651 92ff     ....*..*h...QV..
   15f53:	7d41 ff55 7e55 0041 e000 6260 40a2 b129     A}U.U~A...`b.@).
   15f63:	b1fb 7c29 7cd7 7d57 0003 442a c0a2 60e2     ..)|.|W}..*D...`
   15f73:	d724 557d 1755 55d5 577d 0044 442e 444c     $.}UU..U}WD..DLD
   15f83:	204e cf28 6b5a 2548 4ada 4a6b 004a 2e68     N (.ZkH%.JkJJ.h.
   15f93:	ac00 a08c fc50 7d56 7d55 2252 49f4 0074     ....P.V}U}R".It.
   15fa3:	c8aa 888e a0c2 cf22 d230 cb76 c652 e13e     ......".0.v.R.>.
   15fb3:	003e 0c0e 080e 6068 af38 baea e8af baaa     >.....h`8.......
   15fc3:	afea 003a aa2e 08c2 002e 92ff 00ff f559     ..:...........Y.
   15fd3:	5655 f455 0059 e0e0 6a44 40c8 ff00 ff92     UVU.Y...Dj.@....
   15fe3:	f51d a3bd f5bd 001d 2e68 8e24 2084 d53f     ........h.$.. ?.
   15ff3:	157f a2ff 0aeb aaea 00e2 2422 8a40 00ac     .........."$@...
   16003:	7f12 7740 5555 55d7 7755 0040 0668 6222     ..@wUU.UUw@.h."b
   16013:	0026 c754 0055 dd33 0011 c754 0054 00ac     &.T.U.3...T.T...
   16023:	4022 808e 7547 5057 d457 5057 5457 0047     "@..GuWPW.WPWTG.
   16033:	e0e4 a0a4 e0e0 0b68 4aff 577c 55fd 57fd     ......h..J|W.U.W
   16043:	007c e080 220e 002e 0b68 08ff 557f ff55     |...."..h....UU.
   16053:	5f55 0040 e080 2ee4 a004 003c 20ff f51d     U_@.......<.. ..
   16063:	a3bd f5bd 001d 0c2c 8e24 2084 007e 00ff     ......,.$.. ~...
   16073:	aab2 fba2 aaa2 00b2 e000 e8e8 e0e8 5565     ..............eU
   16083:	55ff 0065 c925 c911 0025 22e2 e2e0 e022     .Ue.%...%.."..".
   16093:	fb04 baae feaa f642 f7aa 0044 880e 8a88     ......B...D.....
   160a3:	00ae f708 a5bd 05fd 7555 77dd 0050 440e     ........Uu.wP..D
   160b3:	4444 004e df90 9aaa 0ffa da9a 9faa 00f0     DDN.............
   160c3:	c8aa 8888 a0ca 84bc 07fd fb8a ffaa 8994     ................
   160d3:	00f5 2e8a aea4 2084 5555 d57f 7d41 ff55     ....... UU..A}U.
   160e3:	7d55 0041 e048 4ce0 e042 f547 f55f 1047     U}A.H..LB.G._.G.
   160f3:	aaff aaff 00be e444 ea40 20c2 555f e05f     ......D.@.. _U_.
   16103:	7655 f55c 765c 0055 e0e0 2e28 2008 e984     Uv\.\vU...(.. ..
   16113:	a4b2 a9ff a9e9 efa9 0088 0a8e 44a4 20a2     .............D. 
   16123:	92ff 00ff a87f aaba eaba 0038 c2c4 aace     ..........8.....
   16133:	e0aa 9ff0 00f2 2aef e02f 2a2f 00ef 402e     .......*/./*...@
   16143:	e0e8 e0e8 ed21 aaa9 3cea aaea eda9 0021     ....!....<....!.
   16153:	aa0e eae0 00ae cf29 0049 6a7f ca5f 6a5f     ......).I..j_._j
   16163:	004f 200e e8ec a0ec b26b b2ff 906b ff89     O.. ....k...k...
   16173:	8990 00ff eaea 2ee8 e082 d53f 755f 521f     ..........?._u.R
   16183:	5af7 3b56 0056 2422 ea40 00ae 7f00 5c48     .ZV;V."$@.....H\
   16193:	ca63 755e 775c 0054 2268 a8aa c0aa 4990     c.^u\wT.h".....I
   161a3:	eb02 aabe aaaa ebbe 0002 822c e0a0 80a2     ..........,.....
   161b3:	cf42 0a74 fd55 0555 fd55 0055 000e 2e24     B.t.U.U.U.U...$.
   161c3:	2004 fe0a aaaa 03ee 7a4a 7ace 004a aa2a     . ......Jz.zJ.*.
   161d3:	aaae 20ea a7d2 a5fd add7 10f5 11fe 00d6     ... ............
   161e3:	220e 22e2 6048 555e f555 415b fd55 5d57     ."."H`^UU.[AU.W]
   161f3:	0054 4444 c466 4044 f222 7252 7aca ea2a     T.DDf.D@".Rr.z*.
   16203:	6a52 004a aa0e aaaa 00ae 5f40 fa54 765f     RjJ.......@_T._v
   16213:	fe5a 5e52 0054 4868 aaea 00ae 4054 d55d     Z.R^T.hH....T@].
   16223:	5d75 dd53 5575 005d 242c e080 2084 6554     u]S.uU].,$... Te
   16233:	55fe 57ad 55ad 65fe 0054 4484 446e 8044     .U.W.U.eT..DnDD.
   16243:	447f 007f affa aaaa afaa 00fa c0c4 0eaa     .D..............
   16253:	a00a 90f3 f29f 955f 557d 957d 005f e0e2     ......_.}U}._...
   16263:	4446 406e 90f7 f29f 7b00 5aea ea5a 007b     FDn@.....{.ZZ.{.
   16273:	e4e2 aa0e e0aa 90f7 02ff d3a8 caaa d3aa     ................
   16283:	00a8 e4e2 ea2a 20ea 6a0b 2a3e e02b 2a2b     ....*.. .j>*+.+*
   16293:	6a2f 000b c6c6 a4c4 a084 df28 6a4a 285f     /j........(.Jj_(
   162a3:	52df 527e 005b 88ac caca a044 c52a 6f48     .R~R[.....D.*.Ho
   162b3:	2a4a 4adf 5f6a 0048 8824 8a8c 80e8 ab7c     J*.Jj_H.$.....|.
   162c3:	eaba 873e caba ab9e 00ea aa2a aaae 20ac     ..>.......*.... 
   162d3:	4b78 4bda 0078 a0bf a0e7 00bf ae2e 2420     xK.Kx......... $
   162e3:	2084 557f 7d51 c453 7f50 5d51 0055 46e4     . .UQ}S.P.Q]U..F
   162f3:	0ec0 4044 7f12 5f40 6f6a 4ffa 7f52 0052     ..D@..@_jo.OR.R.
   16303:	0a68 aaaa 404e c754 ff55 ff80 ff80 c754     h...N@T.U.....T.
   16313:	0054 2cac 2c2e 80ae 5a12 d256 735a d25a     T..,.,...ZV.ZsZ.
   16323:	5a56 0012 acaa ccc8 a0aa 53f9 52fe 23fa     VZ.........S.R.#
   16333:	ea4a 5352 0068 aa2e aaae 20ae 003c 00ff     J.RSh...... <...
   16343:	affa aaaa afaa 00fa 0c2c 0eaa a00a afba     ........,.......
   16353:	efaa fb82 fbaa fbaa 0082 ac8a ae2e 20ae     ............... 
   16363:	f82c aaaf aaba 5a0b a85a 00ac acaa 8c88     ,......ZZ.......
   16373:	a0aa ff10 4010 5f75 c575 5f75 0075 804c     .....@u_u.u_u.L.
   16383:	a246 a084 abbe aafa 2fba 92ea eb92 002a     F......../....*.
   16393:	ea80 aaaa 80e0 0774 07fc 0174 feab ae03     ......t...t.....
   163a3:	00fa 0e2c ea40 a0ea 90f3 f29f ea0e a1ae     ..,.@...........
   163b3:	eaae 000e e4e2 8eac a08c 223e 22ff adb5     ..........>"."..
   163c3:	f7a5 ada5 00b5 e422 c0e0 e0c2 407f 007f     ......"......@..
   163d3:	eabb e8bb efba 00ba c0c4 a0ea 00ae 407f     ...............@
   163e3:	407f 5f75 c575 5f75 0075 8088 a246 a084     .@u_u.u_u...F...
   163f3:	6dcb 6d7f df4b 5f75 5e55 00c1 4a2a c002     .m.mK.u_U^..*J..
   16403:	60ea ca20 6a5f 2a40 4adf 5f6a 004a ecac     .` ._j@*.Jj_J...
   16413:	eaa0 00ae 955f d5bf 011f 21aa 23fa 00a8     ...._......!.#..
   16423:	2422 ac2c 404e 7f00 5b54 5a7e 5ad7 5b7e     "$,.N@..T[~Z.Z~[
   16433:	0054 2a68 8eac 60aa 0b68 4aff adb5 ffa5     T.h*...`h..J....
   16443:	ada5 00b5 e080 c0e0 e0c2 4890 5b41 5aee     ...........HA[.Z
   16453:	5b42 5aee 0042 0e2c aeaa a0aa fe0a aaaa     B[.ZB.,.........
   16463:	02ee 7a4a 7ace 004a aa0e aaaa 00ae b22b     ..Jz.zJ.......+.
   16473:	eabf aaab eaab b2bf 002b eaaa aaa4 c0ea     ........+.......
   16483:	ef85 afa5 f0a5 aaaf eaaa 008f e4c4 e8c0     ................
   16493:	e08a aabe aabb f5ae aaad adba 00b1 eae2     ................
   164a3:	eaa0 00ae afb0 baaa f0ae b7a5 a7ad 00b5     ................
   164b3:	ea68 44e0 40e4 90f7 02ff 4a57 5ae7 52f7     h..D.@....WJ.Z.R
   164c3:	005f c4e2 eae0 e0ea 95f5 95ff 00f5 7a4b     _.............Kz
   164d3:	7aca 004b 6060 ea60 e0aa f718 f795 a31a     .zK.```.........
   164e3:	7748 5fd5 0054 4e0e 2a2c 202a 755f 75d5     Hw._T..N,** _u.u
   164f3:	005f 6d29 55d7 0069 e444 a240 a042 525a     _.)m.Ui.D.@.B.ZR
   16503:	537e fe52 5352 527e 005a ceaa aca8 a0ae     ~SR.RS~RZ.......
   16513:	cf29 0049 7545 f55f 755f 0045 200e a246     ).I.Eu_._uE.. F.
   16523:	a084 5f75 5ff5 7f75 7f40 ff40 0080 2c4e     ..u_._u.@.@...N,
   16533:	0e2c 6028 44e5 447f 5a05 5aef ea5f 005a     ,.(`.D.D.Z.Z_.Z.
   16543:	e2e2 eae0 a0ea 425e 525f f352 5352 5e52     ......^B_RR.RSR^
   16553:	0043 eae2 2eae e0aa 0000 18e0 0106 0402     C...............
   16563:	6018 0000 2402 8480 0022 0808 10ff 2010     .`...$.."...... 
   16573:	2020 7846 0000 e200 2222 e022 8080 fe81       Fx....""".....
   16583:	8080 ff80 8080 0081 8024 0e00 e022 1010     ........$..."...
   16593:	1010 1010 11fe 5090 0010 0000 0800 e042     .......P......B.
   165a3:	8202 8282 8f82 a494 88c4 0008 0200 002e     ................
   165b3:	0000 8000 8890 9f84 c1a2 0081 0000 0200     ................
   165c3:	002e 8008 2000 2810 8245 0804 0011 0000     ..... .(E.......
   165d3:	6a22 2422 604c 9010 9f90 9090 9f90 9090     "j"$L`..........
   165e3:	0010 c002 0e00 0000 4941 4949 ff49 4949     ........AIIII.II
   165f3:	4949 0041 0000 000e e022 1010 10ff 1010     IIA.....".......
   16603:	1010 10ff 0010 e200 2222 00e0 9e80 8282     ........""......
   16613:	fe82 9292 9292 009f 0000 2200 c022 ff08     ...........""...
   16623:	0808 ff08 0808 ff08 0008 0068 000e 000e     ..........h.....
   16633:	ff00 8080 8380 83bc 8080 0080 2468 0080     ............h$..
   16643:	2084 ff00 8080 909f 9190 9f91 0080 0068     . ............h.
   16653:	22e2 6022 3f08 00c0 8080 8080 80ff 0080     .""`.?..........
   16663:	000e 2200 00e0 3f08 00c0 80ff 8080 00ff     ..."...?........
   16673:	0000 0e0e 0000 e0e2 3f08 00c0 2320 20fc     .........?.. #. 
   16683:	2020 003f 000e 0068 e022 1010 5622 129a       ?...h."..."V..
   16693:	5292 1023 0010 0000 2202 00e0 2040 0619     .R#......"..@ ..
   166a3:	e019 7f00 0000 00ff 8024 0886 e022 8808     ........$..."...
   166b3:	5488 2152 5422 8850 0008 4422 8480 2042     .TR!"TP..."D..B 
   166c3:	2020 2020 7fa0 2420 2023 2020 0000 000e         .. $#   ....
   166d3:	0000 409f 8404 8484 8484 8084 00ff 00e0     ...@............
   166e3:	0000 e022 5f90 0000 0000 10ff 0408 0002     ..".._..........
   166f3:	402e e000 0000 9292 9392 92fe 9292 fe92     .@..............
   16703:	0010 4822 0000 0000 2404 2424 fe25 2425     .."H.....$$$%.%$
   16713:	3c24 0004 4822 0800 2042 0200 12f3 1212     $<.."H..B ......
   16723:	ff12 0000 0000 8006 0e00 0000 0f08 88f8     ................
   16733:	f88f 8888 ff88 0008 8e08 aa88 00ae 8808     ................
   16743:	ff88 8888 ff08 9880 00e7 0e00 0e00 0088     ................
   16753:	4040 407f 0040 80ff 9880 00e7 c844 e880     @@.@@.......D...
   16763:	0088 4444 44e4 445f 4444 40e7 0040 4822     ..DD.D_DDD.@@."H
   16773:	0000 e0e2 4840 4ee9 4848 4b49 49ed 0041     ....@H.NHHIK.IA.
   16783:	8024 2200 e022 2621 24ff 0022 00ff 0000     $.."".!&.$".....
   16793:	0003 e000 e200 e022 80ff 9f80 9191 9191     ......".........
   167a3:	809f 0080 22e2 2222 2022 80ff 909f 9090     ....."""" ......
   167b3:	90ff 9191 009f 22e2 e222 2022 8282 8884     .......""." ....
   167c3:	bf90 88c0 8488 0082 2222 222a 2022 80ff     ........""*"" ..
   167d3:	bf88 fe88 9290 809e 0003 22e2 aaaa a0aa     ..........."....
   167e3:	ff80 8888 208f ff20 2020 003f 0268 68e0     .....  .  ?.h..h
   167f3:	e002 407f 7f40 0000 08ff 0408 0004 8888     ...@@...........
   16803:	e000 0000 407f 7f40 0400 08ff 1008 0021     .....@@.......!.
   16813:	8888 e200 e022 407f 7f40 2320 20fc 2020     ...."..@@. #.   
   16823:	003f 8888 0068 e022 3f08 00c0 8484 8484     ?...h."..?......
   16833:	8484 0084 000e 2222 2022 3f08 00c0 0808     ......""" .?....
   16843:	ff08 0808 0008 000e 2e22 2022 3f08 04c0     ........"." .?..
   16853:	4444 7f44 8484 0004 000e 0e00 0000 3f08     DDD............?
   16863:	20c0 51d0 5452 5058 0040 000e 22c2 e022     . .QRTXP@...."".
   16873:	3f08 04c0 1008 c221 1804 0000 020e 226a     .?....!.......j"
   16883:	604c 3f08 02c0 809c ff80 8080 00ff 000e     L`.?............
   16893:	c002 e022 7f00 5750 5454 5454 9794 0090     .."...PWTTTT....
   168a3:	0e68 2a22 60aa 447f 4444 4444 447f 8484     h."*.`.DDDDD.D..
   168b3:	0004 20e2 0c86 002c 44a2 20bf ff20 2020     ... ..,..D.  .  
   168c3:	003f 0001 c242 0048 e0e2 6220 a2a2 a2a2     ?...B.H... b....
   168d3:	a2a2 e2a2 003f 2222 2222 e022 7f00 c040     ....?."""""...@.
   168e3:	4040 ff00 8880 00f7 0068 0e00 8008 3f20     @@......h..... ?
   168f3:	e020 2020 ff00 9880 00e7 440c 0e44 0088      .  .......DD...
   16903:	4990 8000 8080 ff80 8080 0080 002c 2e02     .I..........,...
   16913:	0000 5f90 0000 8808 ff88 8888 0008 402e     ..._...........@
   16923:	0e00 0000 5f90 0000 8080 ff80 8080 0080     ....._..........
   16933:	402e 2e22 2022 5f90 0000 003f ff00 0000     .@"." ._..?.....
   16943:	003f 402e 2ee2 e022 5f90 1000 e828 2a29     ?..@..".._..(.)*
   16953:	282c 0020 402e 226a e022 ff00 9290 9792     ,( ..@j"".......
   16963:	9292 9093 00f0 0268 0048 e0e2 80ff f788     ......h.H.......
   16973:	4404 7f44 8484 0004 88e0 0e00 0000 8884     .DD.............
   16983:	e091 8780 e4a0 3825 0000 0248 002e 4008     ......%8..H....@
   16993:	1212 5f32 1292 1f12 2252 0012 4802 0e00     ..2_....R"...H..
   169a3:	0000 84bc 07fd fc00 8083 8681 00f8 2e8a     ................
   169b3:	4802 2042 80ff a4a4 a4a4 a4bf a4a4 0080     .HB ............
   169c3:	aae2 aaaa 20aa 2a02 2a2a ff2b 4a4b 0a4a     ..... .***+.KJJ.
   169d3:	0002 4822 080e 2042 4444 447f 0044 4040     .."H..B DD.DD.@@
   169e3:	407f 0040 e422 2240 00e0 4444 447f 7f00     .@@.".@"..DD.D..
   169f3:	4040 007f 0000 8a44 00c0 60e2 ff88 8888     @@....D....`....
   16a03:	88ff ff00 9880 00e7 002c 0ee0 0088 ff10     ........,.......
   16a13:	0410 8484 ff84 8484 0004 804c 2e02 0000     ..........L.....
   16a23:	ff10 1010 9e92 9292 9292 0013 804c 2200     ............L.."
   16a33:	e022 4908 4949 fb49 4949 4949 0008 2222     "..IIII.IIII..""
   16a43:	222e 2022 ff21 0422 4444 7f44 8444 0004     ."" !.".DDD.D...
   16a53:	002e 0e00 0000 ff10 2010 49c8 4c4a 4848     ......... .IJLHH
   16a63:	0040 804c 22c2 e022 ff10 0010 00ff ff00     @.L.."".........
   16a73:	0000 00ff 864c 0e80 e000 ff10 0010 407f     ....L..........@
   16a83:	c040 4040 0040 864c 0080 0000 ff22 0024     @.@@@.L.....".$.
   16a93:	409f 8000 8080 00ff 002e 00e0 e022 ff10     .@.........."...
   16aa3:	0010 888f 8888 8888 00f8 804c 22e2 e022     ..........L.."".
   16ab3:	ff10 0010 88ff 8888 8888 00f8 804c 22e2     ............L.."
   16ac3:	e022 4941 49e9 4f49 5151 51f1 0041 0000     ".AI.IIOQQ.QA...
   16ad3:	000e 0000 5c42 e848 494a e848 4f48 0040     ....B\H.JIH.HO@.
   16ae3:	0000 2208 002e 4444 47e5 445c 4444 40e7     ..."..DD.G\DDD.@
   16af3:	0040 4822 0042 e0e2 5050 52ff 5253 5652     @."HB...PP.RSRRV
   16b03:	53fa 0040 8206 442a 20a2 4b40 4aea 4a4a     .S@...*D. @K.JJJ
   16b13:	4a4a 4eea 0040 220e 2222 e022 5740 55f5     JJ.N@.."""".@W.U
   16b23:	5555 5555 5df5 0040 0000 2202 002e 4040     UUUU.]@...."..@@
   16b33:	49e1 534d 4945 44e3 0040 2202 4824 0000     .IMSEI.D@.."$H..
   16b43:	bf80 a4a4 a4a4 a4a4 bfa4 0080 aa2a aaaa     ............*...
   16b53:	20aa ff00 9690 f29a 929f 9292 0090 8868     . ............h.
   16b63:	e888 8088 4848 5057 c760 5060 4857 0048     ....HHWP`.`PWHH.
   16b73:	8006 000e 00e0 3f00 2220 f821 2126 60a6     .......? "!.&!.`
   16b83:	0020 0068 4822 e042 ff20 2020 203f 46c8      .h."HB. .  ? .F
   16b93:	7f40 0000 0068 2ae2 60aa 0203 22fe 0023     @...h..*.`..."#.
   16ba3:	00ff 0000 0001 22e2 e2e0 e022 fa00 aaaa     ......."..".....
   16bb3:	aaaf abaa 00f8 0000 4822 0c00 e022 547c     ........"H..".|T
   16bc3:	5454 57fc 5554 7c56 0000 2222 8444 c022     TT.WTUV|..""D.".
   16bd3:	2860 292f e828 2b29 292d 0060 a224 44a4     `(/)(.)+-)`.$..D
   16be3:	20a2 007f 00ff 007f 888f 8888 00f8 c4c4     . ..............
   16bf3:	e2c0 e022 01ff 3c22 ff00 1408 0122 00ff     .."..."<...."...
   16c03:	22e2 22aa e022 80ff 9c90 91f2 9291 909c     .".""...........
   16c13:	00ff aae2 2aa2 e0a2 c929 494f 0049 8681     .....*..).OII...
   16c23:	a098 00c0 e200 c220 e022 2514 44c4 7f44     ...... ."..%.DD.
   16c33:	4444 4544 0004 220e 222e 002e 2410 54d5     DDDE..."."...$.T
   16c43:	5554 5454 4057 0000 c022 000e e084 d524     TUTTW@..".....$.
   16c53:	5555 5555 5454 4057 0000 c002 e00a c0c2     UUUUTTW@........
   16c63:	7008 ff11 1211 ff00 1008 0021 0e88 0e00     .p........!.....
   16c73:	e022 3f08 00c0 4a48 f849 4a49 004c 000e     "..?..HJI.IJL...
   16c83:	4822 2042 3f08 00c0 80ff 8db0 bd82 0080     "HB .?..........
   16c93:	000e a2e2 202a 3f08 10c0 91f0 909e 90ff     ....* .?........
   16ca3:	0090 020e 2248 00e0 3f08 00c0 fc83 9192     ....H"...?......
   16cb3:	809f 0080 000e 20e2 e0e2 3f08 12c0 22e2     ....... ...?..."
   16cc3:	3f22 2222 0022 000e 0e00 0000 3f08 04c0     "?"""........?..
   16cd3:	ff04 1604 4425 0084 000e 220e 2084 3f08     ....%D.....". .?
   16ce3:	00c0 2f10 8948 2f49 0010 000e 220e e022     .../H.I/....."".
   16cf3:	3f08 20c0 2f20 28e8 202f 0020 020e 0048     .?.  /.(/  ...H.
   16d03:	e0e2 3f08 00c0 4078 c040 4040 0078 000e     ...?..x@@.@@x...
   16d13:	2222 2022 203f 6820 22a5 2825 2020 003f     """ ?  h."%(  ?.
   16d23:	2ae2 2a22 e022 0909 1111 c720 1021 0a11     .*"*"..... .!...
   16d33:	0008 4822 082e 2042 ff00 9292 00ff 007f     .."H..B ........
   16d43:	ff00 0000 022c 82e0 002e ff00 a480 a9ba     ....,...........
   16d53:	80ae 00ff 0000 0268 0048 c0c2 4808 524b     ......h.H....HKR
   16d63:	42e2 7342 0808 0018 ea00 aeaa 0000 e118     .BBs............
   16d73:	417e 407e 007f 007f 00ff 4848 e022 e0a2     ~A~@......HH"...
   16d83:	44a2 00bf 407f c040 4040 0040 c642 0080     .D...@@.@@@.B...
   16d93:	0000 44a2 00bf bc80 8484 fc84 0007 c042     ...D..........B.
   16da3:	8888 e0a2 1008 45e8 7846 2027 20ff 0020     .......EFx' .  .
   16db3:	4822 8800 80e8 7800 ca4b 4a6a 484b 0f79     "H.....xK.jJKHy.
   16dc3:	0000 c022 e200 0026 7e00 4ac2 037a ff00     .."...&..~.Jz...
   16dd3:	9880 00e7 8a44 0e2e 0088 4fe0 6040 8b00     ....D......O@`..
   16de3:	998c c8ae 008f 220e 4882 e022 4990 0000     .......".H"..I..
   16df3:	003f ff00 0000 003f 002c 2ee2 e022 4990     ?.....?.,..."..I
   16e03:	1000 e828 2a29 202c 0020 002c 224a e022     ..(.)*,  .,.J"".
   16e13:	4990 0400 e818 4244 4241 007c 002c 2402     .I....DBAB|.,..$
   16e23:	0080 4990 8000 82ff 9881 0ee9 0000 2c2c     ...I..........,,
   16e33:	4822 2042 4990 ff00 8484 8484 fc84 0000     "HB .I..........
   16e43:	0e2c 2222 e022 4990 0000 8cf0 90a3 8c83     ,."""..I........
   16e53:	00f0 002c 4822 2042 003e 20ff 2000 2728     ..,."HB >.. . ('
   16e63:	ff20 0020 e000 0200 002e 003e 20ff 4404      . .......>.. .D
   16e73:	7f44 8484 0004 e000 0e00 0000 5f90 0000     D............_..
   16e83:	80ff 93a0 b38c 0080 402e a2e2 202a 5f90     .........@..* ._
   16e93:	0000 91ff 9191 9191 009f 402e 22e2 2022     ...........@."" 
   16ea3:	4442 54cf 0062 80ff e890 0007 e000 e000     BD.Tb...........
   16eb3:	0088 5f90 0000 213f f826 2126 003f 402e     ..._..?!&.&!?..@
   16ec3:	00e0 e002 1110 5555 ff55 5555 117d 0010     ......UUU.UU}...
   16ed3:	4444 444e 4044 ff00 9292 9392 9292 fe92     DDNDD@..........
   16ee3:	0001 242e 8440 204a 8a8a bf8a 8a8a 808a     ...$@.J ........
   16ef3:	01fe 0007 a226 604c 8000 80ff f788 2200     ....&.L`......."
   16f03:	22ff ff22 0022 88e0 c002 000e 80ff f788     .""."...........
   16f13:	8808 888f 888f 0008 88e0 002c e0e2 88ff     ..........,.....
   16f23:	00f7 90ff 909f 9f90 0080 86e8 4882 2084     .............H. 
   16f33:	9110 9896 9f80 d8a0 0986 0010 22a2 22aa     ............."."
   16f43:	a022 f827 3f20 0820 e430 2023 003f c22a     ".'. ? .0.# ?.*.
   16f53:	0020 e022 2c22 a464 2f24 2424 4424 0020      .".",d.$/$$$D .
   16f63:	8888 888e 8088 da36 6212 4404 7f44 4444     ......6..b.DD.DD
   16f73:	0004 8844 2e00 0000 da36 6212 1210 1011     ..D.....6..b....
   16f83:	10ff 0010 8844 0200 00e0 da36 6212 1408     ....D.....6..b..
   16f93:	26e5 2024 0000 8844 220c e022 da36 6212     .&$ ..D.."".6..b
   16fa3:	1210 10ff 001f 0001 8844 082c e084 4444     ........D.,...DD
   16fb3:	447f 0044 4444 447f 0044 8844 0088 00e0     .DD.DD.DD.D.....
   16fc3:	4444 447f 1d00 25e5 2425 0027 8844 0000     DD.D...%%$'.D...
   16fd3:	c022 ff22 0824 4e4a ca7a 4b4a 004a 002e     ".".$.JNz.JKJ...
   16fe3:	4608 0080 2222 24ff 4225 7f4c 4448 0043     .F.."".$%BL.HDC.
   16ff3:	e002 0e00 0000 ff10 0010 487f 4848 888f     ...........HHH..
   17003:	0088 864c 0080 00e0 ff10 0010 90ff 909f     ..L.............
   17013:	9f90 0080 864c 4882 2084 ff10 0410 84ff     ....L..H. ......
   17023:	94a5 ff84 0004 864c 0880 002e ff10 0010     ......L.........
   17033:	427e 4ac2 7a4a 0003 804c 8a88 e0a2 2222     ~B.JJz..L.....""
   17043:	24ff 1024 ff10 1314 0010 e002 0e00 0000     .$$.............
   17053:	ff22 0224 4242 42ff 7e42 0002 022e 0848     ".$.BB.BB~....H.
   17063:	2042 1f00 4820 4444 4444 2048 001f 4208     B .. HDDDDH ...B
   17073:	2aa2 8024 4a42 4bea 4a4a 4a4b 4aea 0042     .*$.BJ.KJJKJ.JB.
   17083:	4822 e200 6022 ff20 2222 ff22 ff20 9880     "H.."` .""". ...
   17093:	00e7 220e 0e2e 0088 4941 49e9 4949 4949     ..."....AI.IIIII
   170a3:	49e9 0041 6a22 2222 2042 4a4b 4aea 5f4a     .IA."j""B KJ.JJ_
   170b3:	4a4a 4aea 004b 00c0 000e c044 4f40 4aea     JJ.JK.....D.@O.J
   170c3:	4f4a 4a4a 4bea 0048 0268 0248 002e 4f40     JOJJ.KH.h.H...@O
   170d3:	4aea 4a4a 4a4a 4bea 0048 aa0e aaaa 20aa     .JJJJJ.KH...... 
   170e3:	4040 40e7 5f40 4242 42e2 0042 e222 222e     @@.@@_BB.BB.".."
   170f3:	2022 484f 48e8 5e49 4849 48e8 004f 88e0     " OH.HI^IH.HO...
   17103:	0800 e082 4f40 48e8 4b48 4848 4fe8 0040     ....@O.HHKHH.O@.
   17113:	2422 e280 6022 4240 ea4a 5f4a f252 4252     "$.."`@BJ.J_R.RB
   17123:	0040 8888 aa8e 60aa 4141 45ef 4545 4949     @......`AA.EEEII
   17133:	51e9 0041 e200 8444 2042 4040 4ee1 4041     .QA...D.B @@.NA@
   17143:	4e41 40e1 0040 8024 80a4 2084 4444 4ae4     AN.@@.$.... DD.J
   17153:	524a 4a4a 44e4 0044 8800 aa8a 00c0 4f40     JRJJ.DD.......@O
   17163:	4aea 4f4a 5252 42f2 0040 442e 8444 e022     .JJORR.B@..DD.".
   17173:	4440 58e8 4e49 4849 4ce8 0040 4822 0800     @D.XINIH.L@."H..
   17183:	2042 4444 52ef 5252 5252 44ef 004c 2a22     B DD.RRRRR.DL."*
   17193:	4a44 2022 4444 44e4 5744 444d 44e4 0044     DJ" DD.DDWMD.DD.
   171a3:	0000 080e 0040 4447 44e4 4c54 4444 44e4     ....@.GD.DTLDD.D
   171b3:	0047 2222 2222 2022 4f40 40e0 4449 4040     G.""""" @O.@ID@@
   171c3:	40ef 0040 884c 4822 2084 2c23 24ff 4042     .@@.L."H. #,.$B@
   171d3:	407f 407f 0040 e000 002c 60e2 2621 24ff     .@.@@...,..`!&.$
   171e3:	1822 23e4 2020 003f e000 0000 e022 2621     "..#  ?.....".!&
   171f3:	24ff 0022 8487 8484 00fc e000 e200 e022     .$"...........".
   17203:	2c23 24ff 502b 437c 4b50 007c e000 2402     #,.$+P|CPK|....$
   17213:	2084 8180 8380 fa80 a0a1 9190 0080 0c48     . ............H.
   17223:	a222 c060 5018 5454 f554 5456 5054 0018     ".`..PTTT.VTTP..
   17233:	8888 88ae 8088 a1bf f8a6 a1a6 00bf 88ff     ................
   17243:	00f7 00e0 e002 80e8 8884 ff90 8890 ff00     ................
   17253:	9880 00e7 2a22 0e22 0088 9f84 8fe8 ff80     ...."*".........
   17263:	8080 00ff 0000 aa08 0048 e0e2 5f50 6a68     ........H...P_hj
   17273:	c94a 6a49 586a 0050 2a0e 2aa2 00a2 9292     J.IjjXP..*.*....
   17283:	a492 d9a4 868f 9089 0080 4844 c0a2 4008     ..........DH...@
   17293:	2020 2421 2022 fc21 a023 0060 e2e0 8626       !$" !.#.`...&.
   172a3:	c0c2 0404 24fd 0827 21f0 213e 0030 2288     .....$'..!>!0.."
   172b3:	48c2 6008 744c 5fc4 0245 414c 407e 007f     .H.`Lt._E.LA~@..
   172c3:	8e88 4802 c022 4f88 0900 e999 8c8a 88ff     ...H"..O........
   172d3:	0088 222c 2a22 20a2 1110 00ff 08ff 0010     ..,""*. ........
   172e3:	88ff 00f7 e080 e0e2 80e8 0504 0504 fd04     ................
   172f3:	2424 2524 0004 0c48 a222 c060 141f 1414     $$$%..H.".`.....
   17303:	54f4 5754 5050 001f aaea aaaa e022 0618     .TTWPP......"...
   17313:	00ff 06ff ff18 9880 00e7 e222 2ee2 0088     ..........".....
   17323:	447f 7f44 8808 ff88 8888 0008 4cc4 0e00     .DD..........L..
   17333:	0000 407f 7f40 2404 fc27 2427 0004 8888     ...@@..$'.'$....
   17343:	002c 200c 407f 7f40 4404 7c47 4447 0004     ,.. .@@..DG|GD..
   17353:	8888 002c e0e2 407f 007f e948 4a49 ec4a     ..,....@..H.IJJ.
   17363:	0048 8088 22c2 e022 407f 007f 2020 f827     H....""..@..  '.
   17373:	2027 0020 8088 422c 200c 407f 007f 90ff     '  ...,B. .@....
   17383:	fe91 9090 009f 8688 8086 e022 407f 007f     .........."..@..
   17393:	80ff a0bf a2a2 00be 8688 e280 e022 447f     ............"..D
   173a3:	7f44 8a01 a99c 08ce 000f 4cc4 8004 c022     D..........L..".
   173b3:	407f 007f 08ff 0008 08ff 0009 8088 40e2     .@.............@
   173c3:	e0e2 88ff 88ff 00ff 8080 ff80 0080 c4c4     ................
   173d3:	02c0 002e 223e 22ff 003e ff00 0000 0000     ....>".">.......
   173e3:	e422 0cc6 e022 407f 007f 80ff bf80 8080     "..."..@........
   173f3:	00ff 8088 48a2 a042 407f 7f40 1a00 22e2     .....HB..@@...."
   17403:	22ff 0022 4cc4 0000 00e0 407f 007f 1f01     .""..L.....@....
   17413:	6000 0318 0000 8688 228e e060 407f 007f     .`......."`..@..
   17423:	929e f392 0000 00ff 8088 2e22 e000 203f     .........."...? 
   17433:	20ff 543f ff54 5454 0057 e880 0e80 8008     . ?TT.TTW.......
   17443:	007f 00ff 007f 494a 49f8 004e c4c4 24c0     ......JI.IN....$
   17453:	2084 007f 00ff 007f 8eb9 ff88 0088 c4c4     . ..............
   17463:	02c8 002e 007f 00ff 007f 80fe 80bf 00fe     ................
   17473:	c4c4 48c0 c0c4 2262 2525 f529 252b 2225     ...H..b"%%).+%%"
   17483:	0062 0000 2422 0080 6f00 2c28 e92a 282e     b..."$...o(,*..(
   17493:	602f 0000 0268 4248 c0c2 82fe f382 1212     /`..h.HB........
   174a3:	f312 8282 00fe 4822 0e00 e022 88ff 9f88     ......"H..".....
   174b3:	c2a2 90a4 888b 00ff 2ae2 aaaa e0a2 88ff     .........*......
   174c3:	f492 9299 909c 809f 00ff 2ae2 2a22 e0a2     ...........*"*..
   174d3:	c929 494f 0049 007f ff00 0000 e200 8220     ).OII......... .
   174e3:	002e c929 494f 0049 ff00 0408 0002 e200     ..).OII.........
   174f3:	0e20 0000 c929 494f 0049 8080 8887 00f0      ...).OII.......
   17503:	e200 2220 00e0 4f88 1400 44e4 7f44 4444     .. "...O...DD.DD
   17513:	0044 222c 2a22 2022 2410 55d4 5454 5454     D.,""*" .$.UTTTT
   17523:	4057 0000 2ee2 e022 e084 2410 54d5 5455     W@...."....$.TUT
   17533:	5455 4057 0000 c022 e0e0 e084 1179 12ff     UTW@..".....y...
   17543:	3f20 e020 2020 0020 e000 220c 0022 3f08      ? .   ....""..?
   17553:	12c0 9392 929e 9392 0012 020e 44aa 20a2     .............D. 
   17563:	7f00 4848 888f ff00 9880 00e7 222e 0ee2     ..HH........."..
   17573:	0088 3f08 1fc0 fc20 2023 3e21 0020 0c0e     ...?.. .# !> ...
   17583:	4822 2042 3f08 10c0 2464 fe25 2425 0024     "HB .?..d$%.%$$.
   17593:	000e 8024 2084 3f08 08c0 cf30 4848 404f     ..$.. .?..0.HHO@
   175a3:	007f 000e 8808 e0a2 3f08 12c0 d422 4849     .........?..".IH
   175b3:	6254 0002 000e 2a44 0022 3f08 00c0 4f60     Tb....D*"..?..`O
   175c3:	c242 4444 0068 000e 220e e022 3f08 20c0     B.DDh....""..?. 
   175d3:	20ff 003f 407f 007f 060e e082 c0c4 c721     . ?..@........!.
   175e3:	2018 3f20 24e4 2724 0020 020e 02c0 002e     .  ?.$$' .......
   175f3:	1212 3222 9352 3252 1222 0012 8244 002e     .."2R.R2"...D...
   17603:	4084 1a10 2829 894a 2848 1728 0010 a202     .@..)(J.H((.....
   17613:	222a 00e2 6111 4949 5b69 898d 4181 0021     *"...aIIi[...A!.
   17623:	0000 002e 0000 4500 7a45 8c8a 92f5 0091     .......EEz......
   17633:	0000 4404 24aa 0080 2120 5955 1191 5595     ...D.$.. !UY...U
   17643:	215d 0020 2222 222e 2022 91ff ff8a 1200     ]! .""."" ......
   17653:	9a96 9392 0010 2ee0 0200 002c 7f00 4849     ..........,...IH
   17663:	88ff ff01 9880 00e7 228a 0eaa 0088 5f21     ........."....!_
   17673:	9191 9f91 9191 1ff1 0001 2422 8480 2022     .........."$.." 
   17683:	df20 5f50 7f40 ff20 2020 003f 8a08 2c2e      .P_@. .  ?....,
   17693:	e022 44a2 00bf 1860 fc03 1803 0060 c042     "..D..`.....`.B.
   176a3:	002c 200c 44a2 00bf 3010 905f 201f 0010     ,.. .D...0_.. ..
   176b3:	c042 002c e0e2 ff20 3f20 7e00 d242 7a4a     B.,... . ?.~B.Jz
   176c3:	0003 0e68 8848 c0a2 e919 5949 0f69 ff00     ..h.H.....IYi...
   176d3:	9880 00e7 2222 0e2e 0088 4fe0 6040 212f     ...."".....O@`/!
   176e3:	ff21 2121 002f 220e 0e00 6022 4fe0 6040     !.!!/..".."`.O@`
   176f3:	2a10 2aea 282b 0020 220e 0000 c0c2 4fe0     .*.*+( ..".....O
   17703:	6040 0400 4444 847f 0084 220e 2200 20e2     @`..DD.....".". 
   17713:	4fe0 6040 4808 7e49 8849 0088 200e 8024     .O@`.HI~I.... $.
   17723:	2084 4fe0 6040 2800 5fc8 4848 004f 220e     . .O@`.(._HHO.."
   17733:	c002 e022 7a40 4a4a ca4a 4b4a 7a4b 0040     ..".@zJJJ.JKKz@.
   17743:	0200 802e 0000 7f00 5242 d252 525f 5252     ........BRR._RRR
   17753:	0042 2268 e248 6022 7f00 5640 d455 547c     B.h"H."`..@VU.|T
   17763:	5655 0040 2268 8848 2042 7f12 4840 4848     UV@.h"H.B ..@HHH
   17773:	48cf 4848 0040 0068 e022 0000 7f12 5040     .HHH@.h.".....@P
   17783:	df50 5050 5f50 0040 0068 080e 0080 7740     P.PPP_@.h.....@w
   17793:	5555 d555 5555 5755 0040 440e 4444 004e     UUU.UUUW@..DDDN.
   177a3:	409f 9515 bf95 9595 8095 00ff 00e0 040e     .@..............
   177b3:	e0a2 409f 8a09 ba8d 8988 8088 00ff 4ce8     ...@...........L
   177c3:	4844 e042 409f 9c10 b192 9c92 8090 00ff     DHB..@..........
   177d3:	88e0 8880 e0a2 4949 c949 7f49 c949 4949     ......III.I.I.II
   177e3:	0049 4422 e280 6022 0038 08ff 4954 6c5a     I."D.."`8...TIZl
   177f3:	0a49 000f 082c 48c2 e002 4990 2100 2929     I...,..H...I.!))
   17803:	49ff 4949 0001 002c e000 0000 4990 1000     .III..,......I..
   17813:	9f90 9090 909f 0010 022c 00c0 e0e2 4990     ........,......I
   17823:	8000 829e fe82 9292 009f 002c 0200 e022     ..........,...".
   17833:	4990 ff00 a080 8c93 81b2 0080 0e2c 222a     .I..........,.*"
   17843:	202a 4990 5e00 4242 42ff 5e42 0040 002c     * .I.^BB.BB^@.,.
   17853:	e200 e022 4990 1000 11ff ff80 8080 00ff     .."..I..........
   17863:	002c 6880 e022 4990 0000 003f ff00 0808     ,..h"..I..?.....
   17873:	0008 022c 2ee2 2022 4990 0000 84ff 8484     ..,..." .I......
   17883:	8084 00ff 002c 22e2 e022 4990 0000 84ff     ....,..""..I....
   17893:	8484 8484 00ff 002c 22e2 e022 4990 7f00     ......,..""..I..
   178a3:	4848 8f48 8888 0008 2c2c 0e00 0000 4990     HHH.....,,.....I
   178b3:	0800 c734 0404 37c4 0008 022c 0248 002e     ..4....7..,.H...
   178c3:	4990 ff00 99a0 9986 ffa0 0000 2c2c 0880     .I..........,,..
   178d3:	6048 4990 1000 1010 14ff 1112 0010 002c     H`.I..........,.
   178e3:	e000 0000 4990 2000 233c 60a0 3c23 0020     .....I. <#.`#< .
   178f3:	022c 8824 2042 4990 2000 282f 28e8 202f     ,.$.B .I. /(.(/ 
   17903:	0020 062c 0080 e0e2 4990 1000 5190 f21e      .,......I...Q..
   17913:	1011 001f 022c 0048 e022 4990 ff00 ef90     ....,.H."..I....
   17923:	2020 20ff 003f 0e2c 0e88 e002 003e 20ff       . ?.,.....>.. 
   17933:	8988 f88e 888f 0088 e000 0068 e0e2 003e     ..........h...>.
   17943:	20ff 80ff 86b9 b089 0080 e000 a2e2 202a     . ............* 
   17953:	003e 10ff 213f ff21 2121 003f e000 0e00     >...?!!.!!?.....
   17963:	0000 003e 20ff e212 7f42 4242 0002 e000     ..>.. ..B.BB....
   17973:	0e00 0000 003e 20ff e410 5454 5057 0040     ....>.. ..TTWP@.
   17983:	e000 0000 c0c2 003e 20ff ff08 2a08 8849     ......>.. ...*I.
   17993:	0008 e000 220e 4008 003c 20ff 7f00 4848     .....".@<.. ..HH
   179a3:	888f 0088 e000 0068 00e0 003e 20ff 3008     ......h...>.. .0
   179b3:	00c7 31c0 0008 e000 222e 202c 003e 20ff     ...1.....", >.. 
   179c3:	2f10 8848 2f49 0010 e000 220e 6022 003e     ./H.I/.....""`>.
   179d3:	20ff 1010 5f90 1112 0010 e000 0e00 0008     . ..._..........
   179e3:	003e 20ff 8484 84ff ff84 0004 e000 e222     >.. ..........".
   179f3:	202e 5f90 0000 2223 fe22 2222 0023 402e     . ._..#"".""#..@
   17a03:	22e2 e022 5f90 8000 a0bf bfa0 ff80 0080     ."".._..........
   17a13:	402e 8a88 002e 5f90 0000 92ff 9292 ff92     .@....._........
   17a23:	0000 422e 22e2 202e 5f90 0000 487f 4848     ...B.". ._...HHH
   17a33:	887f 0088 402e a0e4 e084 5f90 0000 2909     .....@....._...)
   17a43:	49c9 6959 000f 402e 2222 e022 5f90 0000     .IYi...@""".._..
   17a53:	928b 82e2 8a8a 00fb 402e 22e2 e022 bfa0     .........@.""...
   17a63:	0080 2a1b 8a4a 320a 000b 402e 22e2 e022     ...*J..2...@."".
   17a73:	8282 a49f 08c4 4ef0 7e41 0040 e002 2400     .......NA~@....$
   17a83:	2084 88ff 00f7 fe21 3f20 62a1 0024 82e4     . ....!. ?.b$...
   17a93:	8ec0 e022 88ff 00f7 4f60 c141 4242 0064     ..".....`OA.BBd.
   17aa3:	80e8 220c e022 80ff f788 7f00 4f48 48f8     ..."".......HO.H
   17ab3:	004f 88e0 2a68 204a 80ff f788 8a00 928a     O...h*J ........
   17ac3:	caab 008a 88e0 2202 20e2 f827 3f20 8420     .......". '. ? .
   17ad3:	84ff ff84 0084 c22a c002 000e f827 3f20     ......*.....'. ?
   17ae3:	8828 f88f 888f 0088 c22a 8006 e0e2 f827     (.......*.....'.
   17af3:	3f20 ff20 9080 8689 00b9 c22a 2a0e a022      ? .......*..*".
   17b03:	f827 3f20 ff20 0808 04ff 0018 c22a 242e     '. ? .......*..$
   17b13:	e0e2 fe20 3e21 4404 7f44 8484 0004 8606     .. .!>.DD.......
   17b23:	2e02 0022 f827 3f20 2210 9242 224a 0013     ..".'. ?."B.J"..
   17b33:	c22a 2200 0048 f927 3c23 4880 fe09 0809     *.."H.'.#<.H....
   17b43:	000f 8e24 8024 c02a f927 3c23 8400 84ff     ..$.$.*.'.#<....
   17b53:	ff84 0004 8624 e202 202e fd22 3f20 ff00     ....$.... ". ?..
   17b63:	0911 ff00 0000 8424 24aa e080 f927 3c23     ......$..$..'.#<
   17b73:	4404 4f54 6454 0006 8e24 2e00 0000 f28b     .DTOTd..$.......
   17b83:	8a82 00fb 80ff 9880 00e7 22e2 e8e0 0088     ..........."....
   17b93:	928b 8ae2 fb8a 2000 20ff 003f 22e2 062e     ....... . ?.."..
   17ba3:	e082 8a8a 938a caaa 008a 007f 00ff 2e22     ..............".
   17bb3:	4044 e0a2 1f00 9595 9fb5 d5b5 1f95 0000     D@..............
   17bc3:	000e 000e 002e 3909 09c9 0931 ff00 9880     .......9..1.....
   17bd3:	00e7 22e2 0e2e 0088 da36 6212 4808 484f     ..."....6..b.HOH
   17be3:	4948 0008 8844 222e 604c da36 6212 ff00     HI..D.."L`6..b..
   17bf3:	0808 08ff 0010 8844 480e e0c2 da36 6012     ......D..H..6..`
   17c03:	4404 7f44 8484 0004 8844 2e02 0022 dd33     .DD.....D...".3.
   17c13:	0811 2117 41c1 1222 0008 4022 22e2 e022     ...!.A"..."@."".
   17c23:	da36 6212 a808 9fa8 caa8 000c 8844 2e00     6..b........D...
   17c33:	0000 4444 447f 2a22 ff2a 2a2a 0023 8844     ..DD.D"**.**#.D.
   17c43:	0e00 8044 4444 447f 8800 8ef9 ff88 0088     ..D.DD.D........
   17c53:	8844 8024 002e 7f44 0044 08ff ff08 1008     D.$...D.D.......
   17c63:	0010 424c 4ee4 6022 4444 447f 2054 804f     ..LB.N"`DD.DT O.
   17c73:	204f 0010 8844 002c 00e0 4444 447f 1044     O ..D.,...DD.DD.
   17c83:	8f68 ef88 0010 8844 c082 002e 4444 447f     h.....D.....DD.D
   17c93:	0044 497f 4949 007f 8844 c082 e002 4444     D..III..D.....DD
   17ca3:	447f 2244 ff22 3e22 0002 8a44 80a4 2084     .DD"".">..D.... 
   17cb3:	9110 9591 fd95 9191 9191 0010 222e e2e2     ............."..
   17cc3:	202e 5212 5454 705b 5458 9294 0012 022c     . .RTT[pXT....,.
   17cd3:	86e0 0086 95ff 97fd 9595 ff90 9f90 0080     ................
   17ce3:	2ee2 e222 602a ff10 0010 ff20 2222 ff22     ..".*`.... .""".
   17cf3:	0020 804c 220e 002e ff21 0022 94a4 ff84      .L.."..!.".....
   17d03:	9484 00a4 002e 0e00 0000 2222 24ff 0824     .........."".$$.
   17d13:	ff08 292a 0008 e002 0e00 8000 ff10 0010     ..*)............
   17d23:	0203 fe02 2222 0023 804c 22e2 e022 2222     ....""#.L.."".""
   17d33:	24ff 0300 fe02 2222 0023 e002 220e e022     .$....""#...."".
   17d43:	ff10 0010 121f f212 5252 005e 864c 0080     ........RR^.L...
   17d53:	0000 ff22 0024 243f ff24 2424 003f 002e     ..".$.?$$.$$?...
   17d63:	8e88 8088 2520 fd25 2525 1110 10fe 001f     .... %%.%%......
   17d73:	220e 482e e022 2222 24ff 2010 3fe0 2525     .".H"."".$. .?%%
   17d83:	0025 e002 0e00 0000 ff22 1024 c03f 2224     %.......".$.?.$"
   17d93:	ff20 0020 002e 02e0 002e ff10 0010 487f      . ............H
   17da3:	4a4c 898f 0088 864c 0080 80e0 ff10 0010     LJ....L.........
   17db3:	447f 4444 847f 0084 804c 42e2 c0c2 1f00     .DDD....L..B....
   17dc3:	4820 4444 4444 2048 001f 4208 2aa2 8024      HDDDDH ...B.*$.
   17dd3:	ff10 0010 4f71 c241 4442 0074 804c 220e     ....qOA.BDt.L.."
   17de3:	e022 ff10 0010 90ff 9197 9291 00f2 864c     ".............L.
   17df3:	e288 6022 ff22 ff24 8a8a 8f8a fa8a 0002     .."`".$.........
   17e03:	0e2e 0824 2042 ff10 0010 ce39 2008 20ff     ..$.B ....9.. . 
   17e13:	003f 804c c2e2 e0c2 ff80 9292 80ff ff00     ?.L.............
   17e23:	8880 00f7 444c 0ee8 8008 4444 45ef 4545     ....LD....DD.EEE
   17e33:	4545 44ef 0044 e200 2222 00e0 4848 ec4b     EE.DD...""..HHK.
   17e43:	5f48 ec48 484b 0048 0448 444e 4008 4840     H_H.KHH.H.ND.@@H
   17e53:	49e8 4b49 494c 48e9 0040 a2aa 222e a02a     .IIKLI.H@...."*.
   17e63:	4444 47e4 475c 5544 44ee 0044 8224 a24e     DD.G\GDU.DD.$.N.
   17e73:	e022 4140 e141 5f41 e949 4149 0040 220e     ".@AA.A_I.IA@.."
   17e83:	2222 002e 4a4f 4aea 4a4a 4a4a 4aea 004f     ""..OJ.JJJJJ.JO.
   17e93:	aaea aaaa e0aa 4f40 4aea 4a4a 4a4a 4fea     ......@O.JJJJJ.O
   17ea3:	0040 aa2e aaaa 20ae 4f40 4aea 5f4a 4a4a     @...... @O.JJ_JJ
   17eb3:	4fea 0040 888e 8888 80ae 484f 4aeb 4a4a     .O@.......OH.JJJ
   17ec3:	4a4a 48eb 004f 88e0 8888 e0a2 4742 40e8     JJ.HO.......BG.@
   17ed3:	4242 4f42 42e2 0042 000e 2e22 2022 4742     BBBO.BB..."." BG
   17ee3:	44e8 4445 4444 44ef 0044 000e 2208 00e0     .DEDDD.DD...."..
   17ef3:	4444 4aea 6a52 4a56 44eb 0044 0000 a884     DD.JRjVJ.DD.....
   17f03:	0000 4f40 52ea 4052 484f 4fe8 0040 240e     ..@O.RR@OH.O@..$
   17f13:	e040 004c 4f40 51e8 4057 484f 4fe8 0040     @.L.@O.QW@OH.O@.
   17f23:	a48a e080 0088 5f40 51f1 7559 5551 41fd     ......@_.QYuQU.A
   17f33:	0040 4444 4244 002e 484e eb48 4858 eb48     @.DDDB..NHH.XHH.
   17f43:	4848 004e 4822 0800 2042 494c 49e9 4f49     HHN."H..B LI.IIO
   17f53:	4949 49e9 004c 2222 222e 2022 5458 54f4     II.IL.""."" XT.T
   17f63:	5457 5454 50f7 0059 8808 88e8 e084 4a43     WTTT.PY.......CJ
   17f73:	ea4a 4a5f ea5f 4e4a 0040 acaa e888 e0aa     J._J_.JN@.......
   17f83:	4a4a 4cea 4858 4848 4aea 004e aaea aaaa     JJ.LXHHH.JN.....
   17f93:	e0aa 2c23 24ff ff22 8888 88bf 008f e000     ..#,.$".........
   17fa3:	2c68 e002 ff26 0024 08ff 0008 08ff 0031     h,..&.$.......1.
   17fb3:	020e 40e4 e0e2 2c23 24ff 300a fe02 2201     ...@..#,.$.0..."
   17fc3:	0018 e000 4822 0000 2424 2a2b fe32 2a32     ...."H..$$+*2.2*
   17fd3:	242b 0024 ea00 aaaa 00e0 2c23 24ff fe22     +$$.......#,.$".
   17fe3:	9f80 fe80 0000 e000 8024 60e2 2621 24ff     ........$..`!&.$
   17ff3:	1822 22e2 223f 0022 e000 0000 00e0 2c23     ".."?"".......#,
   18003:	24ff 0422 0cff 2417 0044 e000 e200 204c     .$"....$D.....L 
   18013:	2c23 22ff fe01 0101 01fe 0000 e400 2c80     #,."...........,
   18023:	6008 2621 24ff 4022 c47f 4744 0040 e000     .`!&.$"@..DG@...
   18033:	8006 002e 2423 20ff 8704 84fc ff84 0004     ....#$. ........
   18043:	e080 222e 202e ff26 0024 84ff fc84 8484     ...". &.$.......
   18053:	00fc 000e 22e2 e022 2621 24ff 880a 9fa8     ....."".!&.$....
   18063:	c9a8 000e e000 2e02 0000 9f84 88e8 848f     ................
   18073:	ff84 8484 0004 440c 0ec0 0000 9f84 8fe8     .......D........
   18083:	8900 a89e 08cf 000f 4c0c 4882 c022 524a     .........L.H".JR
   18093:	ca6b 526a 004a 007f 00ff 8a00 e0aa e0a2     k.jRJ...........
   180a3:	4f48 6a5a 4fca 6a4a 4f5a 0048 8808 aa8e     HOZj.OJjZOH.....
   180b3:	60aa 89ff b986 8000 94ff 9f92 0000 2ac2     .`.............*
   180c3:	e402 204e fc83 9f92 f408 8586 15f4 0016     ..N ............
   180d3:	c002 2402 2084 4a52 42ff 524a ff00 9880     ...$. RJ.BJR....
   180e3:	00e7 082c 0e42 0088 e45c 454f ff00 bf80     ..,.B...\.OE....
   180f3:	a2a0 00be e088 0c68 e022 9989 8fe9 9991     ......h.".......
   18103:	ff00 9880 00e7 2c22 0e44 0088 2f20 2c28     ......",D... /(,
   18113:	48ba de6a 5050 0030 aa2a a8aa c0aa 497f     .Hj.PP0.*......I
   18123:	7f49 4404 7f44 4444 0004 2ee2 2e00 0000     I..DD.DD........
   18133:	0202 aafa abaa aaaa 02fa 0002 aa2a cac8     ............*...
   18143:	20aa 0000 aafa aaaa aaaa 00fa 0000 ae8a     . ..............
   18153:	aaaa 80ca 4b48 6252 fa42 6242 4b52 0048     ....HKRbB.BbRKH.
   18163:	aa0e aaaa 00ae 0f00 a8f8 a8a8 a8ab f8a8     ................
   18173:	0008 2268 0848 2042 407f 007f 80ff a0bf     ..h"H.B .@......
   18183:	a0ff 00bf 8088 a2e2 a0ea 407f 847f 9088     ...........@....
   18193:	88ff 8488 0084 a288 e222 2022 487f 007f     ........"." .H..
   181a3:	7f00 4848 888f 0008 8288 00c0 00e0 447f     ..HH...........D
   181b3:	087f d535 1515 1f10 0000 c0c4 0200 002e     ..5.............
   181c3:	0202 abfa aeaa abaa 02fa 0002 2a22 4a44     ............"*DJ
   181d3:	2022 487f 7f48 2020 e43f 2724 0020 8888     " .HH.  ?.$' ...
   181e3:	022c 002c f900 a8aa aba8 a8a8 faa9 0000     ,.,.............
   181f3:	4422 8480 2042 407f 087f 0808 49ff 4848     "D..B .@.....IHH
   18203:	0008 8088 e000 0084 fa02 abaa faaa abaa     ................
   18213:	faaa 0002 4802 0e00 0000 223e 22ff 003e     .....H....>".">.
   18223:	407f 007f 0000 e422 80e4 e0e2 407f 7f40     .@...."......@@.
   18233:	ff00 9292 ff92 0000 4cc4 222e 202e 407f     .........L.". .@
   18243:	007f 91ff ff91 9191 00ff c0c4 0e00 0000     ................
   18253:	ea0f aaaa aabf eaaa 000f 0000 8888 aaca     ................
   18263:	60a2 407f 007f 407f 407f 80ff 0000 ac88     .`.@...@.@......
   18273:	e422 202c 407f 007f 2414 8c54 2645 0014     "., .@...$T.E&..
   18283:	8088 4a08 0000 407f 027f d422 494a 6254     ...J...@..".JITb
   18293:	0041 8088 4208 0020 407f 107f df20 5252     A....B ..@.. .RR
   182a3:	415e 007f c0c4 220e 6022 407f 007f 4474     ^A.....""`.@..tD
   182b3:	c744 4444 0074 8088 2e02 0000 407f 207f     D.DDt........@. 
   182c3:	21fe 003e 81be 00fe c0c4 6068 6068 417f     .!>.......h`h`.A
   182d3:	087f 88ff 99aa ff88 0008 0000 8a88 80ae     ................
   182e3:	407f 007f ce39 2010 20ff 003f 8088 c6e2     .@..9.. . ?.....
   182f3:	e082 407f 007f cc3b 0010 cc3b 0010 8088     ...@..;...;.....
   18303:	a2aa a0aa 2b68 2a2a ea2a 282b 2f28 0068     ....h+***.+((/h.
   18313:	440c c244 002e 2067 2f20 e920 2929 2929     .DD...g  / .))))
   18323:	006f c082 2202 e022 007f 00ff 007f 88ff     o...."".........
   18333:	88ff 00ff c4c4 88c0 80e8 007f 00ff 007f     ................
   18343:	447f 44ff 007f c4c4 e2c0 e0e2 203f 20ff     .D.D........? . 
   18353:	103f 24e4 24ff 0024 e880 2c80 200c 007f     ?..$.$$....,. ..
   18363:	00ff 207f 48cf 404f 007f c4c4 88c0 e0a2     ... .HO@........
   18373:	286f 2928 e02b 282f 2828 006f a288 e0c0     o(()+./(((o.....
   18383:	8088 1272 f41d 1514 0076 007f 00ff 2c22     ..r.....v.....",
   18393:	0080 e0a2 4f88 ff00 9e80 9e92 ff80 0000     .....O..........
   183a3:	2a2c 2222 20aa 007f 00ff 007f 92ff 929f     ,*"". ..........
   183b3:	00f2 c4c4 e2c0 40c2 1575 f515 1515 0077     .......@u.....w.
   183c3:	007f 00ff 22e2 4024 e0a2 203f 20ff 003f     ....."$@..? . ?.
   183d3:	253f a5fc 00a6 e880 8286 20c2 007f 00ff     ?%......... ....
   183e3:	007f a9c5 a993 00c5 c4c4 44c0 40e4 4a4b     ...........D.@KJ
   183f3:	6252 fa0a 6202 2a12 004b aaea aaaa e0aa     Rb...b.*K.......
   18403:	88ff 948c d4a5 96ad 888c 00ff 22e2 622a     ............."*b
   18413:	e022 94ff b4d7 9c94 b494 94d4 00ff 88e0     "...............
   18423:	8888 e0a2 c929 494f 0049 1010 10ff 0010     ....).OII.......
   18433:	e200 2220 20e2 cf29 4949 4404 7f44 8444     .. ". ).II.DD.D.
   18443:	0004 220e 0e00 0000 cf29 4949 0000 00ff     ..."....).II....
   18453:	007f 00ff 220e 8006 e0c0 cf29 0049 ff00     ....."....).I...
   18463:	8488 00ff 0000 200e 0068 60e2 cf29 4949     ....... h..`).II
   18473:	4600 40f9 7c43 0040 220e 4802 0042 cf29     .F.@C|@..".HB.).
   18483:	0049 8cf0 90a3 8c83 00f0 200e 4822 2042     I.......... "HB 
   18493:	e414 ff25 2425 ff04 9880 00e7 0e48 4e08     ..%.%$......H..N
   184a3:	0088 4f88 1000 e020 2a3f 2a2a 0020 222c     ...O.. .?*** .,"
   184b3:	a222 2022 2272 24ff 4900 7f49 9292 0000     "." r".$.II.....
   184c3:	e000 0c00 6022 c220 4262 2242 42c2 4262     ...."` .bBB".BbB
   184d3:	0040 2222 2222 2022 4f88 2400 48df 507f     @.""""" .O.$.H.P
   184e3:	5e52 0001 222c aaaa a0aa 3f08 00c0 4a4b     R^..,".....?..KJ
   184f3:	fa4a 4a4a 004b 000e 22e2 e022 3f08 09c0     J.JJK....""..?..
   18503:	4f4a 48f8 2959 004a 800e aa0e 6022 3f08     JO.HY)J....."`.?
   18513:	00c0 929f f292 9292 009f 000e 22e2 e022     ............."".
   18523:	3f08 24c0 3a2f 2aea 2a2a 002f 000e 88e8     .?.$/:.***/.....
   18533:	e08a 3f08 00c0 6b52 ca4a 6a4a 0052 000e     ...?..RkJ.JjR...
   18543:	8a08 e0aa 7e00 9252 ff00 5200 7e52 0000     .....~R....RR~..
   18553:	4422 8480 2042 2020 807e 2520 38e4 6aa4     "D..B   ~. %.8.j
   18563:	0024 22e2 222e e022 3f08 00c0 80ff a8af     $..".""..?......
   18573:	80af 00ff 000e 88e0 e082 3f08 f0c0 9097     ...........?....
   18583:	9097 f097 0000 020e e0c0 e0e2 3f08 10c0     .............?..
   18593:	2464 ff25 2425 0024 000e 0e48 4008 3f08     d$%.%$$...H..@.?
   185a3:	12c0 5322 9292 2252 0012 020e 226a 202c     .."S..R"....j", 
   185b3:	3f08 00c0 1221 00ff 12ff 0021 020e 8024     .?..!.....!...$.
   185c3:	60e2 3f08 00c0 ca2f 0a0a ca0a 002f 000e     .`.?../...../...
   185d3:	88e8 e08a 3f08 00c0 6544 c854 6554 0044     .....?..DeT.TeD.
   185e3:	000e 002c 000e 3f08 00c0 5648 c061 5661     ..,....?..HVa.aV
   185f3:	0048 000e 4822 2042 3f08 00c0 64a4 3f24     H..."HB .?...d$?
   18603:	6424 00a4 000e 8e88 8088 3f08 74c0 504f     $d.........?.tOP
   18613:	c678 4241 0074 000e 20e2 2084 7d01 5555     x.ABt.... . .}UU
   18623:	57d5 5555 7d55 0001 00e0 000e e022 7f00     .WUUU}......"...
   18633:	5555 55d5 5555 7755 0000 4444 444e 4044     UU.UUUUw..DDNDD@
   18643:	3f08 12c0 543c 1f94 6414 0014 080e 8e88     .?..<T...d......
   18653:	8088 c721 0018 92ff 9292 ff92 0000 020e     ..!.............
   18663:	22e2 202e 2212 8a4b 224a 0012 007f 00ff     .". ."K.J"......
   18673:	a226 202c e082 aea9 4a59 08a8 ff00 9880     &., ....YJ......
   18683:	00e7 a426 0ec6 0088 0402 e118 0418 e01a     ..&.............
   18693:	0418 0002 0e2c 622a 6068 1111 a5a9 8fc1     ....,.*bh`......
   186a3:	2541 1129 0011 4422 040e 2042 2424 b557     A%)..."D..B $$W.
   186b3:	1555 a515 2455 0024 e202 20a4 e0e2 482f     U...U$$.... ../H
   186c3:	4f89 0820 fe08 9211 0054 26c2 4802 e084     .O .....T..&.H..
   186d3:	ff00 ff92 1202 12ff 12ff 0002 2e68 8006     ............h...
   186e3:	00e0 1f00 4820 4444 4444 2048 001f 4208     .... HDDDDH ...B
   186f3:	2aa2 8024 ff00 ff92 1010 fc13 1013 0010     .*$.............
   18703:	2e68 4248 200c 92ff ff92 4140 40fe 404f     h.HB. ....@A.@O@
   18713:	0040 2ee0 2e2c 602c ff00 ff92 2f00 ff21     @...,.,`...../!.
   18723:	4f41 0000 2e68 0c00 6022 f905 8781 09f9     AO..h..."`......
   18733:	0009 007f 00ff 0e24 2004 e082 4f88 1000     ......$.. ...O..
   18743:	40e6 5f40 4040 0066 222c aa2a 2022 2f10     .@@_@@f.,"*." ./
   18753:	2fea 3f20 ff00 9880 00e7 8a08 0e2e 0088     ./ ?............
   18763:	2452 00df ff00 9292 ff92 0000 c042 222e     R$..........B.."
   18773:	202e 44a2 00bf 91ff ff91 9191 00ff c042     . .D..........B.
   18783:	0e00 0000 44a2 20bf 51df 5151 415f 007f     .....D. .QQQ_A..
   18793:	c042 22e2 6022 44a2 00bf 4a4e 4aff 4aff     B..""`.D..NJ.J.J
   187a3:	007b c042 8024 c0e4 2510 49d5 6555 2515     {.B.$....%.IUe.%
   187b3:	25c5 0014 220e 2222 002e 2504 4c34 55e4     .%..."""...%4L.U
   187c3:	4848 6150 0000 a222 4248 20a2 0101 457d     HHPa..".HB. ..}E
   187d3:	d567 5545 0475 0007 4822 42e8 00a8 4fe0     g.EUu..."H.B...O
   187e3:	6040 2800 ff28 2b28 00a8 220e 2202 40c2     @`.((.(+...".".@
   187f3:	4fe0 6040 1b00 ca2a 320a 000b 220e 220e     .O@`..*..2..."."
   18803:	e022 6380 8600 92f8 009f 007f 00ff 0068     "..c..........h.
   18813:	002c e082 6380 1000 24e4 fc27 2427 0024     ,....c...$'.'$$.
   18823:	0068 002c e0e2 7f00 4844 5575 57d5 5f50     h.,.....DHuU.WP_
   18833:	0040 0068 22e2 60aa 7f12 5040 de51 5252     @.h..".`..@PQ.RR
   18843:	5352 0040 2468 0280 002c 7f12 4f40 4040     RS@.h$..,...@O@@
   18853:	40df 4f40 0040 0e68 e222 002e 7f12 5240     .@@O@.h.".....@R
   18863:	5253 5bd6 4352 0040 2468 4a82 002e 5248     SR.[RC@.h$.J..HR
   18873:	4b66 c252 4342 5264 0048 4822 0e00 e022     fKR.BCdRH."H..".
   18883:	4a4a 5b6a ca4e 5a4a 4a6b 004a aa22 4a44     JJj[N.JZkJJ.".DJ
   18893:	2022 5140 c46a 4659 2040 20ff 003f 4882     " @Qj.YF@ . ?..H
   188a3:	0642 e082 001c 10ff 2a62 ff2a 2a2a 0023     B.......b**.**#.
   188b3:	082c 0e40 c004 1f00 4820 4444 4444 2048     ,.@..... HDDDDH 
   188c3:	001f 4208 2aa2 8024 0038 10ff 2f60 ff21     ...B.*$.8...`/!.
   188d3:	4141 004f 082c 0c40 6022 003c 08ff 0030     AAO.,.@."`<...0.
   188e3:	487f 884f 0088 0c2c 8026 00e0 0038 10ff     .HO...,.&...8...
   188f3:	1060 c82f 2f49 0010 082c c260 6022 0038     `./.I/..,.`."`8.
   18903:	08ff 4101 ff41 7f41 0001 0c2c 4822 2042     ...AA.A...,."HB 
   18913:	4990 1000 12ff 1212 ff12 0010 002c 22e2     .I..........,.."
   18923:	002e 4990 2000 202f 20ff 60af 0020 062c     ...I. / . .` .,.
   18933:	e080 60e2 4990 1000 fe11 1f10 5291 0014     ...`.I.......R..
   18943:	242c 4ea2 6022 4990 0000 121f 52f2 5252     ,$.N"`.I.....RRR
   18953:	005e 062c 0080 0000 4990 3e02 2222 22ff     ^.,......I.>""."
   18963:	3e22 0002 222c 0848 2042 8910 0040 80ff     ">..,"H.B ..@...
   18973:	bc97 8097 00ff 002c aae2 e0a2 4990 ff00     ......,......I..
   18983:	fc82 8080 82fe 00ff 0e2c 2222 e022 4990     ........,."""..I
   18993:	1208 4a2a 4a8b 132a 0008 002c e000 004c     ..*J.J*...,...L.
   189a3:	4990 0c00 4574 9f44 8485 0004 042c 2e80     .I..tED.....,...
   189b3:	4008 4990 ff00 bf81 7f00 4040 007f aa2c     .@.I......@@..,.
   189c3:	0e48 8008 4990 0000 4844 e354 4844 0040     H....I..DHT.DH@.
   189d3:	022c a226 202c 4990 0000 2949 ff09 2909     ,.&., .I..I)...)
   189e3:	0049 002c 0e00 0000 4990 3800 2f20 21e1     I.,......I.8 /.!
   189f3:	2222 0038 002c 220e e022 4990 ff00 9292     ""8.,..""..I....
   18a03:	9e92 9293 00f2 0e2c 2022 200c 4990 9e00     ......,." . .I..
   18a13:	f392 0300 01fc 0000 022c 2e2c 202c 4990     ........,.,., .I
   18a23:	8a00 928a d2a3 8a8a 0000 222c e222 2022     ..........,""." 
   18a33:	003e 10ff 2223 fe22 2222 0023 e000 22e2     >...#"".""#...."
   18a43:	e022 003e 20ff 1710 ff10 9710 0050 e000     ".>.. ......P...
   18a53:	0e68 6008 003e 10ff 94a4 ff84 9484 00a4     h..`>...........
   18a63:	e000 0e00 0000 003e 20ff ff00 8888 8888     ......>.. ......
   18a73:	00ff e000 aa0a a0aa 003e 20ff 7e02 ff42     ........>.. .~B.
   18a83:	7e42 0002 e000 8024 2084 003e 20ff 2010     B~....$.. >.. . 
   18a93:	24ff 2424 0024 e000 e800 8088 1f00 4820     .$$$$......... H
   18aa3:	4444 4444 2048 001f 4208 2aa2 8024 003e     DDDDH ...B.*$.>.
   18ab3:	20ff ff00 9790 9191 00f2 e000 0e68 6022     . ..........h."`
   18ac3:	003e 20ff 4a4e 4aff 4aff 007b e000 c002     >.. NJ.J.J{.....
   18ad3:	c0e4 003e 20ff aaca 9792 aa92 00ca e000     ..>.. ..........
   18ae3:	8e88 8088 4870 4b49 c94d 4949 4949 0070     ....pHIKM.IIIIp.
   18af3:	0e48 2222 002e 5564 5555 c565 5575 5755     H.""..dUUUe.uUUW
   18b03:	0061 0000 0200 e022 4360 4740 cd50 4442     a.....".`C@GP.BD
   18b13:	4248 0061 4e82 22a2 80e0 5f90 0000 80ff     HBa..N."..._....
   18b23:	a4a4 a4bf 00a4 402e aae2 a0aa 5f90 0000     .......@....._..
   18b33:	5444 ff55 5455 0044 402e 0e48 4008 5f90     DTU.UTD..@H..@._
   18b43:	0000 4908 ff49 4949 0008 402e 2e22 2022     ...II.II...@"." 
   18b53:	5f90 0000 4a43 fa4a 4a4a 0043 402e 22e2     ._..CJJ.JJC..@."
   18b63:	e022 7f00 6969 6f69 ada9 b9ab 0000 2268     "...iiio......h"
   18b73:	4248 0022 5f90 2100 3c23 20e7 222f 0024     HB".._.!#<. /"$.
   18b83:	402e 2482 2084 7f00 5554 5654 9495 1c97     .@.$. ..TUTV....
   18b93:	0000 4468 44c4 80e8 9ad6 97b2 d292 ff00     ..hD.D..........
   18ba3:	9880 00e7 4e44 0e88 0088 2422 32ef 4805     ....DN...."$.2.H
   18bb3:	435c 5360 007c e000 2402 2084 9097 909f     \C`S|....$. ....
   18bc3:	8813 fe89 8889 0000 e080 8024 2084 a221     ..........$.. !.
   18bd3:	2a67 2231 ff2a 2a2a 0023 e000 0e00 c004     g*1"*.**#.......
   18be3:	cf42 0074 007f ff00 0808 0008 020e 2ee2     B.t.............
   18bf3:	2022 9097 909f 0097 487f 88ff 0088 e080     " .......H......
   18c03:	e282 200c 5f90 0000 e414 ff25 2425 0004     ... ._....%.%$..
   18c13:	402e 0e48 4008 5f90 0000 c424 fc47 4447     .@H..@._..$.G.GD
   18c23:	0004 402e c022 60e2 5f90 0000 90ff 9497     ...@"..`._......
   18c33:	9494 0097 422e e2c0 e022 5f90 0000 2910     .....B..".._...)
   18c43:	8f49 2949 0010 402e 2e22 2022 5f90 0000     I.I)...@"." ._..
   18c53:	2afb 4a2a 8a4a 003b 402e aaea e0aa 5f90     .**JJ.;..@....._
   18c63:	0200 2a0a 5fca 0f6a 0002 402e ae8a 0088     ...*._j....@....
   18c73:	5f90 0000 4470 cf44 4949 0072 482e 8e08     ._..pDD.IIr..H..
   18c83:	6022 5f90 0000 9ad6 97b2 9292 00d2 402e     "`._...........@
   18c93:	8e88 8088 5f90 2100 8a91 21ff 8a91 00ff     ....._.!...!....
   18ca3:	402e e002 e002 f302 ff12 1010 ff10 9110     .@..............
   18cb3:	0052 0e68 2402 40c2 8281 c8bf 2f90 2aea     R.h..$.@...../.*
   18cc3:	212e 003f e002 220c 6022 ae80 aeea bfa0     .!?....""`......
   18cd3:	bd80 a2a2 00bd aa2a 2aaa a022 80ff f788     ......*..*".....
   18ce3:	4c00 e554 4446 0049 88e0 a20a 204a fd22     .LT.FDI.....J ".
   18cf3:	3f20 7f00 4848 7f48 0000 8624 aa0a 20aa      ?..HHH...$.... 
   18d03:	fd22 3f20 1f00 ff12 1212 001f 8624 4c0c     ". ?........$..L
   18d13:	c044 f927 7c23 84ff 04ff 84ff 00ff 8624     D.'.#|........$.
   18d23:	e0c0 e0e0 6b48 52d2 076a aa8a ab92 00c8     ....Hk.Rj.......
   18d33:	000c 000e 004c db90 aaaa daaa da0a aeaa     ....L...........
   18d43:	00d0 8808 8a88 e0aa 7454 5aca 4266 5766     ........Tt.ZfBfW
   18d53:	544a 0064 8888 e88a 8088 6848 55d4 046c     JTd.......Hh.Ul.
   18d63:	6f44 5050 0068 2a02 8aaa 00ac 9597 9f95     DoPPh..*........
   18d73:	a595 80a7 00ff 0000 2e22 2024 c0c2 4f88     ........".$ ...O
   18d83:	2120 20fe 003f 407f 007f 2a2c a22a a0aa      !. ?..@..,**...
   18d93:	4f88 1700 d434 1414 1764 0000 2a2c aaaa     .O..4...d...,*..
   18da3:	20aa da36 6212 ff20 2222 ff22 0020 8844     . 6..b .""". .D.
   18db3:	220e 002e da36 6212 ff10 ff10 ff11 0010     ."..6..b........
   18dc3:	8844 220e 2022 da36 6212 1110 15fe 5594     D.."" 6..b.....U
   18dd3:	0016 8a44 2448 2084 84bc 04fd 81ff 80fe     ..D.H$. ........
   18de3:	82fe 00ff 2288 22c2 e022 84bc 07fd 3f10     .....".""......?
   18df3:	12c0 ff11 0010 2c8a 000e 002e da36 6212     .......,....6..b
   18e03:	2910 49c9 6959 000f 8844 2202 e022 da36     .).IYi..D.."".6.
   18e13:	6212 7b00 ff08 0808 007b 8844 2e0e e022     .b.{....{.D...".
   18e23:	84bc 07fd c584 93a9 c5a9 0004 2c8a 4e44     .............,DN
   18e33:	4044 84bc fc85 1807 8a6b 3212 001b 2288     D@......k..2..."
   18e43:	e2c0 e022 7700 058d 8f75 7505 078d 0000     .."..w..u..u....
   18e53:	220e 222e 002e 4444 447f 0044 4444 457f     ."."..DD.DD.DD.E
   18e63:	0044 e422 2240 a0e2 ff88 0088 2424 fc27     D.".@"......$$'.
   18e73:	2524 0024 804c 222e 6048 ff88 0088 919f     $%$.L.."H`......
   18e83:	809f ff80 0080 804c 0200 002e 4444 447f     ......L.....DD.D
   18e93:	ff20 3f20 62a1 0024 8a44 4cc2 e022 ff88      . ?.b$.D..L"...
   18ea3:	1088 d03f ff10 9010 0050 804c 00e0 c0c2     ..?.....P.L.....
   18eb3:	8888 88ff 0088 623f 22a2 003f c844 e280     ......?b."?.D...
   18ec3:	e022 8888 88ff 0088 a0bf a0e7 00bf e000     "...............
   18ed3:	2400 2084 4444 447f ff00 9292 929f 00f2     .$. DD.D........
   18ee3:	8844 222e 200c ff88 2088 20ff 003f 407f     D..". ... . ?..@
   18ef3:	007f 864c e082 c0c4 ff22 0024 4a4b fa4a     ..L.....".$.KJJ.
   18f03:	4a4a 004b 002e 22e2 e022 ff10 8810 ff84     JJK...."".......
   18f13:	8080 84ff 0088 824c 222e 20e2 ff22 9024     ......L..". ".$.
   18f23:	005f 2428 ff20 0020 022e 2ac2 20aa ff10     _.($ . ....*. ..
   18f33:	8010 a4bf a4a4 bfa4 0080 824c aaaa 20aa     ..........L.... 
   18f43:	ff22 4024 012f f826 2126 0020 022e 22c2     ".$@/.&.&! ...."
   18f53:	a022 ff10 0010 9988 8fe9 9189 0088 804c     ".............L.
   18f63:	2e22 2022 282b 2aff 012a 017f 02ff 0002     "." +(.**.......
   18f73:	c2e4 2222 20e2 5010 7c57 f554 7c54 5057     .."". .PW|T.T|WP
   18f83:	0010 a202 4448 00a2 0808 08ff 2940 f909     ....HD......@)..
   18f93:	2909 004f 8844 2202 e022 ff10 0010 80ff     .)O.D.."".......
   18fa3:	a8af 80af 00ff 804c 88e0 e0a2 4a09 f84f     ......L......JO.
   18fb3:	4a4f ff09 9880 00e7 8206 0ee0 0088 ff10     OJ..............
   18fc3:	0010 407f c8cf 404f 007f 804c 88e0 e0a2     ...@..O@..L.....
   18fd3:	ff10 0010 4c48 c473 4358 004c 824c 2448     ....HLs.XCL.L.H$
   18fe3:	2084 2222 24ff ab02 aaaa faaf 0002 e002     . "".$..........
   18ff3:	8200 00e0 ff10 0010 92ff 9392 9292 00fe     ................
   19003:	804c 02e2 a0a4 5457 5ff4 5454 5f54 54f4     L.....WT._TTT_.T
   19013:	0057 aaea 2a22 e0aa 4941 eb4d 5f49 eb49     W..."*..AIM.I_I.
   19023:	494d 0041 4422 8480 2042 5750 55f5 7f55     MIA."D..B PW.UU.
   19033:	5555 5df5 0041 2222 4248 a026 4040 44ff     UU.]A.""HB&.@@.D
   19043:	f544 5454 44f7 0040 a202 4448 00a2 5e40     D.TT.D@...HD..@^
   19053:	4aea 414a 4a5e 4aea 0046 8888 888e 8088     .JJA^J.JF.......
   19063:	4e40 4aea 4a4a 4a4a 4eea 0040 aaea aaaa     @N.JJJJJ.N@.....
   19073:	e0aa 505f 55f5 5555 5555 50f5 005f c4e0     .._P.UUUUU.P_...
   19083:	4444 e0e2 484f 4aeb 4a4a 4a4a 48eb 004f     DD..OH.JJJJJ.HO.
   19093:	aae2 aaaa e0a2 5945 49e9 5f49 4949 49e9     ......EY.II_II.I
   190a3:	0041 4822 080e 2042 5251 5bf6 4a42 4f4a     A."H..B QR.[BJJO
   190b3:	52f2 0042 4a2a aa2a 20aa 4242 4aeb 4a4e     .RB.*J*.. BB.JNJ
   190c3:	5252 42e3 0042 2c88 0e00 8008 4742 40e8     RR.BB..,....BG.@
   190d3:	4242 4f42 4ae2 0046 000e 8024 2084 4741     BBBO.JF...$.. AG
   190e3:	41e8 4949 4f49 49e9 0049 000e 2e22 2022     .AIIIO.II..."." 
   190f3:	4542 40ea 4a42 4a4a 4aeb 004a 008e 2200     BE.@BJJJ.JJ...."
   19103:	00e0 4242 4ae4 5352 4a52 42e4 0042 aa02     ..BB.JRSRJ.BB...
   19113:	aaae 00a2 4544 49e9 6555 4955 45e9 0044     ....DE.IUeUI.ED.
   19123:	2602 22a2 0042 5748 55f5 5555 5755 50f0     .&."B.HW.UUUUW.P
   19133:	005f 440c 4c44 e022 4941 55e9 5353 5553     _..DDL".AI.USSSU
   19143:	59f5 0040 e200 2222 002e 4949 4de9 5a4a     .Y@...""..II.MJZ
   19153:	4d4a 49e9 0049 4802 0e00 0000 4a4a 4aed     JM.II..H....JJ.J
   19163:	5849 4a49 4aec 004a 242a 4448 2022 4950     IXIJ.JJ.*$HD" PI
   19173:	e040 5c42 eb48 4848 004e 002c 8024 2084     @.B\H.HHN.,.$.. 
   19183:	a584 fd95 8785 fd85 a595 0084 2222 222e     ............""."
   19193:	2022 4a4c 4bea 4f48 4948 48ea 004c 4822     " LJ.KHOHI.HL."H
   191a3:	082e 2042 494c 4aee 4f4a 4a4a 4aea 004c     ..B LI.JJOJJ.JL.
   191b3:	8888 888e 8088 5541 55f5 5555 5555 5ff5     ......AU.UUUUU._
   191c3:	0041 8400 2e00 0000 5f40 54f4 5555 5454     A.......@_.TUUTT
   191d3:	5cf7 0040 0468 a042 200c 5e40 f253 5e53     .\@.h.B.. @^S.S^
   191e3:	7e40 ff00 0000 8024 22e2 60aa 4848 4deb     @~....$..".`HH.M
   191f3:	4049 4043 42ef 0041 e08a 0208 80e0 4b48     I@C@.BA.......HK
   19203:	e85d 4e49 ef40 4848 004f 4822 0e42 e022     ].IN@.HHO."HB.".
   19213:	5551 59f3 5f55 5151 55f1 0059 4422 8480     QU.YU_QQ.UY."D..
   19223:	2042 564d 40e4 4544 4444 44ef 0044 a0aa     B MV.@DEDD.DD...
   19233:	a200 00e0 4948 5549 fd65 5565 4949 0048     ....HIIUe.eUIIH.
   19243:	4022 002e 2042 2c23 24ff 4842 4fe8 48e8     "@..B #,.$BH.O.H
   19253:	004f e000 0e00 8008 2621 24ff 9f00 9f91     O.......!&.$....
   19263:	ff80 0080 e000 0200 002e 2621 24ff 8122     ..........!&.$".
   19273:	f48f 8484 0087 e000 e280 e022 2c23 24ff     ..........".#,.$
   19283:	1022 10ff 519f 0016 e000 242c 60c2 2621     "....Q....,$.`!&
   19293:	24ff ff00 b188 9d92 0080 e000 a20e a022     .$............".
   192a3:	2c23 28ff a416 ff84 a484 0014 e000 0e00     #,.(............
   192b3:	0000 2c23 24ff 1f02 f212 5252 005e e000     ..#,.$....RR^...
   192c3:	0068 0000 2c23 24ff 7f22 7f49 7f49 0000     h...#,.$".I.I...
   192d3:	e000 0e00 0000 2c23 22ff 0401 97f5 f595     ......#,."......
   192e3:	0005 e000 0000 c022 ff26 0024 223f ff22     ......".&.$.?"".
   192f3:	2222 003f 000e 2ee2 e022 2621 24ff fc00     ""?.....".!&.$..
   19303:	8485 8584 00fc e000 c002 200c 2621 24ff     ........... !&.$
   19313:	300a 3fe0 2424 0024 e000 0e00 8088 2621     .0.?$$$.......!&
   19323:	24ff 7f00 4948 894f 0088 e000 0068 80e0     .$..HIO.....h...
   19333:	2c23 24ff 7f02 5750 9554 0097 e000 0c68     #,.$..PWT.....h.
   19343:	6022 2621 24ff 7f00 4849 887f 008b e000     "`!&.$..IH......
   19353:	2288 002a 2c23 22ff 0c21 4475 855f 0084     ."*.#,."!.uD_...
   19363:	e000 8204 c0e0 2621 24ff ef10 4848 404f     ......!&.$..HHO@
   19373:	007f e000 8808 e0a2 2c23 24ff 8963 ff09     ........#,.$c...
   19383:	8909 0061 e000 0e00 0000 7f04 44d5 047f     ..a..........D..
   19393:	4f70 42c2 0074 022c 0ee0 e022 ff26 2024     pO.Bt.,...".&.$ 
   193a3:	20ff 003f 407f 007f 060e e082 c0c4 2c23     . ?..@........#,
   193b3:	24ff 4422 5b64 5448 0064 e000 ae2a 20aa     .$"Dd[HTd...*.. 
   193c3:	535e ff52 5352 005e 007f 00ff 0e48 4008     ^SR.RS^.....H..@
   193d3:	e082 a2bf a2fc 00bf 8080 80ff 0080 aaea     ................
   193e3:	02e0 00e0 a2bf 80bf a2bf 00bf 88ff 00f7     ................
   193f3:	e0e0 e0e0 80e8 aaaf caaa ff8a aaaa aaaa     ................
   19403:	00af 88e8 888e e0aa 9f84 8fe8 4d40 c575     ............@Mu.
   19413:	455f 0045 4c0c 0000 00e0 9f84 8fe8 2fa0     _EE..L........./
   19423:	ff21 4f41 0040 4c0c 0e00 6022 ff84 8f88     !.AO@..L.."`....
   19433:	ff00 0808 08ff 0030 4c0c 442e e0e2 7f42     ......0..L.D..B.
   19443:	4f48 0040 487f 8f48 0088 4c0c 002c 000e     HO@..HH....L,...
   19453:	7f44 4f48 4800 7848 8a89 000c 4c0c 4a2c     D.HO.HHx.....L,J
   19463:	2022 9f84 8fe8 ff80 8cb3 ff92 0000 8808     " ..............
   19473:	0068 6008 5a52 4a6a df4a 4a4a 5a6a 0052     h..`RZjJJ.JJjZR.
   19483:	aa2a aaae 20aa 5050 755f d555 7555 505f     *.... PP_uU.Uu_P
   19493:	0050 c444 4444 80e8 ff80 ff80 bc80 ff24     P.D.DD........$.
   194a3:	3d25 0000 0c68 aa2a 602a 4c42 5172 405e     %=..h.*.*`BLrQ^@
   194b3:	92ff ff92 0000 4822 e222 202e fc83 9f92     ......"H".. ....
   194c3:	3100 5cd6 4457 0047 c002 4882 c022 fc86     .1.\WDG....H"...
   194d3:	9e93 2900 8949 4492 0020 8024 2202 8044     ...)I..D .$.."D.
   194e3:	8c82 91f2 889e ca3b 330a 0018 4802 e200     ......;..3...H..
   194f3:	002e 744c 5fc4 1045 1213 12fe 0013 8e88     ..Lt._E.........
   19503:	e200 e022 e45c 454f bf80 bfa1 ff80 0080     ..".\.OE........
   19513:	e088 0200 002e e45c 454f 1f00 f212 5252     ......\.OE....RR
   19523:	005e e088 0068 0000 e45c 454f 0a00 1272     ^...h...\.OE..r.
   19533:	12ff 0012 e088 4822 2084 e45c 454f 2510     ......"H. \.OE.%
   19543:	9249 2144 0010 e088 2402 0080 8800 928b     I.D!.....$......
   19553:	a7e2 aaa2 80bb 0000 aa22 aaae 20a4 f908     ........".... ..
   19563:	5148 0254 2af9 4928 0058 2ca2 226a c060     HQT..*(IX..,j"`.
   19573:	0407 24fc 0027 83f8 809d 00f8 22e2 c0e2     ...$'........"..
   19583:	60e2 2514 0c46 f504 0404 2546 0014 4880     .`.%F.....F%...H
   19593:	082e 8040 407f 007f 80ff a4a4 a4bf 00a4     ..@..@..........
   195a3:	8088 aae2 a0aa 497f 7f49 9f00 ff81 9191     .......II.......
   195b3:	009f 2ee2 0000 e022 92ff ff92 ff00 92a1     ......".........
   195c3:	b38c 0080 2ee2 220e 202a 1f00 4820 4444     ......."* .. HDD
   195d3:	4444 2048 001f 4208 2aa2 8024 a9e9 afa9     DDH ...B.*$.....
   195e3:	e9a9 ff00 9880 00e7 2e22 0e22 0088 497f     ........"."....I
   195f3:	7f49 7804 fe02 7b00 0004 2ee2 2402 0080     I..x...{.....$..
   19603:	92ff ff92 4900 7f49 9292 0000 2ee2 0e00     .....II.........
   19613:	e022 497f 007f 2038 20ff 2027 0038 e0e2     "..I..8 . ' 8...
   19623:	002c e0e2 fa03 aaaa feab abaa faaa 0003     ,...............
   19633:	4ce0 4844 e042 407f 007f a2bf a0fc a2fc     .LDHB..@........
   19643:	00bf 8088 aaea e0aa 407f 207f 3c23 22e4     .........@. #<."
   19653:	222f 0024 8688 2c80 200c 0101 aefa abaa     /"$....,. ......
   19663:	aaaa 02fa 0003 e200 a2a2 c002 fb00 acaa     ................
   19673:	a8a9 aaab faaa 0003 4a4c e0c0 c004 fa00     ........LJ......
   19683:	aaab aeaa aaaa faab 0000 2e22 2622 20a2     .........."."&. 
   19693:	447f 7f44 ff00 9790 9191 00f2 4cc4 0e2c     .DD..........L,.
   196a3:	6022 407f 007f 5557 ff55 5555 005d 8088     "`.@..WUU.UU]...
   196b3:	8024 a084 407f 007f 2a2a 2af3 4a5b 005a     $....@..**.*[JZ.
   196c3:	8088 8024 60e2 407f 007f 24fc 032c 24fc     ..$..`.@...$,..$
   196d3:	002c 8088 8e88 8088 243f 243f 083f fe09     ,.......?$?$?...
   196e3:	4809 0028 8a88 80a4 2084 447f 447f 007f     .H(...... .D.D..
   196f3:	08ff 08ff 0010 c4c4 e4c2 60e2 407f 007f     ...........`.@..
   19703:	000f 04ff 04ff 0008 8288 c4e2 e0e2 577c     ..............|W
   19713:	5555 fd55 5555 5755 007c 440e 4444 004e     UUU.UUUW|..DDDN.
   19723:	487f 487f 107f 22ec 3e21 0020 8888 48a2     .H.H..."!> ....H
   19733:	6008 487f 487f 007f 90ff 919e 009e 8888     .`.H.H..........
   19743:	c282 4048 223e 22ff 083e e514 2426 0020     ..H@>".">...&$ .
   19753:	e422 c2e0 e022 223e 22ff 203e 203f 20e0     "...".>"."> ? . 
   19763:	0020 e422 e2e0 2022 7d00 4545 ff45 4545      ."..." .}EEE.EE
   19773:	7d45 0000 222e e2e2 202e 407f 007f 2848     E}..."... .@..H(
   19783:	f80f 280f 0048 8088 002c e0e2 407f 007f     ...(H...,....@..
   19793:	1e72 f415 1414 0077 8088 2a22 0048 f407     r.....w..."*H...
   197a3:	9e95 f495 0007 007f 00ff 00e8 e00a e082     ................
   197b3:	a8ef a8ab 00ef 80ff e890 0007 84a4 e0a0     ................
   197c3:	0088 407f 207f 917f 1412 12ff 0011 8088     ...@. ..........
   197d3:	00e0 00e0 a4ff bfa8 aaea aaaa a0af 00ff     ................
   197e3:	2ee2 aaaa e0e2 407f 207f 907f ff92 fe92     .......@. ......
   197f3:	0010 8088 2ce0 0000 407f 007f 80ff a0bf     .....,...@......
   19803:	a2bf 00a4 8688 e280 200c 407f 007f 2911     ......... .@...)
   19813:	8949 2949 0011 8088 a226 2024 407f 007f     I.I)....&.$ .@..
   19823:	f312 8f82 f382 0012 8088 0e68 6008 407f     ..........h..`.@
   19833:	007f 2515 49d5 5549 0065 c0c4 22e2 e022     ...%.IIUe...."".
   19843:	407f 007f a424 3f64 a464 0024 8088 8e88     .@..$.d?d.$.....
   19853:	8088 407f 007f 4971 cf49 4252 0072 c0c4     ...@..qII.RBr...
   19863:	0e00 6022 407f 007f 4772 f048 4047 0073     .."`.@..rGH.G@s.
   19873:	8088 242e 200c 407f 007f a8ff aea8 a9a9     ...$. .@........
   19883:	00fa 8288 40e2 2084 407f 027f 543c 1f94     .....@. .@..<T..
   19893:	6414 0014 8088 8e88 8088 007f 00ff 007f     .d..............
   198a3:	4a4a 4ffa 004a c4c4 80c0 002e 013f 01ff     JJ.OJ.......?...
   198b3:	455f 49f5 4555 004d 2200 8044 60e2 a8e8     _E.IUEM.."D..`..
   198c3:	e9a8 afae e9aa a8a9 00e8 8044 000e 8008     ..........D.....
   198d3:	203f 20ff 003f 101f 50f7 005f e880 a480     ? . ?....P_.....
   198e3:	a084 007f 00ff 80ff a8af 80af 00ff c4c4     ................
   198f3:	88e0 e082 007f 00ff 127f 5857 9b70 0094     ..........WXp...
   19903:	c4c4 c0c2 000e 007f 00ff 207f 55df 405f     ........... .U_@
   19913:	007f c4c4 c4c0 e0c2 007f 00ff 347f d454     .............4T.
   19923:	745f 005f c4c4 aac8 80e8 80fe 809f 88fe     _t_.............
   19933:	888f f88f 0000 042c 8024 60e2 cf29 0049     ......,.$..`).I.
   19943:	8884 bf90 88c0 0084 200e 0e00 0000 cf29     ......... ....).
   19953:	0049 2020 fc23 2023 0020 200e 422c 200c     I.  #.#  .. ,B. 
   19963:	c929 494f 0049 80ff 809f 00ff e200 2420     ).OII......... $
   19973:	2084 cf29 4949 7f00 4f48 8948 008e 200e     . ).II..HOH.... 
   19983:	2468 2084 cf29 0049 2212 9242 224a 0013     h$. ).I.."B.J"..
   19993:	200e 0200 8024 cf29 4949 7e00 c242 7a4a     . ..$.).II.~B.Jz
   199a3:	0003 220e 8a08 e0a2 cf29 4949 4000 ff40     ..."....).II.@@.
   199b3:	4848 004f 220e c002 e022 c929 494f ff00     HHO.."..".).OI..
   199c3:	8484 84fc 00fc e200 220e e022 3612 55dd     .........""..6.U
   199d3:	5655 5050 405f 0000 4488 802a e084 2515     UVPP_@...D*....%
   199e3:	55df 555f 5057 405f 0000 c4c6 46e4 e084     .U_UWP_@.....F..
   199f3:	227a 24ff 1314 fe12 1312 0010 e000 220e     z".$..........."
   19a03:	002e ca2b fa4a 4b4a ff00 9880 00e7 22e2     ..+.J.JK......."
   19a13:	0e2e 0088 5651 92ff ff00 0008 08ff 0010     ....QV..........
   19a23:	e000 402e e0e2 5651 927f 0c91 2534 44ff     ...@..QV....4%.D
   19a33:	0047 e080 8004 c0e4 c921 6949 2f49 49c9     G.......!.IiI/.I
   19a43:	4969 0041 0000 002e 0000 c828 6a4f 2a5b     iIA.......(.Oj[*
   19a53:	4eca 5362 0040 8224 442a 20a2 e810 694b     .NbS@.$.*D. ..Ki
   19a63:	2949 4fc9 5161 0041 4404 4044 e022 3f08     I).OaQA..DD@"..?
   19a73:	15c0 5d57 d575 5557 0055 000e 6208 00e0     ..W]u.WUU....b..
   19a83:	3f08 00c0 94a7 84fc 94fc 00a4 060e 0080     .?..............
   19a93:	0000 3f08 28c0 2225 22ff 68a5 0020 080e     ...?.(%".".h ...
   19aa3:	e002 4008 3f08 00c0 a2bf 80bf a2bf 00bf     ...@.?..........
   19ab3:	000e e0e0 e0e0 abfa aaaa fa0a aa0a abaa     ................
   19ac3:	00fa a422 4a44 20a2 2020 807e 2524 38e4     ..".DJ.   ~.$%.8
   19ad3:	6aa4 0024 aa2a aaae 20aa 2010 837c 1111     .j$.*.... . |...
   19ae3:	29f3 64a5 002c c444 e444 4044 3f08 00c0     .).d,.D.D.D@.?..
   19af3:	95f5 9795 9595 00f5 000e 4822 2042 3f08     .........."HB .?
   19b03:	00c0 92fe ff92 9292 00fe 000e aeaa a0aa     ................
   19b13:	643f 3fa4 7f00 4f48 4948 004e 8888 2468     ?d.?..HOHIN...h$
   19b23:	2084 3f08 00c0 959f bfd5 d5b5 009f 000e     . .?............
   19b33:	0ce0 e002 3f08 12c0 d53d 1715 2555 0015     .....?..=...U%..
   19b43:	000e 4822 2042 4f88 0100 507e 5457 9454     .."HB .O..~PWTT.
   19b53:	0097 2a2c aa22 a0aa c721 2018 52df 5252     ..,*"...!.. .RRR
   19b63:	405f 007f 000e 44c4 e0e2 c721 0018 a420     _@.....D..!... .
   19b73:	3f64 a464 0020 000e 8e88 8088 7f02 44d3     d?d. ..........D
   19b83:	047f 003f 00ff 003f 822c e2e0 e0e2 1710     ..?...?.,.......
   19b93:	3525 9755 3750 1720 0010 440e 0c4e 002e     %5U.P7 ....DN...
   19ba3:	afaa 4f5a abaa ff00 9880 00e7 0e0c 0e4c     ..ZO..........L.
   19bb3:	0088 1804 18e3 ff00 9292 ff92 0000 0c2c     ..............,.
   19bc3:	222e 202e 4925 9191 2549 ff00 9880 00e7     .". %I..I%......
   19bd3:	22e2 0e2e 0088 5404 5774 555d 9575 b5d5     .".....TtW]Uu...
   19be3:	0004 8244 442a 204a 6810 6b48 c99d ff20     ..D.*DJ .hHk.. .
   19bf3:	9880 00e7 ae88 0e00 0088 330a 2aca 8013     ...........3.*..
   19c03:	94ff 9f92 0000 040e e4c2 204e ff00 ff92     ..........N ....
   19c13:	2e20 22f2 222f 0022 2e68 8206 60e8 ff00      .."/"".h....`..
   19c23:	ff92 1f00 f414 5454 005c 2e68 0048 0000     ......TT\.h.H...
   19c33:	92ff 00ff 91ff ff91 9191 00ff e0e0 0e00     ................
   19c43:	0000 ff00 ff92 3e00 ff2a 2a2a 003e 2e68     .......>*.**>.h.
   19c53:	0e00 0000 ff00 ff92 1008 3fe0 2525 0020     ...........?%% .
   19c63:	2e68 0e00 0000 ff00 ff92 7f00 7f40 ff80     h...........@...
   19c73:	0080 2e68 2c48 e060 ff00 ff92 2412 9249     ..h.H,`......$I.
   19c83:	2144 0012 2e68 2408 0080 92ff ff92 7f00     D!..h..$........
   19c93:	4848 887f 0089 2ee0 a24c 80a4 ff00 9292     HH......L.......
   19ca3:	10ff 24e7 2027 003f 0268 88e0 c0a2 ff00     ...$' ?.h.......
   19cb3:	ff92 8504 9189 c9b1 0004 2e68 2e22 2022     ..........h."." 
   19cc3:	25f9 4527 000d d27e 7a4a 0003 e000 8800     .%'E..~.Jz......
   19cd3:	c0a2 3008 55d7 7f55 7555 4057 007f c000     ...0.UU.UuW@....
   19ce3:	040c e0c2 44a2 02bf 2f22 fe22 ae21 0060     .....D.."/".!.`.
   19cf3:	c242 2448 c0c2 44a2 00bf 2a12 8b4a 2a4a     B.H$...D...*J.J*
   19d03:	0012 c042 a226 202c b1ff 918e ffa0 dc54     ..B.&., ......T.
   19d13:	7d42 0000 00e8 aa8c 60aa 44a2 00bf 4574     B}.......`.D..tE
   19d23:	c444 445f 0074 c022 a200 00e0 44a2 84bf     D._Dt."......D..
   19d33:	e49f 0402 08ff 0006 c242 02e0 00e0 2010     ........B...... 
   19d43:	55d5 5555 4055 7f40 0000 c400 c244 002e     .UUUU@@.....D...
   19d53:	4f88 2800 6a2b 57d2 6a52 0008 2a2c aeaa     .O.(+j.WRj..,*..
   19d63:	a0aa 2414 52eb 6a52 2a1a 24c7 0014 ea00     ...$.RRj.*.$....
   19d73:	aaaa 00e0 4fe0 0060 407f d0df 405f 007f     .....O`..@.._@..
   19d83:	200e c4e0 e0c2 4fe0 6040 2a13 8a4a 2a4a     . .....O@`.*J.J*
   19d93:	0013 200e 22e2 e022 4fe0 6040 1100 d525     ... .""..O@`..%.
   19da3:	5549 0065 220e 220e e022 ff00 2f04 25d5     IUe..".""..../.%
   19db3:	044f 00ff 0001 0e68 e044 e0e2 5448 7c44     O.....h.D...HTD|
   19dc3:	c444 7e45 5444 0048 8a88 88ae 8088 4a4a     D.E~DTH.......JJ
   19dd3:	4653 c27a 437a 4a52 004a aa2a 8444 0042     SFz.zCRJJ.*.D.B.
   19de3:	5149 714b c141 7949 5143 0049 8006 0000     IQKqA.IyCQI.....
   19df3:	00e0 5149 4945 c371 7d45 5141 0049 4422     ..IQEIq.E}AQI."D
   19e03:	8480 2042 7f00 4f44 c450 5f45 4445 0044     ..B ..DOP.E_EDD.
   19e13:	0e68 0e48 4008 7f12 5f40 d454 545f 5754     h.H..@..@_T._TTW
   19e23:	0050 2c68 002c 002e 7f12 4440 5f44 45c4     P.h,,.....@DD_.E
   19e33:	4c54 0044 2268 0e48 e022 7f12 4440 4b44     TLD.h"H."...@DDK
   19e43:	50d0 444b 0044 0068 002c 00e0 7f12 4040     .PKDD.h.,.....@@
   19e53:	c05f 4040 405f 0040 2c2c 2c0c 200c 7f00     _.@@_@@.,,.,. ..
   19e63:	4a40 da6a 5a4f 4a6a 0040 0868 e888 0088     @Jj.OZjJ@.h.....
   19e73:	e02f 002f 2720 21f8 202e 0020 8a44 6ac0     /./. '.!.  .D..j
   19e83:	602c 4f40 6a48 ca5a 5d4a 4a69 0048 0a2c     ,`@OHjZ.J]iJH.,.
   19e93:	a2aa 8044 a32c 2360 ff2c 91a0 b18e 00ff     ..D.,.`#,.......
   19ea3:	484c 80ac e008 409f 8017 8a89 8abc 8089     LH.....@........
   19eb3:	00ff 08e8 8888 e0aa 409f ba03 aaaa baaa     .........@......
   19ec3:	8083 00ff 88e0 8888 e0a2 409f 9535 b595     ...........@5...
   19ed3:	9795 80b0 00ff c2e0 2622 e002 409f 9410     ........"&...@..
   19ee3:	b19a 9492 8091 00ff 0ae0 4ca2 e022 5444     ...........L".DT
   19ef3:	d554 7d57 d555 5454 0044 a28a 8444 2042     T.W}U.TTD...D.B 
   19f03:	4f88 2400 7fa4 2424 a47f 0024 222c 22a2     .O.$..$$..$.,"."
   19f13:	20a2 0b68 0aff 0069 003f 00ff 003f e0c0     . h...i.?...?...
   19f23:	e280 e0e2 2f20 6aa8 283c 6a3e 2faa 0020     .... /.j<(>j./ .
   19f33:	aa0e aaaa 00ae 0130 01fe 909f fe91 9091     ......0.........
   19f43:	009f 0068 00e8 e00a 001c 10ff 4221 744f     ..h.........!BOt
   19f53:	4444 0047 082c e240 e022 0038 10ff fc00     DDG.,.@.".8.....
   19f63:	8485 8584 00fc 0c2c 8006 6008 0078 20ff     ......,....`x.. 
   19f73:	80ff 909f 809f 00ff 0c2c 88e0 e082 0038     ........,.....8.
   19f83:	08ff 6430 4454 947f 00a4 082c 0240 00e0     ..0dTD....,.@...
   19f93:	001c 04ff 0018 2222 22ff 0022 0c2c 2220     ......""."".,. "
   19fa3:	20e2 0038 20ff 8a8a 9392 caaa 008a 0c2c     . 8.. ........,.
   19fb3:	2e22 2022 4990 8000 92ff 9292 80ff 0000     "." .I..........
   19fc3:	042c 44c4 00e4 4990 8000 a4bf a4a4 bfa4     ,..D...I........
   19fd3:	0080 022c aaaa 20aa 4990 2200 3f24 2aea     ..,.... .I."$?.*
   19fe3:	2a2a 002f 002c 880e e0aa 4990 8600 93fc     **/.,......I....
   19ff3:	009e 007f 00ff 022c 0048 e0a2 4990 5200     ......,.H....I.R
   1a003:	424a 42ff 524a 0042 022c 0848 2042 4990     JB.BJRB.,.H.B .I
   1a013:	ff00 9390 93fc ff90 0000 0e2c 22a2 00ae     ..........,.."..
   1a023:	4990 ff00 bf80 a0a0 80bf 00ff 0e2c aa2a     .I..........,.*.
   1a033:	e0a2 4990 1400 27e4 ff24 2724 0024 002c     ...I...'$.$'$.,.
   1a043:	0e68 6008 4990 4200 6e59 5f00 ff41 0089     h..`.I.BYn._A...
   1a053:	062c 2284 2022 4990 7f00 4949 c9c9 4949     ,.."" .I..II..II
   1a063:	007f 0e2c 2222 e022 4990 3f00 7f20 3fa0     ..,."""..I.? ..?
   1a073:	3f20 0000 2e2c 2e2e 202e 4990 1200 5222      ?..,.... .I.."R
   1a083:	9293 2252 0012 022c 226a 202c 4990 3100     ..R"..,.j", .I.1
   1a093:	ff0a ff00 310a 0000 022c 0e48 6022 4990     .....1..,.H."`.I
   1a0a3:	0800 ef30 2a2a 202f 003f 002c 8808 e0a2     ..0.**/ ?.,.....
   1a0b3:	4990 9000 005f e212 223f 0022 002c 00e4     .I.._...?"".,...
   1a0c3:	00e0 4990 0200 aaaa aaaa faaf 0002 002c     ...I..........,.
   1a0d3:	0284 00e0 4990 0000 90ff 9192 f39c 0000     .....I..........
   1a0e3:	062c 4280 8000 4990 2600 20f9 003f 407f     ,..B...I.&. ?..@
   1a0f3:	007f 022c 6048 e0e2 003e 20ff 4f48 2048     ..,.H`..>.. HOH 
   1a103:	20ff 003f e000 42e2 e0c2 003c 00ff 919f     . ?....B..<.....
   1a113:	90fe 92fe 009f e000 22e2 e022 003e 20ff     ........."".>.. 
   1a123:	ff00 8888 a8ff 0098 e000 2c68 200c 007e     ..........h,. ~.
   1a133:	20ff 80ff a8af 80af 00ff e000 88e0 e082     . ..............
   1a143:	003e 20ff 15f5 f515 1515 00f7 e000 22e2     >.. ..........."
   1a153:	6022 003e 20ff 80ff 80bf 00ff 00ff e000     "`>.. ..........
   1a163:	c2a2 e082 003e 20ff df20 5252 405f 007f     ....>..  .RR_@..
   1a173:	e000 440c e0e2 007e 20ff e312 4a56 6356     ...D..~.. ..VJVc
   1a183:	0002 e000 220e 002e 003e 20ff 8be9 bb8d     ....."..>.. ....
   1a193:	8989 00e9 e000 4e44 4044 5261 5d57 d575     ......DND@aRW]u.
   1a1a3:	5555 5755 0060 e400 4444 004e 7f00 5754     UUUW`...DDN...TW
   1a1b3:	5554 9595 1c95 0007 0e2c 440c e0c2 e722     TU......,..D..".
   1a1c3:	013a a13f fca2 2122 003f 000e 00e0 e002     :.?..."!?.......
   1a1d3:	cf42 0a74 4404 7f44 8484 0004 000e 2e02     B.t..DD.........
   1a1e3:	0022 cf42 0a74 2210 9252 2352 0010 000e     ".B.t.."R.R#....
   1a1f3:	0200 00c0 cf42 0a74 4200 fe43 7e43 0002     ....B.t..BC.C~..
   1a203:	000e 8024 2084 a02f a0bf 002f 2908 28fe     ..$.. /.../..).(
   1a213:	0008 e080 2e82 604c 9097 909f 0097 1213     ......L`........
   1a223:	12fe 0013 e080 e280 e022 9097 909f 2097     ........"...... 
   1a233:	fe23 a621 0060 e0c0 2408 2084 9097 909f     #.!.`....$. ....
   1a243:	0897 c030 497f 0049 e0c0 00c0 00e0 5f90     ..0..II........_
   1a253:	0000 64bf e424 6424 00bf 402e 88e8 e08a     ...d$.$d...@....
   1a263:	9097 909f 7f00 4848 897e 0088 e0c0 aa4c     ......HH~.....L.
   1a273:	c02a 9097 909f 1107 20e6 243f 0033 e0c0     *........ ?$3...
   1a283:	0280 80e0 5f90 1000 25e5 fd25 2525 0025     ....._...%%.%%%.
   1a293:	402e 22e2 e022 5f90 0000 3148 44cf 7f44     .@."".._..H1.DD.
   1a2a3:	0044 402e c2a2 202e 2138 23fe 0038 d27e     D..@... 8!.#8.~.
   1a2b3:	7a4a 0003 0e68 0848 c0a2 a908 a0ae 86bf     Jz..h.H.........
   1a2c3:	fe09 9292 00fe 0248 08e0 4084 afa8 aafa     ......H....@....
   1a2d3:	fbaa ff20 9880 00e7 228e 0e2e 0088 ff00     .. ......"......
   1a2e3:	8888 f98e fb00 8888 00fb 0068 4208 2022     ..........h..B" 
   1a2f3:	929e f392 ff80 9292 ff92 0080 2e02 444c     ..............LD
   1a303:	808e f302 ff12 5f40 5f50 7f40 0040 0e68     ......@_P_@.@.h.
   1a313:	8808 002e 9088 8ab7 fa8a aaaa 88af 00c8     ................
   1a323:	e800 8a88 00e0 88ff 04f7 29fd 0329 25fd     ...........))..%
   1a333:	004d 80e8 2e22 2022 80ff f788 7a09 ff08     M..."." .....z..
   1a343:	4848 004b 88e0 2222 0048 f927 3c23 4244     HHK...""H.'.#<DB
   1a353:	407f 427f 0044 8e24 e222 20e2 f927 3f20     .@.BD.$.".. '. ?
   1a363:	5f40 5454 5f54 0040 8424 aa2a 20aa f927     @_TTT_@.$.*.. '.
   1a373:	3c23 2521 49f5 4555 000d 8e24 8024 60e2     #<!%.IUE..$.$..`
   1a383:	fd22 3f20 1400 25e4 25ff 0024 8624 8004     ". ?...%.%$.$...
   1a393:	c0e0 fd12 1f10 2a24 e031 2a31 0024 8624     ......$*1.1*$.$.
   1a3a3:	4802 2042 f927 3c23 9202 125f 925f 0002     .HB '.#<.._._...
   1a3b3:	8e24 8024 00e0 f927 3c23 3500 e725 2a29     $.$...'.#<.5%.)*
   1a3c3:	0032 8e24 0e00 6022 7442 5448 2062 2830     2.$..."`BtHTb 0(
   1a3d3:	fe22 0020 0c2c a622 6008 a9a9 a7d1 01fd     ". .,."..`......
   1a3e3:	aba9 a5d1 00fd 4802 0e00 0000 2e20 aa6b     .......H.... .k.
   1a3f3:	2b2a 6a2a 113e 0000 442a 8480 20a2 ab88     *+*j>...*D... ..
   1a403:	a89f 00ce 5222 5292 0023 e082 0000 002c     ...."R.R#.....,.
   1a413:	da36 2012 524a ca6b 526a 004a 8844 8a04     6.. JRk.jRJ.D...
   1a423:	00ac 84bc 07fd 2520 49f5 6555 004d 2c8a     ...... %.IUeM..,
   1a433:	c002 60e2 84bc fc85 7827 2080 48fb 0098     ...`....'x. .H..
   1a443:	2288 88c0 80e8 da36 6412 4f24 4890 4f48     ."....6..d$O.HHO
   1a453:	0048 8844 000e 002e da36 6012 2514 4bd5     H.D.....6..`.%.K
   1a463:	6555 0004 8844 4e0c 4044 84bc 07fd a200     Ue..D..ND@......
   1a473:	227f 7f22 00a2 2c8a 8006 000e 2a2a 4aff     .""....,....**.J
   1a483:	300a fe02 2201 0018 e848 4842 0000 4848     .0..."..H.BH..HH
   1a493:	52fe 0b52 6454 4844 0078 8a88 88ae 8088     .RR.TdDHx.......
   1a4a3:	4848 497f ff80 a4a4 ffa4 0080 0488 484c     HH.I..........LH
   1a4b3:	808e 7f44 2244 fe22 2222 22fe 0022 422e     ..D.D""."".""..B
   1a4c3:	0048 2084 8888 88ff 0088 a0bf a0e7 00bf     H.. ............
   1a4d3:	c422 2440 2084 4444 447f 6980 f909 6f09     ".@$. DD.D.i...o
   1a4e3:	0080 8844 2202 002e 7f44 2444 904f 9010     ..D.."..D.D$O...
   1a4f3:	909f 0010 402e 02e0 00e0 7f44 2144 ff12     .....@....D.D!..
   1a503:	0004 12ff 0021 a24c 0048 60e2 4444 447f     ....!.L.H..`DD.D
   1a513:	3008 2aef 202f 003f c844 8800 c0a2 ff88     .0.*/ ?.D.......
   1a523:	0088 e312 4a56 6356 0002 804c 220e 002e     ....VJVc..L.."..
   1a533:	4848 497f 6a12 6f4a cf9a 0032 0088 ae08     HH.I.jJo..2.....
   1a543:	0088 4444 447f d600 b29a 929f 00d2 8844     ..DD.D........D.
   1a553:	8808 80e8 5754 55fd 0055 e618 3e21 0020     ....TW.UU...!> .
   1a563:	022c 24e0 2084 5511 5555 ff55 5555 5555     ,..$. .UUUU.UUUU
   1a573:	0011 0e24 a222 4068 ff20 5f20 5555 55ff     ..$.".h@ . _UU.U
   1a583:	df55 0040 8e4c e000 002e ff10 0010 8afa     U.@.L...........
   1a593:	8b8a 8a8a 00fa 804c aeaa a0aa ff10 0010     ......L.........
   1a5a3:	447f 147f ff12 0010 804c c2c4 002e ff10     .D......L.......
   1a5b3:	0010 a8ef aba8 a8a8 00ef 804c 48a2 a042     ..........L..HB.
   1a5c3:	ff10 0710 95f4 959e f494 0007 8e4c 0080     ............L...
   1a5d3:	e08a ff22 0024 a9ef afa9 a9a9 00ef 002e     ..".$...........
   1a5e3:	22e2 6022 5212 5452 fa57 525a 3472 0055     .""`.RRTW.ZRr4U.
   1a5f3:	aa0e aaaa 80ae 5515 5955 56fd 7656 5c34     .......UUY.VVv4\
   1a603:	0090 4444 aaea 60aa ff10 4a10 4272 5a62     ..DD...`...JrBbZ
   1a613:	a742 009a 804c 0284 002e ff22 0024 5465     B...L.....".$.eT
   1a623:	5464 944f 00a4 002e 2208 00e0 5450 54ff     dTO......"..PT.T
   1a633:	5d04 4cf4 0877 001c a202 4448 00a2 ff10     .].Lw.....HD....
   1a643:	0010 4a72 ca4b 4a4b 0072 804c 8024 e0e2     ..rJK.KJr.L.$...
   1a653:	ff22 0024 aba8 faae aaaa 00fb 062e 228e     ".$............"
   1a663:	e022 5210 5652 f25a 5452 565c 0010 aa2e     "..RRVZ.RT\V....
   1a673:	eaea 20ae 5446 55f5 7d55 5555 54f4 0046     ... FT.UU}UU.TF.
   1a683:	4444 c466 4044 4f48 ea4a 5f4a ea4a 5f4a     DDf.D@HOJ.J_J.J_
   1a693:	0048 880e 8a8e 00ae 494f 4fe9 4544 4444     H.......OI.ODEDD
   1a6a3:	44ef 0044 2ee2 8200 00e0 5d41 55f5 5755     .DD.......A].UUW
   1a6b3:	5555 5df5 0041 44e0 8480 e042 5454 55ff     UU.]A..D..B.TT.U
   1a6c3:	4455 455e 4cf4 0045 e08a 2a02 604a 5545     UD^E.LE....*J`EU
   1a6d3:	55f6 5f55 5455 55f6 0045 2422 8a80 00ae     .UU_UT.UE."$....
   1a6e3:	5749 55f5 5755 5555 57f5 0051 440c 444c     IW.UUWUU.WQ..DLD
   1a6f3:	404e 4f42 4fe0 4240 444f 47e4 0040 0c0e     N@BO.O@BOD.G@...
   1a703:	4822 20c2 4742 40e8 4744 4c44 47e4 0044     "H. BG.@DGDL.GD.
   1a713:	000e e222 20e2 4544 4de9 5755 4d55 45e9     ..".. DE.MUWUM.E
   1a723:	0044 4022 002e 2042 4c42 4aea 5a4a 5356     D."@..B BL.JJZVS
   1a733:	54fa 0040 8888 88ae 8088 5a52 53f6 565a     .T@.......RZ.SZV
   1a743:	5352 5af6 0042 aa22 c244 2022 4d54 40eb     RS.ZB.".D." TM.@
   1a753:	4444 445f 4cf7 0044 c0a2 002c 60e2 5542     DD_D.LD...,..`BU
   1a763:	50ef 4244 4f40 42e0 0044 c082 8024 2084     .PDB@O.BD...$.. 
   1a773:	4941 4bed 5949 4b49 49ed 0041 4404 444e     AI.KIYIK.IA..DND
   1a783:	0044 5244 e248 414c e05f 4c43 0042 022c     D.DRH.LA_.CLB.,.
   1a793:	4822 0000 515d 55f5 7555 5555 51f5 005d     "H..]Q.UUuUU.Q].
   1a7a3:	2c22 0e00 6022 5f40 55f5 7555 5555 5ff5     ",.."`@_.UUuUU._
   1a7b3:	0040 242e 8440 20a2 1213 12fe 0013 d27e     @..$@.. ......~.
   1a7c3:	7a4a 0003 22e2 88e0 c0a2 5649 49e4 4b40     Jz..."....IV.I@K
   1a7d3:	5f48 4be8 0040 a4aa 8e08 60aa 2621 24ff     H_.K@......`!&.$
   1a7e3:	5412 fa57 3252 0052 e000 8800 e0aa 2c23     .TW.R2R.......#,
   1a7f3:	24ff 290a 2cfb 2918 0048 e000 ca80 60a2     .$.).,.)H......`
   1a803:	2422 22ff ff24 2224 88ff 00f7 e000 000e     "$."$.$"........
   1a813:	80e8 2621 24ff bf00 a4a4 a4a4 00bf e000     ..!&.$..........
   1a823:	aa0a a0aa 2c23 22ff 2500 59e5 5549 002d     ....#,.".%.YIU-.
   1a833:	e000 c022 60e2 2621 24ff 8980 ef99 9189     .."..`!&.$......
   1a843:	0088 e000 2e22 2022 2c23 24ff 1f02 f710     ...."." #,.$....
   1a853:	5f50 0040 e000 4822 2042 2c23 24ff e902     P_@..."HB #,.$..
   1a863:	e929 2f29 00e0 e000 220c 6022 ff26 4124     ).)/.....""`&.$A
   1a873:	675c 4808 887f 0008 020e 2ac2 20aa 2c23     \g.H.......*. #,
   1a883:	24ff 492a 7f49 8989 0008 e000 220e 002e     .$*II........"..
   1a893:	2c23 22ff 447f 0084 4444 007f e000 22e2     #,.".D..DD....."
   1a8a3:	e022 2621 24ff 9f48 0820 8f88 0088 e000     ".!&.$H. .......
   1a8b3:	000e 002e 2c23 24ff 2a12 8a4b 2a4a 0012     ....#,.$.*K.J*..
   1a8c3:	e000 246a 00c6 2621 24ff 7f00 afa0 e9a8     ..j$..!&.$......
   1a8d3:	002f e000 0e68 6022 2c23 24ff a202 227f     /...h."`#,.$..."
   1a8e3:	7f22 00a2 e000 8024 000e 2c23 24ff 3402     ".....$...#,.$.4
   1a8f3:	ec27 2724 0034 e000 442a 20a2 2c23 24ff     '.$'4...*D. #,.$
   1a903:	8922 ff92 9289 00ff e000 2e00 e002 4f88     "..............O
   1a913:	5100 404a 40ff d14a 0040 222c a22a 2022     .QJ@.@J.@.,"*." 
   1a923:	4f88 5f00 5555 55ff 5fd5 0000 2a2c a222     .O._UU.U._..,*".
   1a933:	202a 5c40 5555 455c 4bfe c954 0042 0088     * @\UU\E.KT.B...
   1a943:	48a2 e0c4 ba83 abaa aaaa abaa baaa 0083     .H..............
   1a953:	88e0 888e e0a2 535e 5352 401e 7f40 4040     ......^SRS.@@.@@
   1a963:	0000 484c 2e82 2022 a2bf a4fc 08bf 8888     ..LH.." ........
   1a973:	88ff 0088 aaea 00e0 00e0 4f88 bf00 a2a4     ...........O....
   1a983:	a4bf bfa2 0000 2a2c a222 202a ff00 aba8     ......,*".* ....
   1a993:	aafa aaaa abfa 00a8 0e68 aaaa 00ae 8b8a     ........h.......
   1a9a3:	a296 fac3 a4a4 9695 0094 442a 8aa2 80e8     ..........*D....
   1a9b3:	9f84 8fe8 2484 fc27 2524 0004 4c0c 222e     .....$'.$%...L."
   1a9c3:	604c 9f84 8fe8 26a0 20f1 26f1 0020 4c0c     L`.....&. .& ..L
   1a9d3:	4822 2042 9f84 8fe8 ff00 9f90 9292 0093     "HB ............
   1a9e3:	8a08 48c2 c022 ff84 8f88 0700 fc04 2424     ...H".........$$
   1a9f3:	0027 2e0e 220e e022 f887 808f 243f ff24     '...."".....?$$.
   1aa03:	2424 003f c0c4 8e88 8088 9f84 88e8 108f     $$?.............
   1aa13:	3fe0 2424 0020 440c 0ec0 0088 9f84 8fe8     .?$$ ..D........
   1aa23:	1288 c322 1222 0008 4c0c 2e22 2022 ff84     .."."....L"." ..
   1aa33:	8f88 ff00 8888 88ff 008b 4c0c a28a 002a     ...........L..*.
   1aa43:	9f84 8fe8 20b0 e12f 2422 0030 4c0c e200     ..... /."$0..L..
   1aa53:	e022 5555 c565 5764 0054 007f 00ff 4cc4     ".UUe.dWT......L
   1aa63:	002e e0a2 4a4a e352 4a4a da72 4a6a 005a     ....JJR.JJr.jJZ.
   1aa73:	8e44 aaaa 00ae e45c 454f 1714 1014 90ff     D.....\.OE......
   1aa83:	0051 e088 804c e084 e45c 454f 9988 cfa9     Q...L...\.OE....
   1aa93:	9989 0088 e088 2e22 2022 744c 5fc4 1045     ......"." Lt._E.
   1aaa3:	d525 5549 0065 8e88 e200 e022 754c 45df     %.IUe.....".Lu.E
   1aab3:	0044 d27e 7a4a 0003 e082 8880 c0a2 8484     D.~.Jz..........
   1aac3:	9a8e abea aeaa bca4 0080 c422 aa2e 20aa     ..........".... 
   1aad3:	7017 f117 5750 ff02 0804 0010 22ea 0cae     .p..PW......."..
   1aae3:	e022 1f00 52f2 005e d27e 7a4a 0003 0068     "....R^.~.Jz..h.
   1aaf3:	8808 c0a2 3f00 2929 a5fd a5a7 ada5 00b1     .....?))........
   1ab03:	2268 44a4 20a2 4f88 bf00 2a6a 2aea bf6a     h".D. .O..j*.*j.
   1ab13:	0000 2a2c 2222 20aa 92ff ff92 1110 f01e     ..,*"". ........
   1ab23:	911f 0052 2ee2 2448 60e2 407f 007f 5555     ..R...H$.`.@..UU
   1ab33:	fd57 5555 0055 8888 442a 204a 0300 aafa     W.UUU...*DJ ....
   1ab43:	aaaa afaa 06fa 0002 8a2c 0ae8 204a 497f     ........,...J .I
   1ab53:	7f49 2420 f12a 2c22 0020 2ee2 6a02 602c     I. $*.", ....j,`
   1ab63:	92ff ff92 3b08 0aca 3312 0018 2ee2 220e     .....;...3....."
   1ab73:	002e 407f 007f 4a09 f84f 4a4f 0009 8088     ...@...JO.OJ....
   1ab83:	8224 00e0 407f 007f aabe ffaa aaaa 00be     $....@..........
   1ab93:	8088 4a2a 2022 407f 007f a5a5 a5fd bda5     ..*J" .@........
   1aba3:	0085 8088 22e2 e022 fa00 a9aa a8af a9af     ....."".........
   1abb3:	fcab 0000 a42a e280 602a f90d a9a9 a9ab     ....*...*`......
   1abc3:	a9a9 f9a9 000d aa22 4a44 2022 97f5 9595     ......".DJ" ....
   1abd3:	00f5 d27e 7a4a 0003 2200 88c0 c0a2 90f7     ..~.Jz..."......
   1abe3:	929f 08f2 e232 2022 003f e4e2 0040 c022     ....2." ?...@.".
   1abf3:	90f7 f29f 8302 93fc f390 001c c4e2 2468     ..............h$
   1ac03:	2084 487f 487f 207f 8949 4492 0021 8888     . .H.H. I..D!...
   1ac13:	2482 0048 223e 22ff 043e 2524 25fe 0024     .$H.>".">.$%.%$.
   1ac23:	e422 4862 6008 223e 22ff 883e 89f8 ff8a     ".bH.`>".">.....
   1ac33:	0088 e222 82c2 002e 223e 22ff 003e 08ff     ..".....>".">...
   1ac43:	04ff 0008 e422 e462 e0c2 223e 22ff 003e     ....".b...>".">.
   1ac53:	911f 11fe 001f e422 e0e0 e002 223e 22ff     ......".....>"."
   1ac63:	003e 80fc 819f 00fc e422 2ce0 200e 223e     >......."..,. >"
   1ac73:	22ff 493e 7f49 9292 0002 e422 0ee0 6022     .">II....."..."`
   1ac83:	223e 22ff 083e 2710 27c0 0010 e422 48e2     >".">..'.'.."..H
   1ac93:	000e 407f 007f 284f fb08 2808 004f 8088     ...@..O(...(O...
   1aca3:	48a2 a042 82ff aaaa aabe aaaa 82ae 00ff     .HB.............
   1acb3:	eae2 aaaa e0e2 407f 007f 557d d5d7 5555     .......@..}U..UU
   1acc3:	007d 8088 e200 6022 407f 007f aba9 5b4d     }....."`.@....M[
   1acd3:	a949 00a9 8088 0e0c c004 7312 5555 f159     I..........sUUY.
   1ace3:	5559 7355 0012 222e e2e2 202e 407f 007f     YUUs..."... .@..
   1acf3:	310c ff09 3109 000c 8088 2e22 2022 007f     .1...1...."." ..
   1ad03:	00ff 007f e94d e94b 004d c4c4 24c0 e082     ....M.K.M....$..
   1ad13:	007f 00ff 007f 4a52 4aff 0052 c4c4 48c2     ......RJ.JR....H
   1ad23:	40e8 a8e8 e8ab afa8 a9e9 e8a9 0000 e222     .@............".
   1ad33:	222e 0022 95f4 f595 959f 95f5 f495 0000     ."".............
   1ad43:	220e 2222 00e0 003f 00ff 203f 924b 9222     ."""..?...? K.".
   1ad53:	004b c8c4 e280 e022 1575 15f5 0077 80fc     K.....".u...w...
   1ad63:	819f 00fc 24e2 2c40 200e 80fe 809f 20fe     .....$@,. ..... 
   1ad73:	b528 2462 0029 042c a228 204c cf29 0049     (.b$).,.(.L ).I.
   1ad83:	8888 ff88 8988 0088 200e 2e22 a022 cf29     ......... ".".).
   1ad93:	4949 8000 809f 84ff 0084 220e e202 20e2     II........."... 
   1ada3:	cf29 0049 2223 fe22 2222 0023 200e 22e2     ).I.#"".""#.. ."
   1adb3:	e022 5fd2 0052 3f20 ff20 3f20 0020 200e     ".._R. ? . ? .. 
   1adc3:	4ee0 e040 cf29 4949 2100 e53e a524 0066     .N@.).II.!>.$.f.
   1add3:	220e 060e 2084 cf29 4949 3f00 fc21 a223     ."... ).II.?!.#.
   1ade3:	006c 220e 240a e084 cf29 4949 ff00 8888     l..".$..).II....
   1adf3:	8888 00ff 220e aa0a a0aa c929 494f 0049     ....."....).OII.
   1ae03:	92ff 9292 00ff e200 e220 e022 cf29 0049     ........ .".).I.
   1ae13:	84ff ff84 8484 00ff 200e 2ee2 e022 cf29     ......... ..".).
   1ae23:	0049 223f ff22 2222 003f 200e 2ee2 e022     I.?"".""?.. ..".
   1ae33:	cf29 4949 7f00 c444 4444 007f 220e 220e     ).II..D.DD..."."
   1ae43:	e022 cf29 0049 8bf8 bf88 8b88 0088 200e     ".).I.......... 
   1ae53:	2ec0 c000 cf29 0049 417f 009f 407f 007f     ....).I..A...@..
   1ae63:	200e c022 80e8 cf29 0049 484f ff48 4848     . "...).I.OHH.HH
   1ae73:	004f 200e 0ec0 c004 cf29 4949 2800 b32c     O.. ....).II.(,.
   1ae83:	2462 0028 220e a206 604c cf29 0049 4770     b$(.."..L`).I.pG
   1ae93:	c141 4241 0072 200e 220e 6022 cf29 4949     A.ABr.. .""`).II
   1aea3:	0200 619f 3806 0006 220e c204 6022 cf29     ...a.8...".."`).
   1aeb3:	4949 ff00 9790 9191 00f2 200e 0e68 6022     II......... h."`
   1aec3:	cf29 4949 7f00 4e48 49f9 006e 220e 060e     ).II..HN.In.."..
   1aed3:	2084 1f00 4820 4444 4444 2048 001f 4208     . .. HDDDDH ...B
   1aee3:	2aa2 8024 cf29 4949 ca00 92aa aa97 00ca     .*$.).II........
   1aef3:	220e 8808 80e8 2415 54d7 5457 5055 405f     .".....$.TWTUP_@
   1af03:	0000 e22a 20ea e084 d427 5755 5455 5457     ..*.. ..'.UWUTWT
   1af13:	5057 0040 6ae2 e062 c0c2 2614 5dd5 5456     WP@..jb....&.]VT
   1af23:	5054 405f 0000 248a 204a e084 4949 92ff     TP_@...$J ..II..
   1af33:	2d03 bf65 4525 0061 c200 2e22 6022 4949     .-e.%Ea..."."`II
   1af43:	897f 0089 487f 887f 0088 22e2 e2e2 c0c2     .....H....."....
   1af53:	5651 92ff 2420 ff25 2425 0020 e000 0e48     QV.. $%.%$ ...H.
   1af63:	4008 4b48 897f 1017 10ff 5097 0010 e480     .@HK.......P....
   1af73:	e080 c0c4 5212 5854 7e50 9890 1294 0012     .....RTXP~......
   1af83:	aa2e eaea 20ae e911 6f49 2949 4fc9 5969     ..... ..IoI).OiY
   1af93:	0041 4822 0e00 0000 c020 586f 2b48 48c8     A."H.... .oXH+.H
   1afa3:	506f 0040 2422 e280 e022 cf20 4868 2f48     oP@."$..". .hHH/
   1afb3:	48c8 486f 0050 002c 000e 200c ce21 5764     .HoHP.,.... !.dW
   1afc3:	2444 44c7 5764 0040 c002 022c 002e c92f     D$.DdW@...,.../.
   1afd3:	4969 2f49 49c9 4969 004f 22e2 2222 6022     iII/.IiIO..""""`
   1afe3:	3f08 56c5 755d 55d7 565d 0005 040e e444     .?.V]u.U]V....D.
   1aff3:	0044 3f08 57c4 5454 54ff 5754 0004 0e0e     D..?.WTT.TTW....
   1b003:	8888 00ae 3f08 54c4 5655 57fc 5554 0046     .....?.TUV.WTUF.
   1b013:	0a0e 20e2 2084 3f08 00c0 eb49 5a4e ea4a     ... . .?..I.NZJ.
   1b023:	004b 000e 220e e022 3f08 24c0 ff24 0000     K....""..?.$$...
   1b033:	24ff 0024 080e 00ac 80e8 3f08 09c8 29ff     .$$........?...)
   1b043:	7e48 4641 0078 820e a4e0 2084 3f08 00c0     H~AFx...... .?..
   1b053:	2a3e eb2a aaaa 003e 000e 8e88 8088 3f08     >**...>........?
   1b063:	05c0 d525 494b 6755 0045 020e 8424 2042     ..%.KIUgE...$.B 
   1b073:	7c20 1080 5554 fc54 9494 0010 0e2c a222      |..TUT.....,.".
   1b083:	4068 3f08 00c0 5955 7d53 9951 0095 000e     h@.?..UYS}Q.....
   1b093:	442a 204a 3f08 00c0 527e 0293 5253 007e     *DJ .?..~R..SR~.
   1b0a3:	020e 8024 60e2 3f08 00c0 6b3e 3eaa 2a2a     ..$..`.?..>k.>**
   1b0b3:	003e 040e 4ec4 4044 3f08 00c0 88ff faab     >....ND@.?......
   1b0c3:	88ab 00ff 060e 8880 e0a2 7f10 55d5 5555     .............UUU
   1b0d3:	d57f 5555 0055 4444 444e 4044 2110 d57f     ..UUU.DDNDD@.!..
   1b0e3:	ff55 5555 0055 0000 2422 0248 c0aa 3f08     U.UUU..."$H....?
   1b0f3:	00c0 4f60 ca4a 4e4a 0060 000e aa0e e0aa     ..`OJ.JN`.......
   1b103:	3f08 00c0 4565 c179 457d 006d 000e 2e22     .?..eEy.}Em...".
   1b113:	2022 0101 557d 57d5 5555 017d 0001 4422     " ..}U.WUU}..."D
   1b123:	848e 2042 0404 567d 55d4 5654 047d 0004     ..B ..}V.UTV}...
   1b133:	0888 888e 8008 557c 54fe 7c57 ff00 9880     ......|U.TW|....
   1b143:	00e7 8888 0ee8 0088 3f08 00c0 a0ff a5a5     .........?......
   1b153:	a5af 00e5 060e e280 e022 603f 20bf 013f     ........".?`. ?.
   1b163:	ff84 ff84 0004 88c4 2e02 202e 7f00 8f48     ........... ..H.
   1b173:	0088 a0bf a0e7 00bf 0e68 2400 2084 c721     ........h..$. !.
   1b183:	0018 4a52 ff42 4a42 0052 000e 8e24 2084     ..RJB.BJR...$.. 
   1b193:	7f04 44d5 047f 3f20 24e4 0027 0268 68e0     ...D.. ?.$'.h..h
   1b1a3:	e002 4949 d58d 2755 d555 498d 0049 6222     ..II..U'U..II."b
   1b1b3:	222e 2062 6a40 4652 536a 4442 a292 0080     ."b @jRFjSBD....
   1b1c3:	acaa 8c88 a0aa 2921 4949 aba9 49a9 2d4b     ......!)II...IK-
   1b1d3:	0021 ae44 0824 204a 92ff 00ff 534a ca6a     !.D.$.J ....JSj.
   1b1e3:	526a 004a e0e0 8808 e0aa 92ff 00ff 3444     jRJ...........D4
   1b1f3:	fc07 1407 0064 e0e0 8024 e0e2 92ff 00ff     ....d...$.......
   1b203:	80ff a8af 80af 00ff e0e0 88e0 e082 92ff     ................
   1b213:	00ff 90ff fc93 9093 00ff e0e0 22ea e02a     ............."*.
   1b223:	ff00 ff92 1200 cb2a 2a4a 0012 2e68 a206     ......*.J*..h...
   1b233:	604c 92ff ff92 a200 227f 7f22 00a2 2ee0     L`......."".....
   1b243:	c002 000e ff00 9292 00ff 64a4 643f 00a4     ...........d?d..
   1b253:	0268 2ce0 200c ff00 ff92 3b48 ff0c 6b1c     h..,. ....H;...k
   1b263:	0008 2e68 0ec0 c000 92ff ff92 6800 d84f     ..h..........hO.
   1b273:	4f48 0068 2ee0 4802 2084 497f 8b7c 0188     HOh....H. .I|...
   1b283:	d27e 7a4a 0003 4280 088c c0a2 2a02 52ca     ~.Jz...B.....*.R
   1b293:	7b42 5242 6a4a 0002 aa2a aaae 20ea 2f10     B{BRJj..*.... ./
   1b2a3:	2fe8 3f20 7e00 4ad2 007b 8a08 082c c0a2     ./ ?.~.J{...,...
   1b2b3:	44a2 00bf aaef aaaa aaaa 00ef c042 88e8     .D..........B...
   1b2c3:	e08a 44a2 48bf 7f49 8849 007f 00ff c842     ...D.HI.I.....B.
   1b2d3:	080e e0c2 44a2 00bf 2a12 8f4a 2a4a 0012     .....D...*J.J*..
   1b2e3:	c042 2e48 4008 44a2 00bf 2912 894a 2948     B.H..@.D...)J.H)
   1b2f3:	0012 c042 2a2a 202a 44a2 00bf 5555 d555     ..B.*** .D..UUU.
   1b303:	5555 0055 c042 22e2 e022 4f88 2400 7fa4     UUU.B..""..O.$..
   1b313:	2424 a47f 0024 222c 22a2 20a2 6525 51d9     $$..$.,".". %e.Q
   1b323:	4b61 4979 49fd 0049 4422 848e 2042 7901     aKyI.II."D..B .y
   1b333:	6949 4bdd 7959 0f0b 0001 4622 84a2 20a2     Ii.KYy...."F... 
   1b343:	4fe0 0060 5458 f554 5456 0058 200e ae88     .O`.XTT.VTX.. ..
   1b353:	8088 6380 2221 22ff e118 e00e 0018 0068     ...c!"."......h.
   1b363:	6ae0 202c 5149 4945 c371 7d45 5141 0049     .j, IQEIq.E}AQI.
   1b373:	4822 080e 2042 6a58 7a4a cf4a 7a4a 6a4a     "H..B XjJzJ.JzJj
   1b383:	0058 8a88 88ae 8088 7447 5555 d755 5656     X.......GtUUU.VV
   1b393:	7454 0047 4400 aa4e 60a2 7f12 4840 495f     TtG..DN..`..@H_I
   1b3a3:	49c9 5f49 0048 0068 22e2 002e 7f12 5040     .II_H.h.."....@P
   1b3b3:	5457 57d4 5f50 0050 0068 8a88 002e 7f12     WT.WP_P.h.......
   1b3c3:	4040 545f 54d4 5f54 0040 0268 aaaa 20aa     @@_T.TT_@.h.... 
   1b3d3:	7f12 4040 555f 55d5 5f55 0040 0268 22e2     ..@@_U.UU_@.h.."
   1b3e3:	202e 7f12 5f40 5555 55df 5f55 0040 6868     . ..@_UU.UU_@.hh
   1b3f3:	e000 002e 7f12 4840 5577 57d5 5f50 0040     ......@HwU.WP_@.
   1b403:	0068 22e2 60aa 7f12 4840 485f 40cf 505f     h..".`..@H_H.@_P
   1b413:	005f 0668 e082 e0e2 7f12 5240 5452 5ad4     _.h.......@RRT.Z
   1b423:	5252 0040 0a68 eaaa 00aa 6854 6652 d24b     RR@.h.....ThRfK.
   1b433:	6443 6852 0055 8e44 0820 204a 6380 ff00     CdRhU.D. .J .c..
   1b443:	ab80 aafa 80ab 00ff 2c68 8808 e0a2 af20     ........h,.... .
   1b453:	2f68 0020 a0bf a0e7 00bf 0e68 2448 2084     h/ .......h.H$. 
   1b463:	4444 2248 45c2 4458 5242 0062 0e48 a222     DDH".EXDBRb.H.".
   1b473:	4068 2020 24ff 2017 54d7 547f 0057 022c     h@  .$. .T.TW.,.
   1b483:	c0e0 c0e4 ff20 2424 ea17 4f4a 5555 0005     .... .$$..JOUU..
   1b493:	022c 8ce8 6022 ff40 4f48 d720 7f54 5454     ,..."`@.HO .T.TT
   1b4a3:	0057 2e68 0e0c c004 409f a93f bfaa a9aa     W.h......@?.....
   1b4b3:	80bf 00ff c4e0 444c e0e2 409f 9a0f afaa     ......LD...@....
   1b4c3:	baaa 808f 00ff 88e0 aa8e e0c2 803f 0a48     ............?.H.
   1b4d3:	aaaa 8aaa 8088 00ff 0ee0 aeaa e002 409f     ...............@
   1b4e3:	951f b595 9595 809f 00ff e2e0 4a28 e002     ............(J..
   1b4f3:	2a22 6aaa 3f2a 6a2a 2aaa 0022 0e48 a222     "*.j*?*j.*".H.".
   1b503:	4068 0b68 0aff 0069 84ff 84fc 00fc e0c0     h@h...i.........
   1b513:	e280 e022 61af 613f 00af 92ff 9292 00ff     .."..a?a........
   1b523:	c002 c002 e002 aa3e 3f6a aa6a 003e 88ff     ......>.j?j.>...
   1b533:	00f7 8e88 8088 80e8 003c 10ff 5f40 5454     ........<...@_TT
   1b543:	5f54 0040 0c2c aa2a 20aa 001c 10ff 7c20     T_@.,.*.. .... |
   1b553:	1380 24f8 004c 082c 8e68 8088 ff18 1210     ...$L.,.h.......
   1b563:	5222 9293 2252 0012 e0e0 226a 202c 003c     "R..R"....j", <.
   1b573:	10ff a921 3f69 a969 0021 0c2c 0e20 0000     ..!.i?i.!.,. ...
   1b583:	498a e710 4910 008a 007f 00ff 4822 2042     .I...I......"HB 
   1b593:	e0a2 cb24 e710 6b10 ff04 9880 00e7 80a4     ..$....k........
   1b5a3:	0e86 0088 0038 08ff ff00 8988 8f88 00f8     ....8...........
   1b5b3:	0c2c 042c c0a0 4990 5e00 5253 52ff 5e53     ,.,....I.^SR.RS^
   1b5c3:	0000 062c e080 0086 4990 8500 bda5 a5e5     ..,......I......
   1b5d3:	bda5 0085 0e2c 2222 e022 4990 5400 444d     ....,."""..I.TMD
   1b5e3:	44ff 544d 0004 062c e080 0086 4990 8800     .DMT..,......I..
   1b5f3:	004f 6a5a 4adf 004a 022c 22c2 20a2 09a5     O.Zj.JJ.,..". ..
   1b603:	c521 1507 09f5 c111 0021 a422 4444 20a2     !.......!.".DD. 
   1b613:	4990 f900 a9a9 a9af f9a9 0000 2268 e222     .I..........h"".
   1b623:	2022 4990 ff00 aaaa aaff a3aa 00ff 0e2c     " .I..........,.
   1b633:	ea22 e0a2 4990 0000 88fb 8f88 f989 0001     "....I..........
   1b643:	2468 2e84 2022 4990 0000 aaef aaaa aaaa     h$.." .I........
   1b653:	00ef 002c 88e8 e08a 4990 f700 9595 9597     ..,......I......
   1b663:	f795 0000 0e2c 2222 6022 4890 7402 1519     ....,."""`.H.t..
   1b673:	15f5 7419 0002 002c 2402 0080 4990 0100     ...t..,..$...I..
   1b683:	517f 5151 915f 0091 022c 0024 2042 4990     .QQQ_...,.$.B .I
   1b693:	0900 afaa 4f5a aaaa 000b 002c 0e0c c004     ....ZO....,.....
   1b6a3:	4990 6200 4b4a 4bca 4a4a 0062 022c 0e48     .I.bJK.KJJb.,.H.
   1b6b3:	6022 4990 2400 b669 2222 6bba 0028 0a2c     "`.I.$i."".k(.,.
   1b6c3:	442a 20a2 003e 20ff 535e ff52 5352 005e     *D. >.. ^SR.RS^.
   1b6d3:	e000 0e48 4008 003e 20ff 01f8 03f9 91e9     ..H..@>.. ......
   1b6e3:	00e8 e000 2e22 2022 003e 20ff 92fe ff92     ...."." >.. ....
   1b6f3:	9292 00fe e000 aeaa a0aa 003e 20ff e90f     ..........>.. ..
   1b703:	afa9 e9a9 000f e000 22e2 6022 003e 10ff     .........""`>...
   1b713:	aa2e 3f6b aa6a 003b e000 0e48 c004 007e     ..k?j.;...H...~.
   1b723:	00ff 6929 22b6 4b3a 0028 e000 a422 20a2     ..)i.":K(...".. 
   1b733:	5f60 5555 d555 5555 5555 0061 2e68 0824     `_UUU.UUUUa.h.$.
   1b743:	204a 5761 5350 c260 5772 5252 0063 a226     J aWPS`.rWRRc.&.
   1b753:	4842 e002 5966 c04f 494f 006f 007f 00ff     BH..fYO.OIo.....
   1b763:	8024 40e2 e0a2 5f90 8000 92ff 00ff 81fe     $..@..._........
   1b773:	00fe 402e e0c4 6068 92e2 9b95 9994 9197     ...@..h`........
   1b783:	9492 00e0 24aa e0a2 4084 5f90 1400 a69c     .....$...@._....
   1b793:	9fe9 8384 009c 402e 2c8a c000 cf42 0a74     .......@.,..B.t.
   1b7a3:	ff00 9191 ff91 0000 000e 2222 2022 e722     ..........""" ".
   1b7b3:	352a 6910 ff09 4909 0031 000e 0e00 0000     *5.i...I1.......
   1b7c3:	a422 346f 1f22 f710 5050 005f e000 4822     ".o4"...PP_..."H
   1b7d3:	2004 5f90 0000 5515 7d5b 9599 0015 402e     . ._...U[}.....@
   1b7e3:	a422 204a 5f90 0000 927e ff02 9202 00fe     ".J ._..~.......
   1b7f3:	422e 8024 2084 5f90 2000 4828 98a9 2c4a     .B$.. ._. (H..J,
   1b803:	0020 422e 2a4e 6060 5f90 0000 2517 40c9      ..BN*``._...%.@
   1b813:	6555 0007 402e 22e2 e022 5f90 0000 704c     Ue...@."".._..Lp
   1b823:	c34c 704c 004c 402e 8e88 8088 ff00 b4aa     L.LpL..@........
   1b833:	b0af aaab aabe 00eb 0068 2ae0 204a ff00     ........h..*J ..
   1b843:	afa0 adaa aaab afaa 00e8 0e68 8a48 00ae     ..........h.H...
   1b853:	88ff 80f7 92ff 80ff 83bc 00fc 84e8 e8c4     ................
   1b863:	6068 9191 bd95 91d1 fe21 2020 003f e2e2     h`......!.  ?...
   1b873:	e2e2 e002 d915 fd51 4b41 f949 4949 0041     ......Q.AKI.IIA.
   1b883:	4422 8480 2042 0bfa ff0a a921 3f69 a969     "D..B ....!.i?i.
   1b893:	0021 0e2c 0e00 0000 eb08 2a2a ef3a 2a2a     !.,.......**:.**
   1b8a3:	eb2a 0008 aa2a aaae 20ac 88ff 00f7 5f52     *...*.... ....R_
   1b8b3:	7f52 9f92 0092 80e8 aeaa a0aa fe20 3e21     R........... .!>
   1b8c3:	ff00 9f80 91f1 009f 8606 220e 20e2 e13e     ...........". >.
   1b8d3:	003e a8ff a8af a8af 0089 6268 e2c2 200c     >.........hb... 
   1b8e3:	f927 3c23 fe00 ff92 fe92 0000 8e24 ae2a     '.#<........$.*.
   1b8f3:	20aa fd22 3f20 7d04 fd57 7d55 0004 8624     . ". ?.}W.U}..$.
   1b903:	0280 002c f927 3c23 f700 9e95 f495 0007     ..,.'.#<........
   1b913:	8e24 000e e00a e13e 003e 925e 9e93 d2b3     $.....>.>.^.....
   1b923:	001e 6068 8024 e0e2 f927 3c23 bf00 3f49     ..h`$...'.#<..I?
   1b933:	898a 00ff 8e24 0c0e e002 fd22 3f20 ae00     ....$.....". ?..
   1b943:	3f6a ba6a 0003 8624 8e04 8044 fd22 3f20     j?j...$...D.". ?
   1b953:	ff00 bfa5 aaaa 00e0 8624 4c2c 60aa e13e     ........$.,L.`>.
   1b963:	003e 88ff 00f7 919f 00ff 6068 80e8 e002     >.........h`....
   1b973:	2a29 aa6f 2b3a 2a2a 4a2f 0029 ea00 aaae     )*o.:+**/J).....
   1b983:	00e0 4f88 2800 b66a 3d25 582e 0020 2a2c     ...O.(j.%=.X .,*
   1b993:	22aa a0aa da36 6212 be80 ffaa beaa 0080     ."..6..b........
   1b9a3:	8844 4a2a 2022 84bc 04fd a4bf bfa2 a2a4     D.*J" ..........
   1b9b3:	00bf 248a 2ee0 e002 da36 2212 5f80 f515     ...$....6.."._..
   1b9c3:	5f15 0080 8844 000e 002e bc84 8484 00f7     ._..D...........
   1b9d3:	577d 55fd 007d a288 02e0 e022 dd33 6411     }W.U}.....".3..d
   1b9e3:	4655 546c b784 00c4 4222 442a 20a2 dd33     UFlT...."B*D. 3.
   1b9f3:	0411 5525 4bc9 6555 0045 4022 2e24 2004     ..%U.KUeE."@$.. 
   1ba03:	da36 6012 aa06 3f6b ba6a 0003 8844 0e48     6..`..k?j...D.H.
   1ba13:	c004 84bc 07fd aa0c aaab fbaa 000c 2c8a     ...............,
   1ba23:	a402 00a2 5d07 15b5 b755 5515 07bd 0000     .....]..U..U....
   1ba33:	22e2 2222 6022 aa5a 4a2b 0312 aa5a 4a2b     .""""`Z.+J..Z.+J
   1ba43:	0012 aa22 a8aa c0aa 5250 52fa 0252 5252     ..".....PR.RR.RR
   1ba53:	53fa 0050 aa8a aaaa 80ae 2a2a 4aff 7f00     .SP.......**.J..
   1ba63:	4a4a 7a4a 0003 e848 220e e022 5545 5c56     JJJz..H.."".EUV\
   1ba73:	d576 5554 545f 0044 0424 4220 2004 5544     v.TU_TD.$. B. DU
   1ba83:	5e57 d474 5c54 5557 0044 ea80 aaa2 80e0     W^t.T\WUD.......
   1ba93:	7f44 8044 0764 6a5a 5fca 004a 824c 224c     D.D.d.Zj._J.L.L"
   1baa3:	202a 4444 447f aa64 feb3 a8b3 0024 c844     * DD.Dd.....$.D.
   1bab3:	80a4 c0aa 5754 55fd 0055 2524 25fe 0024     ....TW.UU.$%.%$.
   1bac3:	44ab a2b2 a022 ff22 8024 92ff 80ff 88ff     .D..".".$.......
   1bad3:	00f7 042e e8c4 80e8 ff10 0010 405f 555f     ............_@_U
   1bae3:	55f5 005f 804c e2e2 e022 ff10 0010 5f48     .U_.L...".....H_
   1baf3:	df6a 5f6a 0048 804c 8e08 60aa ff22 9924     j.j_H.L....`".$.
   1bb03:	cfa9 8991 007f 00ff 022e 442c e082 ff21     ..........,D..!.
   1bb13:	0022 283f aaff aaaa 0026 062e c88a e08a     ".?(....&.......
   1bb23:	ff22 0024 80ff bfa4 82a4 00ff 002e aae2     ".$.............
   1bb33:	e0a2 ff10 0110 aefa aaab aaab 00fb 804c     ..............L.
   1bb43:	484a e022 ff08 0008 5f14 7f54 9f94 0014     JH"......_T.....
   1bb53:	804c aeaa a0aa 5f53 5ff0 0053 a4ff a4a7     L.....S_._S.....
   1bb63:	00e7 2e68 e000 202c ff10 0010 577c ffd4     ..h..., ....|W..
   1bb73:	5454 007c 804c 8e88 8088 ff22 0024 567d     TT|.L.....".$.}V
   1bb83:	ffd4 5454 007c 002e 8e88 8088 4f88 1400     ..TT|........O..
   1bb93:	525a 5af7 1456 0000 2a2c aaaa 20aa ff10     ZR.ZV...,*... ..
   1bba3:	0010 2a28 9a4a 2c4a 0028 824c a6c2 602a     ..(*J.J,(.L...*`
   1bbb3:	ff10 0010 92ff 00ff 92ff 00ff 824c c2c2     ............L...
   1bbc3:	e0c2 ff10 0010 623e bea3 e2a3 003e 804c     ......>b....>.L.
   1bbd3:	8024 e0e2 ff22 0024 c32a 435f 404a 007f     $...".$.*._CJ@..
   1bbe3:	002e e080 e0a2 4a48 52ff 5702 f64a 7843     ......HJ.R.WJ.Cx
   1bbf3:	0004 aa22 a8aa c0aa ff22 4224 5947 5dc2     ..".....".$BGY.]
   1bc03:	494a 004e 002e 24e0 2084 2222 24ff 7048     JIN....$. "".$Hp
   1bc13:	c954 4870 0044 e002 8e88 8088 ff22 0024     T.pHD.......".$.
   1bc23:	4d55 c545 4d45 0055 002e 22e2 e022 7f04     UME.EMU....""...
   1bc33:	0804 5f48 ca6a 5f4a 0048 442e 880e 00ae     ..H_j.J_H..D....
   1bc43:	ff22 0024 aa3e 3f6a aa6a 003e 002e 8e88     ".$.>.j?j.>.....
   1bc53:	8088 ff22 0024 a9bf aba9 a9a9 00b9 062e     ..".$...........
   1bc63:	4882 2042 ff22 0024 507f d557 5555 0077     .HB ".$..PW.UUw.
   1bc73:	062e e480 e044 5119 5651 f454 5654 5151     ....D..QQVT.TVQQ
   1bc83:	001b 0c24 a622 2004 ff10 4410 5455 54ff     ..$.".. ...DUT.T
   1bc93:	7c55 0010 a24c e848 2042 ff10 0310 aaaa     U|..L.H.B ......
   1bca3:	aaab faaa 0003 884c e8e8 00ae ff22 0024     ......L.....".$.
   1bcb3:	92aa 00eb 92aa 00eb 002e a0a4 a0a4 ff22     ..............".
   1bcc3:	0024 fa23 fbaa faaa 0023 002e 48a2 a042     $.#.....#....HB.
   1bcd3:	ff80 ff94 7f82 fe52 7f52 0002 8e88 000e     ......R.R.......
   1bce3:	002e 4b4a 4aea 5f4a 4a4a 4bea 004a 880e     ..JK.JJ_JJ.KJ...
   1bcf3:	8a88 00ae 4840 5fe8 4a4a 5f4a 48e8 0040     ....@H._JJJ_.H@.
   1bd03:	c8aa 8888 a0ca 4544 45ef 4244 414c 4ce0     ......DE.EDBLA.L
   1bd13:	0042 e048 6a82 202c 4e40 52f2 5f52 5252     B.H..j, @N.RR_RR
   1bd23:	4ef2 0040 aa2a aaae 20aa 4a49 4aec 4a5a     .N@.*.... IJ.JZJ
   1bd33:	4a4a 4aec 0049 c82a 88ae 20ca 5544 55f5     JJ.JI.*.... DU.U
   1bd43:	7f55 5555 55ff 0045 2a02 4a44 2022 4242     U.UU.UE..*DJ" BB
   1bd53:	4aef 404a 4f48 49e8 004e e0c2 24c0 2084     .JJ@HO.IN....$. 
   1bd63:	5e43 52f2 5252 5252 5ef2 0043 aaea aaaa     C^.RRRRR.^C.....
   1bd73:	e0aa 4447 44ef 4047 4141 45ef 0045 e4c0     ..GD.DG@AA.EE...
   1bd83:	e2c0 e022 5f40 45f5 5f40 5540 5ff5 0040     ..".@_.E@_@U._@.
   1bd93:	4422 8480 2042 4442 5aef 4a4a 5a4f 4aea     "D..B BD.ZJJOZ.J
   1bda3:	0048 ea00 eaaa 20aa 4949 f555 5359 fd55     H...... IIU.YSU.
   1bdb3:	4951 0049 4822 080e 2042 5f40 55f5 405f     QII."H..B @_.U_@
   1bdc3:	515f 55f5 005d 022c cae2 a044 4f44 55f5     _Q.U].,...D.DO.U
   1bdd3:	5755 5555 47fd 0040 4822 e200 60a2 4744     UWUU.G@."H...`DG
   1bde3:	52ea 5454 5250 5af6 0043 aa0e 2aa2 e0aa     .RTTPR.ZC....*..
   1bdf3:	4a4a 4aec 594a 4a4a 4aec 004a 8888 888e     JJ.JJYJJ.JJ.....
   1be03:	8088 5244 e048 4a4b eb4a 4f48 0048 8024     ..DRH.KJJ.HOH.$.
   1be13:	8888 002e 5244 40e8 4a4f 4a4a 4fea 0040     ....DR.@OJJJ.O@.
   1be23:	8224 aaea 20ae 5458 55f5 7557 5555 55f5     $.... XT.UWuUU.U
   1be33:	0058 e288 2222 002e 5058 55f7 7555 5555     X...""..XP.UUuUU
   1be43:	51f7 0058 e200 2222 002e 5259 54fd 7057     .QX...""..YR.TWp
   1be53:	5457 57f5 0058 4822 e200 6022 5159 57f5     WT.WX."H.."`YQ.W
   1be63:	5159 5553 52f1 0059 4422 042e 2042 5151     YQSU.RY."D..B QQ
   1be73:	5af7 5f40 5f50 5ff0 0050 e002 2e68 6048     .Z@_P_._P...h.H`
   1be83:	4047 52e4 5351 5a55 40e4 0047 aae2 2a6e     G@.RQSUZ.@G...n*
   1be93:	e062 5048 52fb 024a 524a 50fb 0048 8024     b.HP.RJ.JR.PH.$.
   1bea3:	0084 e0e2 2c23 28ff 47a4 754c 5fc5 0045     ....#,.(.GLu._E.
   1beb3:	e200 224c 202e 2621 24ff 2000 49c9 49fd     ..L". !&.$. .I.I
   1bec3:	0049 e000 e200 e022 b886 ff84 b884 f806     I.....".........
   1bed3:	8187 00f8 2c22 2c44 200e 2621 24ff 6951     ....",D,. !&.$Qi
   1bee3:	6b49 a94d 0091 e000 2e00 0000 2c23 24ff     IkM.........#,.$
   1bef3:	3f12 5fd5 1575 001f e000 002c e002 2620     .?._u.....,... &
   1bf03:	22ff 7444 c74c 744c 0044 e000 8e88 8088     ."DtL.LtD.......
   1bf13:	2c23 24ff be02 2263 be63 0000 e000 8024     #,.$..c"c.....$.
   1bf23:	60e2 2c23 22ff 4588 0118 20ff 001b e000     .`#,.".E... ....
   1bf33:	2268 0048 2c23 24ff ab02 aba8 f9a8 0002     h"H.#,.$........
   1bf43:	e000 48a2 2084 4f48 5b68 fa4a 5b4a 4f68     ...H. HOh[J.J[hO
   1bf53:	0048 2a0e aaaa 002e 82ff aefb fbaa 0082     H..*............
   1bf63:	88ff 00f7 6ae2 20a6 80e8 88ff aabb fbaa     .....j. ........
   1bf73:	aaaa 88bb 0080 a6e2 a6a2 20a2 525e 52ff     ........... ^R.R
   1bf83:	085e ee10 3e21 0020 e848 2440 2084 525f     ^...!> .H.@$. _R
   1bf93:	5252 045f 2526 25fc 0026 2c2e 2442 2084     RR_.&%.%&..,B$. 
   1bfa3:	aabe a3f2 aafa 00be 88ff 00f7 ae2a 20aa     ............*.. 
   1bfb3:	80e8 a2bf a2fc 00bf 2320 23fc 0020 aaea     ........ #.# ...
   1bfc3:	6ce0 6028 a2bf a2fc 18bf 07e4 e784 0018     .l(`............
   1bfd3:	aaea 48e2 002e 8080 abbe aaea bdab 8181     ...H............
   1bfe3:	0000 aa8a 4aac 0026 f08f 889f 88ff 88ff     .....J&.........
   1bff3:	003f 00ff a488 e080 e0a2 9f84 8fe8 e744     ?.............D.
   1c003:	1444 e44c 0044 4c0c 220c 0022 f887 008f     D.L.D..L."".....
   1c013:	a2bf a0fc a2fc 00bf c0c4 aaea e0aa 9f84     ................
   1c023:	8fe8 4a52 ff42 4a42 0052 4c0c 8024 2084     ..RJB.BJR..L$.. 
   1c033:	9f84 8fe8 2525 49f5 4555 000d 8a08 8024     ....%%.IUE....$.
   1c043:	60e2 9f84 88e8 80ff a8af 80af 00ff 440c     .`.............D
   1c053:	88e0 e0a2 9f84 8fe8 3f80 a669 2039 003f     .........?i.9 ?.
   1c063:	4c0c 220e e0a2 9f84 8fe8 2594 49d5 6555     .L.".......%.IUe
   1c073:	0004 4c0c 220e 002e 909f d0bf 909f d27f     ...L."..........
   1c083:	7a4a 0003 c0e0 e8c2 c0a2 6b52 6aca ff52     Jz........Rk.jR.
   1c093:	ff80 ff80 0080 ae0a 2e2c 202c 6b52 6aca     ........,., Rk.j
   1c0a3:	2052 52df 415e 007f aa08 e2e0 6022 ff00     R .R^A......"`..
   1c0b3:	bf80 beaa be82 bea3 00a2 2e68 2c4c 60e2     ..........h.L,.`
   1c0c3:	4544 f349 4541 cb75 6555 004c 6c44 4c44     DEI.AEu.UeL.DlDL
   1c0d3:	4064 fc83 9f92 ef00 aba8 efa8 0000 c002     d@..............
   1c0e3:	482a 204a fc83 9f92 2811 894a 2848 0013     *HJ .....(J.H(..
   1c0f3:	c002 2a2a 202a fa86 9e91 6911 6b49 a99d     ..*** .....iIk..
   1c103:	0011 8024 2e00 0000 5414 5a77 fe52 5a52     ..$......TwZR.RZ
   1c113:	5477 0014 a202 4448 0022 a139 adb5 fda5     wT....HD".9.....
   1c123:	b5a5 a1ad 0039 6c00 4444 0060 e45c 454f     ....9..lDD`.\.OE
   1c133:	ff80 ff94 ff81 0080 e088 8e4c 200e d474     ..........L.. t.
   1c143:	547e 0154 507e 9e50 0090 aa2a aaae 20aa     ~TT.~PP...*.... 
   1c153:	92ff ff92 4908 ff49 4949 0008 2ee2 2e22     .....II.II....".
   1c163:	2022 4a7f 007f 007f 08ff 08ff 0010 c2c4     " .J............
   1c173:	e4e2 e0e2 407f 007f 5555 fd55 5555 0055     .....@..UUU.UUU.
   1c183:	8088 48a2 a042 447f 007f 2a2f ff2a aa2a     ...HB..D../**.*.
   1c193:	006f c0c4 8ee8 e08a 447f 007f a5a5 a5fd     o........D......
   1c1a3:	bda5 0084 c0c4 22e2 002e 92ff 00ff 2442     ......."......B$
   1c1b3:	00ff 24ff 0042 c0c4 8024 e0e2 92ff ff92     ...$B...$.......
   1c1c3:	1410 59e4 6256 0003 2ee2 a20a 00c8 497f     ...YVb.........I
   1c1d3:	7f49 2200 a46c 442f 0024 2ee2 8808 80e8     I.."l./D$.......
   1c1e3:	88ff aaaf faaa aaaa 88af 00ff eae2 aaaa     ................
   1c1f3:	e0e2 407f 007f eb49 5a4e ea4a 004b 8088     ...@..I.NZJ.K...
   1c203:	220e e022 407f 007f e94f 4f49 e949 004f     .""..@..O.IOI.O.
   1c213:	c0c4 2ee2 e022 407f 227f ff24 2225 24ff     ...."..@."$.%".$
   1c223:	0022 8088 000e 00e0 aff8 aaaa f8af ff20     "............. .
   1c233:	2020 003f aa0e 68e0 e022 487f 007f aa09       ?....h"..H....
   1c243:	5aaf aa4f 002b 8888 c000 c0e0 407f 487f     .ZO.+........@.H
   1c253:	6a5f 6adf 485f 0004 8088 ea88 60a2 447f     _j.j_H.......`.D
   1c263:	7f44 2410 9454 2655 0010 4cc4 aa0e 00ae     D..$T.U&...L....
   1c273:	a6fb aaaa abaa aaaa aeaa 00fb acaa 8e88     ................
   1c283:	e0aa 407f 2d7f 25f7 2908 29ff 0029 8088     ...@.-.%.).))...
   1c293:	08e0 004a 447f 447f 007f 4949 49fb 0049     ..J..D.D..II.II.
   1c2a3:	c4c4 22c0 20e2 90f3 929f 00f2 4444 44ff     ...". ......DD.D
   1c2b3:	0044 e4e2 2c40 200c 407f 007f 7017 f611     D...@,. .@...p..
   1c2c3:	5051 0057 8088 22ea e02a 90f7 929f 10f2     QPW...."*.......
   1c2d3:	482f 2fc9 0010 e4e2 e240 6022 223e 22ff     /H./....@."`>"."
   1c2e3:	103e 12ff ff12 0010 e422 e2e0 002e 223e     >.......".....>"
   1c2f3:	22ff 003e 2223 22fe 0023 e422 e2e0 e022     .">.#"."#."...".
   1c303:	223e 22ff 003e a0ff a8bf 00af e422 2468     >".">.......".h$
   1c313:	e082 223e 22ff 003e 92ff ff92 0000 e422     ..>".">.......".
   1c323:	e2c2 202e 223e 22ff 003e 223f 22ff 003f     ... >".">.?"."?.
   1c333:	e422 e2e0 e0e2 7504 5555 fd55 5555 7955     "......uUUU.UUUy
   1c343:	0004 222e e2e2 202e 82ff ae8a fbaa aeaa     ..."... ........
   1c353:	828a 00ff aae2 aaae e0a2 223e 22ff 083e     ..........>".">.
   1c363:	20f0 243f 0024 e422 00c6 80e8 223e 22ff     . ?$$.".....>"."
   1c373:	243e 9754 5494 0027 e422 0ee0 c004 223e     >$T..T'.".....>"
   1c383:	22ff 843e a9c5 a993 00c5 e422 22e2 20e2     .">......."..". 
   1c393:	213f 21ff 6a11 118d 10ff 001f e422 488a     ?!.!.j......"..H
   1c3a3:	e002 407f 007f 88ff faab 88ab 00ff 8688     ...@............
   1c3b3:	8880 e0a2 407f 247f 4ada 4a5f 404a 007f     .....@.$.J_JJ@..
   1c3c3:	8088 c4c4 e0e2 407f 287f 55c8 4964 4470     .......@.(.UdIpD
   1c3d3:	007c 8688 228e 60a2 407f 007f 322a 63aa     |....".`.@..*2.c
   1c3e3:	322a 002a 8088 8e88 8088 407f 007f 6b4a     *2*........@..Jk
   1c3f3:	ce5a 6b5a 004a 8288 44a4 20a2 407f 007f     Z.ZkJ....D. .@..
   1c403:	7557 d555 6555 0057 8088 44e4 e044 407f     WuU.UeW....DD..@
   1c413:	007f 498a e310 4910 008a c0c4 4822 2042     ...I...I...."HB 
   1c423:	407f 907f 0049 487f 48fb 004f 8688 8286     .@..I..H.HO.....
   1c433:	204c 407f 007f 4869 cf48 4949 0069 8288     L .@..iHH.IIi...
   1c443:	2ec2 2022 407f 007f d57f 007c 88ff 00f7     .." .@....|.....
   1c453:	8088 84e4 80e4 407f 007f 497f cf49 4d49     .......@...II.IM
   1c463:	007b 8688 80a4 2084 407f 007f 92ff 9297     {...... .@......
   1c473:	00ff 00ff 8688 e480 e0c2 407f 007f 92aa     ...........@....
   1c483:	00eb 92aa 00eb c0c4 a0a4 a0a4 203f 20ff     ............? . 
   1c493:	003f 5457 54fd 0057 e880 a480 a084 003f     ?.WT.TW.......?.
   1c4a3:	00ff 543f f358 555d 0014 8888 a4aa 204a     ..?TX.]U......J 
   1c4b3:	007f 00ff 487f 6a5f 6adf 005f c4c4 88c0     .....H_j.j_.....
   1c4c3:	a0ea 203f 20ff 003f a4ff a5bf 00ff e880     ..? . ?.........
   1c4d3:	ea80 e0a2 2a6f 2a2a ef2a 2a2a 2a2a 006f     ....o****.****o.
   1c4e3:	eae2 aaaa e0e2 007f 00ff 007f afaa aa5a     ..............Z.
   1c4f3:	00ab c4c4 0ec0 e08a 007f 00ff 007f 5965     ..............eY
   1c503:	59c1 0065 c4c4 22c0 20e2 80fe 809f 28fe     .Ye....". .....(
   1c513:	ff25 a522 0068 042c 2e28 8000 80fe f08f     %.".h.,.(.......
   1c523:	ff00 af88 afa8 008a 082c 0e68 6028 80ff     ........,.h.(`..
   1c533:	80bf 12ff cb2a 122a 000a 082c 2e48 4008     ....*.*...,.H..@
   1c543:	cf29 4949 2900 fc2b 1928 0068 220e ea00     ).II.)+.(.h.."..
   1c553:	60a2 cf29 4949 8000 92ff ff92 0080 220e     .`).II........."
   1c563:	c404 404e cf29 4949 5200 ff4a 4a42 0052     ..N@).II.RJ.BJR.
   1c573:	220e 4802 2084 cf29 4949 2500 49f5 6559     .".H. ).II.%.IYe
   1c583:	004d 220e c002 60e2 cf29 4949 ff00 fe91     M.."...`).II....
   1c593:	9192 00ff 220e 220e e022 c929 494f 0049     ....."."".).OII.
   1c5a3:	1575 15f5 0077 e200 e220 6022 cf29 0049     u...w... ."`).I.
   1c5b3:	80fe 809f 007e 00ff 200e 8424 e022 cf29     ....~.... $.".).
   1c5c3:	4949 1400 25e4 25ff 0024 220e 8004 80e0     II...%.%$.."....
   1c5d3:	cf29 4949 1400 24e7 24ff 0024 220e 8006     ).II...$.$$.."..
   1c5e3:	60e2 cf29 0049 4c41 0077 7f48 0088 200e     .`).I.ALw.H.... 
   1c5f3:	222c a0aa cf29 0049 7c20 1180 24fc 004c     ,"..).I. |...$L.
   1c603:	200e 8e88 8088 cf29 4949 2910 8f49 2949     . ....).II.)I.I)
   1c613:	0010 200e 2e22 2022 cf29 4949 8a00 2253     ... "." ).II..S"
   1c623:	5722 008a 220e 0a00 002e cf29 4949 2b10     "W..."....).II.+
   1c633:	8a4a 2b4a 0010 220e 220e 002e cf29 0049     J.J+..."."..).I.
   1c643:	1221 00ff 12ff 0021 200e 8024 60e2 cf29     !.....!.. $..`).
   1c653:	0049 2312 49d5 6355 0002 200e 220e 002e     I..#.IUc... ."..
   1c663:	cf29 4949 3504 5fd5 1f75 0004 220e 2e00     ).II.5._u...."..
   1c673:	0000 cf29 4949 3f00 52d2 725e 001e 220e     ..).II.?.R^r..."
   1c683:	220e e022 cf29 4949 2b00 a030 3360 0028     ."".).II.+0.`3(.
   1c693:	220e a402 20a2 cf29 4949 2402 b02f 226f     ."... ).II.$/.o"
   1c6a3:	0024 220e e200 204c cf29 4949 4400 f44d     $.."..L ).II.DM.
   1c6b3:	4845 0044 220e c002 60e2 cf29 4949 3500     EHD.."...`).II.5
   1c6c3:	6ca6 2625 0034 220e ac02 0042 cf29 0049     .l%&4.."..B.).I.
   1c6d3:	e13e 003e 407f 007f 200e 6068 e0e2 2514     >.>..@... h`...%
   1c6e3:	5fd5 5555 5054 405f 0000 442a 266a e084     ._UUTP_@..*Dj&..
   1c6f3:	1179 12ff a584 e5bd bda5 0084 e000 220e     y.............."
   1c703:	002e 4949 897f 0089 d27e 7a4a 0003 22e2     ..II....~.Jz..."
   1c713:	88e0 c0a2 5651 927f 22b1 f827 2126 0032     ....QV..."'.&!2.
   1c723:	e080 e200 6048 4f88 2a00 b3aa b2fe 2aab     ....H`.O.*.....*
   1c733:	0000 222c aa66 2062 ca20 4a6a 2b5e 5bca     ..,"f.b  .jJ^+.[
   1c743:	4a6a 0040 2222 8444 6022 c828 684f 2048     jJ@.""D."`(.OhH 
   1c753:	48cf 4a6a 004d c844 e480 8044 cf20 6b48     .HjJM.D...D. .Hk
   1c763:	2a4a 4aca 486b 0040 2a0e aaaa 00a2 e010     J*.JkH@..*......
   1c773:	6a4f 2a4a 4aca 506f 0040 aa22 aaaa 20a2     OjJ*.JoP@.".... 
   1c783:	c422 6858 2f48 4aca 4a6a 0048 0000 880e     ".XhH/.JjJH.....
   1c793:	0088 c420 5465 2c44 44c4 5465 0040 a222     .. .eTD,.DeT@.".
   1c7a3:	2622 20a2 d530 5575 3555 55d5 5074 005f     "&. 0.uUU5.UtP_.
   1c7b3:	440c 4c44 e022 ca20 6a4a 284c 4ac8 4c6a     .DDL". .JjL(.JjL
   1c7c3:	0040 ea00 aaaa 00ae c424 645f 4057 c427     @.......$._dW@'.
   1c7d3:	5764 0040 022c e2e0 002e d222 604b 2948     dW@.,.....".K`H)
   1c7e3:	48de 4f68 0040 c422 2aa2 20a2 c524 556d     .HhO@."..*. $.mU
   1c7f3:	2545 45c5 4965 0044 220e 2222 002e 3f08     E%.EeID.."""...?
   1c803:	00c0 5e4b eb4a 5e4a 004b 000e 48a2 a042     ..K^J.J^K....HB.
   1c813:	3f08 00c0 82ff aefb fbaa 0082 000e 6ae2     .?.............j
   1c823:	20a6 3f08 08c0 52fb 0256 4bfa 0098 000e     . .?...RV..K....
   1c833:	aaea 00ae 3f08 01c0 aefb abaa faaa 0003     .....?..........
   1c843:	000e c4c4 e0c2 3f08 7cc0 d457 547f 7c57     .......?.|W..TW|
   1c853:	0001 240e ea80 60aa 3f08 10c0 4cea 4d7a     ...$...`.?...LzM
   1c863:	4274 007e 2c0e 2a0e 6068 3f08 00c0 72aa     tB~..,.*h`.?...r
   1c873:	fa27 7322 00aa 000e 442a 20a2 c47f 007f     '."s....*D. ....
   1c883:	29e9 e929 2929 00ef e0e2 22e2 6022 c47f     .)).)).....""`..
   1c893:	7f44 4402 c05b 445b 0042 4cc4 4822 2042     D..D[.[DB..L"HB 
   1c8a3:	4f24 1090 909f 7e00 4ad2 007b 020e 88e0     $O.....~.J{.....
   1c8b3:	c0a2 c721 0018 509f f417 5017 009f 000e     ..!....P...P....
   1c8c3:	c4e0 e0c2 d37f 7f44 4f04 4f49 7f40 0040     ......D..OIO@.@.
   1c8d3:	2ee8 0200 002e 7f04 44d5 007f 121f 52f2     .........D.....R
   1c8e3:	005e 022c 80e4 0000 7f02 44d3 087f 20f0     ^.,........D... 
   1c8f3:	253f 0025 822c 00e0 00e0 7f04 7fd5 4804     ?%%.,..........H
   1c903:	e156 5846 0040 0e2c 6a02 2024 2121 555d     V.FX@.,..j$ !!]U
   1c913:	b5b7 57b5 215d 0021 2422 c682 60a2 4b22     ...W]!!."$...`"K
   1c923:	4a8a 8923 ff92 9289 00ff 040e 2ec0 e002     .J#.............
   1c933:	ff00 ff92 4931 9b69 a98d 0011 2e68 2e00     ....1Ii.....h...
   1c943:	0000 ff00 ff92 4a62 ca4b 4a4b 0062 2e68     ......bJK.KJb.h.
   1c953:	c002 60e2 ff00 ff92 ff00 9392 919f 00f2     ...`............
   1c963:	2e68 4a2c c0e0 3008 5dd7 5755 5d55 4057     h.,J...0.]UWU]W@
   1c973:	007f c400 444c e0c2 44a2 00bf 5b48 cb6a     ....LD...D..H[j.
   1c983:	5f68 0048 c042 4c0c 002e 44a2 02bf 95f2     h_H.B..L...D....
   1c993:	94fc 94f4 00f7 c042 a422 0048 44a2 00bf     ......B.".H..D..
   1c9a3:	2a12 8f4a 2a4a 0012 c042 aaea e0aa 44a2     .*J.J*..B......D
   1c9b3:	00bf 5844 c144 5844 0044 c042 8e88 8088     ..DXD.DXD.B.....
   1c9c3:	a47f e4bf 003f 2448 ff00 0001 8ae8 88e0     ....?.H$........
   1c9d3:	008e 44a2 00bf f19f e402 445f 0063 c042     ...D......_Dc.B.
   1c9e3:	022e 00e0 ff20 3f20 5f40 74d4 5fd4 0040     .... . ?@_.t._@.
   1c9f3:	0e68 aa2a 60aa 4fe0 0060 a5fd ffa5 a5a5     h.*..`.O`.......
   1ca03:	00fd 200e 0e2c 200c 4fe0 0060 a9fb a8a9     ... ,.. .O`.....
   1ca13:	a9ab 00f9 200e 60e2 60e2 5050 4467 cd76     ..... .`.`PPgDv.
   1ca23:	4574 5067 0050 aa22 a8aa c0aa 7444 56d5     tEgPP.".....Dt.V
   1ca33:	4075 ff22 3f20 0000 e88a c002 208e 7f00     u@". ?....... ..
   1ca43:	5740 d57d 5555 577d 0040 2c68 8400 2042     @W}.UU}W@.h,..B 
   1ca53:	7f00 4f40 c155 415f 5f55 0040 2268 0848     ..@OU._AU_@.h"H.
   1ca63:	2042 7f12 5544 5555 55fd 5557 0045 0068     B ..DUUU.UWUE.h.
   1ca73:	0284 00e0 7f12 5740 d555 557f 5d55 0040     ......@WU..UU]@.
   1ca83:	0268 8424 002a 7f12 4f40 5f40 40c2 425f     h.$.*...@O@_.@_B
   1ca93:	0044 2e68 402e 60e2 2e20 3fe0 a291 00ff     D.h..@.` ..?....
   1caa3:	a291 00ff 8088 e002 e002 ff20 2724 1100     .......... .$'..
   1cab3:	22ee 222f 0022 2c68 aa02 a0ea 3f20 27e4     ."/"".h,.... ?.'
   1cac3:	3f10 55d4 5554 005c 2e68 0c48 60a2 4544     .?.UTU\.h.H..`DE
   1cad3:	5456 d75d 5c54 4455 0046 8e44 8422 20a2     VT].T\UDF.D.".. 
   1cae3:	409f a928 aefb 9baa 80a8 00ff 80e0 aeea     .@(.............
   1caf3:	e002 409f 9517 9097 90bf 8093 00ff 22e0     ...@..........."
   1cb03:	4c42 e024 489f ba2f efaa baaa a8af 00ff     BL$..H/.........
   1cb13:	88e0 aa8e e082 409f be03 aaaa beaa 8083     .......@........
   1cb23:	00ff eae0 aaaa e0e2 409f aa1e 828b aaab     .........@......
   1cb33:	80be 00ff 24e0 e280 e0c2 409f ab3e aaaa     .....$.....@>...
   1cb43:	cfba 848a 00ff 0ee0 aeaa e002 409f bf10     .............@..
   1cb53:	9794 a590 8892 00ff 68e0 002e e0a2 69a9     .........h.....i
   1cb63:	6a3f 00aa 4945 6951 0045 8024 2202 20e2     ?j..EIQiE.$..". 
   1cb73:	0b68 4aff ff09 a0a0 a4bf 00a7 e0c0 2c68     h..J..........h,
   1cb83:	e002 0b68 0aff 0069 427f 42c2 007f e0c0     ..h...i..B.B....
   1cb93:	e280 e022 12df 12fd 00df e618 7e41 0040     ..".........A~@.
   1cba3:	e0e0 24e0 2084 0038 08ff 9232 f29e 9e92     ...$. 8...2.....
   1cbb3:	0082 082c aa4e e0aa 0038 08ff aba9 5f4d     ..,.N...8.....M_
   1cbc3:	a949 00a9 0c2c 0e2c c004 0038 08ff 2430     I...,.,...8...0$
   1cbd3:	9454 2655 0020 082c aa4e e0aa 0078 20ff     T.U& .,.N...x.. 
   1cbe3:	2514 4bd5 6555 0004 0c2c 4e04 0044 0038     .%.KUe..,..ND.8.
   1cbf3:	08ff 42bf a00f 8295 00ff 082c 88e0 e082     ...B......,.....
   1cc03:	0038 08ff 5464 d457 5457 0064 0c2c 8024     8...dTW.WTd.,.$.
   1cc13:	e0e2 0038 08ff ff10 aaaa a8ab 00ef 082c     ..8...........,.
   1cc23:	8868 e082 4990 0000 5744 fd54 5754 0044     h....I..DWT.TWD.
   1cc33:	002c 482a 204a 4990 0800 4b49 4afe 2b5a     ,.*HJ .I..IK.JZ+
   1cc43:	00c8 082c aa0e 00ae 4990 4100 55ff 5555     ..,......I.A.UUU
   1cc53:	41ff 0000 2268 0040 2042 4990 2c00 28ff     .A..h"@.B .I.,.(
   1cc63:	7f04 9f50 0090 002c 68e0 000e 4990 2c00     ..P...,..h...I.,
   1cc73:	20ff e018 e007 0018 002c 2ee0 202c 4990     . ......,..., .I
   1cc83:	5500 5953 ff55 5551 0059 022c 4822 2042     .USYU.QUY.,."HB 
   1cc93:	4990 9200 a492 82c9 85fe 0088 082c 24aa     .I..........,..$
   1cca3:	208c 4990 1f00 1515 55f5 5f55 0000 4468     . .I.....UU_..hD
   1ccb3:	e444 4044 2844 4292 4322 f414 5008 0020     D.D@D(.B"C...P .
   1ccc3:	8a88 88ae 8088 4990 0000 aafa faab abaa     .......I........
   1ccd3:	00fa 022c 8024 000e 4990 ff00 9790 94fc     ..,.$....I......
   1cce3:	9097 00ff 0e2c aa2a e0a2 4990 0f00 aaea     ....,.*....I....
   1ccf3:	aabf 0fea 0000 082c ea88 60aa 4990 1240     ......,....`.I@.
   1cd03:	4a2a 8a8f 2a4a 0010 2a68 e262 206a 4990     *J..J*..h*b.j .I
   1cd13:	ff00 ff92 fc84 fc84 0000 2c68 222e e022     ..........h,."".
   1cd23:	4990 4904 4971 49c7 4971 0045 002c e000     .I.IqI.IqIE.,...
   1cd33:	0000 4990 4b00 5a6a 4aca 6a5a 004b 0e2c     ...I.KjZ.JZjK.,.
   1cd43:	2222 e022 4990 0000 4a62 cb4a 4a4a 0062     """..I..bJJ.JJb.
   1cd53:	002c 2e48 4008 4990 3000 2a2f 6aaa 2e2a     ,.H..@.I.0/*.j*.
   1cd63:	0030 002c aaea e0aa 4990 0800 a9aa afa8     0.,......I......
   1cd73:	f9a8 000a 022c 2e40 2004 4990 2000 02db     ....,.@.. .I. ..
   1cd83:	db22 2202 00db 002c aeea e0aa 003c 20ff     ".."..,.....<.. 
   1cd93:	80ff a2aa a2ff 00aa e000 6ae2 602a 003e     ...........j*`>.
   1cda3:	20ff 5a12 f356 5a56 0012 e000 8e88 8088     . .ZV.VZ........
   1cdb3:	003e 10ff 2424 00ff 24ff 0024 e000 e088     >...$$...$$.....
   1cdc3:	80e8 003e 20ff 509f f417 5017 009f e000     ..>.. .P...P....
   1cdd3:	c4e0 e0c2 003e 20ff 94ff 9cb7 94b4 00ff     ....>.. ........
   1cde3:	e000 88e0 e0a2 007e 00ff b228 faa2 b2a3     ......~...(.....
   1cdf3:	0028 e000 ae88 8088 003e 20ff 94ff 9cb7     (.......>.. ....
   1ce03:	94b4 00ff e000 88e0 e082 003e 10ff c824     ..........>...$.
   1ce13:	4974 4270 007e e000 e260 6060 0038 20ff     tIpB~...`.``8.. 
   1ce23:	7440 d554 7456 0040 e000 ae88 8088 003c     @tT.Vt@.......<.
   1ce33:	10ff aa3e 3f6a aa6a 003e e000 8e88 8088     ..>.j?j.>.......
   1ce43:	5464 5051 c067 5077 5451 0064 24aa e280     dTQPg.wPQTd..$..
   1ce53:	e02a 5f90 0100 ff41 5555 ff55 0041 402e     *.._..A.UUU.A..@
   1ce63:	a2e6 20a6 5f90 0000 595f ff55 5955 005f     ... ._.._YU.UY_.
   1ce73:	402e 8e24 2084 bf80 aba8 aaae aaab bbae     .@$.. ..........
   1ce83:	0080 0e68 aaaa 60aa 9ad6 92b7 c092 253f     ..h....`......?%
   1ce93:	25fc 0036 e844 8286 20c4 5f90 0000 203f     .%6.D.... ._..? 
   1cea3:	fe2b a2aa 0036 422e eac8 a0aa a422 326f     +...6..B....".o2
   1ceb3:	4005 0929 29f9 004f e000 2200 e022 cf42     .@)..)O...."".B.
   1cec3:	0a74 2310 9252 2352 0010 000e 220e 002e     t..#R.R#....."..
   1ced3:	a422 326f 7f05 5554 7d54 0002 e000 240e     ".o2..TUT}.....$
   1cee3:	2084 5f90 0100 aaf9 abae aaaa 00fb 402e     . ._...........@
   1cef3:	a2e2 e082 5f90 0000 aaea 0aeb aaea 00ea     ....._..........
   1cf03:	402e 8a08 00ae 5f90 0000 2517 9057 2053     .@....._...%W.S 
   1cf13:	0017 402e e0e4 e082 5f90 0200 7544 7d57     ...@....._..DuW}
   1cf23:	b595 00c4 482e a482 204a 5f90 0000 6a39     .....H..J ._..9j
   1cf33:	b9ad eaac 0039 402e 4204 00a2 5f90 0000     ....9..@.B..._..
   1cf43:	6a4b ca5a 6a5a 004b 402e aaea e0aa 5f90     KjZ.ZjK..@....._
   1cf53:	0000 694d cf59 6959 004d 402e 0ec0 c004     ..MiY.YiM..@....
   1cf63:	5f90 0000 557f 55d7 5557 0077 422e e0c0     ._...U.UWUw..B..
   1cf73:	e0e2 4f88 0a00 ea29 baaf 0ac9 0000 2a2c     ...O..).......,*
   1cf83:	a22a 202a ff00 afa0 aaea 00ef 88ff 00f7     *.* ............
   1cf93:	0e68 e0aa 80e8 88ff 00f7 abfa faaa aaab     h...............
   1cfa3:	00fa 80e8 222e a084 c939 4b4d ff49 4b49     ....."..9.MKI.IK
   1cfb3:	c94d 0039 4422 040e 2042 88ff 00f7 527e     M.9."D..B ....~R
   1cfc3:	d352 5252 007e 80e8 aeaa a0aa 88ff 00f7     R.RR~...........
   1cfd3:	577c 7fd4 5655 007d 82e8 0e48 e0aa fd22     |W..UV}...H...".
   1cfe3:	3f20 5704 ff55 5755 0004 8624 000e 002e      ?.WU.UW..$.....
   1cff3:	f927 3c23 5504 fe55 5455 0004 8e24 e282     '.#<.UU.UT..$...
   1d003:	a084 f927 3c23 5550 ff54 7d55 0050 8e24     ..'.#<PUT.U}P.$.
   1d013:	4e48 2022 fe20 3e21 fb00 aaaa aaaa 00fb     HN"  .!>........
   1d023:	8606 aa0e e0aa e13e 003e 557c 7cd6 5455     ......>.>.|U.|UT
   1d033:	007c 6068 8888 80e8 f927 7c23 be20 3f6a     |.h`....'.#| .j?
   1d043:	be6a 0000 8624 8e88 8088 7740 52ca 076b     j...$.....@w.Rk.
   1d053:	6a46 6b52 0004 0a0e a444 000e 524a 4ae2     FjRk....D...JR.J
   1d063:	067b 4b7a 4a4a 007a ae44 0822 204a a9a9     {.zKJJz.D.".J ..
   1d073:	8591 03fd a9a9 8591 00fd a622 2622 20a2     .........."."&. 
   1d083:	3f00 aaaa bfea eaaa 3faa 0000 e224 22a6     .?.......?..$.."
   1d093:	2064 5d33 2597 0835 e110 212e 0030 8424     d 3].%5....!0.$.
   1d0a3:	4822 6008 da36 6212 5414 f359 5559 0014     "H.`6..b.TY.YU..
   1d0b3:	8844 a42a 204a 84bc fc85 4107 55ff ff55     D.*.J .....A.UU.
   1d0c3:	0041 2288 40c2 2004 da36 6212 4d04 e555     A..".@. 6..b.MU.
   1d0d3:	4f54 0004 8844 4c0c 002e da36 6012 2424     TO..D..L..6..`$$
   1d0e3:	00ff 24ff 0024 8044 e088 80e8 da36 6212     ...$$.D.....6..b
   1d0f3:	509f f417 5017 009f 8844 88e0 e0a2 84bc     .P...P..D.......
   1d103:	07fd fd01 ffa5 fda5 0001 2c8a 8e24 2084     ...........,$.. 
   1d113:	da36 6212 fb00 a8a9 f9ab 0002 8844 400e     6..b........D..@
   1d123:	60c2 84bc fc85 2007 a57f 257f 0025 2288     .`..... ...%%.."
   1d133:	e2c0 20e2 da36 6012 6a4c 6a5b ab9a 004c     ... 6..`Lj[j..L.
   1d143:	8844 a422 20a2 da36 6012 d522 7549 fa03     D.".. 6..`".Iu..
   1d153:	0022 8844 220e 00e0 da36 2012 6c8a ea3b     ".D.."..6.. .l;.
   1d163:	6f2a 008a 8844 c200 60aa da36 2212 5f60     *o..D....`6.."`_
   1d173:	d555 5d55 0060 8844 220e 002e 84bc fc85     U.U]`.D.."......
   1d183:	2a07 b86c 4d29 006a 2288 aac0 4024 da36     .*l.)Mj.."..$@6.
   1d193:	0012 5223 53aa 52aa 008b 8044 aeea e0aa     ..#R.S.R..D.....
   1d1a3:	2a2a 4aff 2310 8a4a 234a 0010 e848 220e     **.J.#J.J#..H.."
   1d1b3:	002e 4444 447f 5605 f75d 565d 0005 e422     ..DD.D.V].]V..".
   1d1c3:	4e04 0044 aba8 a9f9 00a9 a9ab aaf9 00aa     .ND.............
   1d1d3:	222e e220 e022 aaab aafa 03aa aaaa aafa     ." ."...........
   1d1e3:	00ab aaea aaaa a0aa 8888 88ff ff41 5555     ............A.UU
   1d1f3:	ff55 0041 c844 40a2 2042 ff88 0088 e94f     U.A.D..@B ....O.
   1d203:	5f49 e949 004f 402e 4822 2042 8888 88ff     I_I.O..@"HB ....
   1d213:	4d44 e555 4f54 0044 8844 4c0c 002e ff88     DMU.TOD.D..L....
   1d223:	0088 283f aafe a6aa 00b0 824c c0c2 60e2     ..?(......L....`
   1d233:	7f44 4444 fb00 a8a9 f9ab 0002 884c 222e     D.DD........L.."
   1d243:	60c2 5557 55fd 4457 81fe 808e 00fe 44e4     .`WU.UWD.......D
   1d253:	48e2 60e2 4444 447f 6b08 e710 6b10 0008     .H.`DD.D.k...k..
   1d263:	c844 48a2 2042 8888 88ff 5564 d754 5554     D..HB ....dUT.TU
   1d273:	0064 c844 2e48 4008 7f44 0044 5f60 d555     d.D.H..@D.D.`_U.
   1d283:	5d55 0060 804c 220e 002e 7f44 0144 5d62     U]`.L.."..D.D.b]
   1d293:	cf49 484f 006f 884c 8024 60e2 7f44 0044     I.OHo.L.$..`D.D.
   1d2a3:	92ca 8fe3 92f3 00d2 804c 0e48 4008 4444     ........L.H..@DD
   1d2b3:	447f ff00 9594 959f 00f5 8844 0e68 e022     .D........D.h.".
   1d2c3:	5d14 5df7 0715 5d15 58f5 0014 4444 444e     .].]...].X..DDND
   1d2d3:	4044 2b28 baae abaa aeba 282b 0018 aa0e     D@(+......+(....
   1d2e3:	aaae 60e2 ff22 0024 ff2a 4554 4278 007e     ...`".$.*.TExB~.
   1d2f3:	002e c8aa a0ca ff10 4010 42fe 4bfa fa4a     .........@.B.KJ.
   1d303:	0042 804c 8eac a08c ff22 0024 e545 5349     B.L.....".$.E.IS
   1d313:	e549 0045 002e 0e24 2004 ff22 0024 6f50     I.E...$.. ".$.Po
   1d323:	fa4a 6f4a 0050 002e aa2a 20aa ff22 0024     J.JoP...*.. ".$.
   1d333:	82ff aefb fbaa 0082 002e 6ae2 20a6 ff10     ...........j. ..
   1d343:	0010 aabe a3f2 aaf2 00be 804c aeaa a0aa     ..........L.....
   1d353:	484b 49ff 0049 94ff ff94 0000 e2e4 aa2a     KH.II.........*.
   1d363:	a0aa ff22 1024 95ff 9595 ff95 0010 042e     ..".$...........
   1d373:	44c4 804e 2525 25fd 0025 a0bf a0e7 00bf     .DN.%%.%%.......
   1d383:	22e2 24e0 2084 ff10 0010 94f4 9df7 95f5     .".$. ..........
   1d393:	00f5 804c 002c e022 ff22 0024 4fe9 0049     ..L.,.".".$..OI.
   1d3a3:	5fe0 0060 002e 200e 6068 5252 fb56 5e52     ._`.... h`RRV.R^
   1d3b3:	5732 129a 0016 aa2a a2ae 20aa ff22 1724     2W....*.... ".$.
   1d3c3:	d5a6 9197 2156 0016 0e2e e884 6068 fb88     ....V!......h`..
   1d3d3:	9692 f70a 92a2 08f3 0018 aa2a aaae 20a4     ..........*.... 
   1d3e3:	fb58 0252 f75a 424a 0b7a 0018 aa2a aaae     X.R.Z.JBz...*...
   1d3f3:	20ca ff08 5008 7a4b 7aca 504e 0008 804c     . ...PKz.zNP..L.
   1d403:	aa88 00ac ff22 0024 9aff 9297 9792 00fa     ....".$.........
   1d413:	062e c88a 808e ff22 0024 a951 0fc9 a9c9     ......".$.Q.....
   1d423:	0051 002e 4822 2042 ff22 0924 aa69 abad     Q..."HB ".$.i...
   1d433:	cab9 000c 042e 2c4a 4008 ff80 9292 88ff     ......J,.@......
   1d443:	4949 897f 0009 484c e2e0 e022 4a42 5fea     II....LH..".BJ._
   1d453:	4a4a 4542 5fe4 0044 ae2a 28aa 002e 5151     JJBE._D.*..(..QQ
   1d463:	55ff 5555 5555 51ff 0051 260e a6a2 6022     .UUUUU.QQ..&.."`
   1d473:	f547 f55f 4047 407f 407f 0040 e444 8046     G._.G@.@.@@.D.F.
   1d483:	60e2 f547 f55f 8047 8aff c8b9 000f e444     .`G._.G.......D.
   1d493:	8246 6048 5f40 55f5 5557 5f54 53f0 0074     F.H`@_.UWUT_.St.
   1d4a3:	2a68 244a 60c2 5f44 55f5 5555 5555 5ff5     h*J$.`D_.UUUUU._
   1d4b3:	0044 444c 4444 804e 5f40 55f5 5f55 5555     D.LDDDN.@_.UU_UU
   1d4c3:	5ff5 0040 0e24 622a 6060 5e42 52f3 425e     ._@.$.*b``B^.R^B
   1d4d3:	525e 5ef2 0042 8800 aa88 00ae 4742 40e8     ^R.^B.......BG.@
   1d4e3:	4a4e 4b4a 4aea 004e 080e 8eac a08c 594f     NJJK.JN.......OY
   1d4f3:	4fe9 5f40 5e52 5ef2 0040 2ee2 220e e022     .O@_R^.^@...."".
   1d503:	4a4b 4aee 5a4a 4a4a 4aee 004b 8880 88ae     KJ.JJZJJ.JK.....
   1d513:	8080 5545 59f5 7d53 5951 55f5 0045 2a22     ..EU.YS}QY.UE."*
   1d523:	4a44 2022 484c 4aeb 5a4a 4a4a 48eb 004c     DJ" LH.JJZJJ.HL.
   1d533:	ea22 aaaa 20e2 555f 55f5 005f ff10 9110     ".... _U.U_.....
   1d543:	0052 f444 2440 c086 555f 55f5 405d 5555     R.D.@$.._U.U]@UU
   1d553:	5df5 0040 44e4 a442 204a ff26 1224 5653     .]@..DB.J &.$.SV
   1d563:	5af6 3b52 0050 000e aaea 00ae 5149 55fa     .ZR;P.......IQ.U
   1d573:	0549 554d 51fa 0049 2402 2c82 0000 2c23     I.MU.QI..$.,..#,
   1d583:	24ff 5512 f752 5450 0018 e000 c8aa a0ca     .$.UR.PT........
   1d593:	2621 24ff 1f20 f515 5555 005f e000 4e44     !&.$ ...UU_...DN
   1d5a3:	4044 2c23 22ff 92f1 94fd 97f4 00f0 e000     D@#,."..........
   1d5b3:	a422 0080 2c23 22ff 5f14 7f54 9f94 0014     "...#,."._T.....
   1d5c3:	e000 aeaa a0aa 580c 5a6b fb4a 5a4a 586b     .......XkZJ.JZkX
   1d5d3:	000c a202 4448 0022 2621 24ff 5e40 d352     ....HD".!&.$@^R.
   1d5e3:	5e52 0040 e000 2e2c 200c 2c23 24ff 4022     R^@...,.. #,.$"@
   1d5f3:	d474 7655 0040 e000 8a08 80e8 ff26 0024     t.Uv@.......&.$.
   1d603:	a027 207f a07f 0027 000e e222 20e2 2c23     '.. ..'...".. #,
   1d613:	24ff 5513 ff54 7d54 0012 e000 ae24 2084     .$.UT.T}....$.. 
   1d623:	2c23 22ff fe01 9595 959f 00f5 e400 e280     #,."............
   1d633:	e022 5458 f554 5957 7e00 4ad2 007b ae88     ".XTT.WY.~.J{...
   1d643:	8800 c0a2 b880 aaaf aafa aafa b8af 0080     ................
   1d653:	8888 888e 8088 a6bf a6f8 00bf 1213 12fe     ................
   1d663:	0013 aaea e2e0 e022 a4bf a4f8 08bf e030     ......".......0.
   1d673:	253f 0025 aaea 00e0 00e0 a2bf a4fc 00bf     ?%%.............
   1d683:	4177 42c1 0070 aaea c2e0 6022 a2bf 80bf     wA.Bp....."`....
   1d693:	a2bf 427f 4ad2 007b e0e0 e8e0 c0a2 ff00     ...B.J{.........
   1d6a3:	9fb1 97b1 b088 9097 009c 2c68 2c00 200c     ..........h,.,. 
   1d6b3:	fc83 9f92 be00 3f6a be6a 0000 c002 8e88     ......j?j.......
   1d6c3:	8088 fc83 9f92 8f09 dfb0 898a 008e c002     ................
   1d6d3:	6a22 a0a2 a1b9 b5b5 fba1 b5a1 a1b5 00b9     "j..............
   1d6e3:	a422 4444 20a2 a238 aaaa f6a3 aaa2 a2aa     ".DD. 8.........
   1d6f3:	0038 2422 aa88 00e0 e45c 454f fb00 a9a9     8."$....\.OE....
   1d703:	a9ab 00f9 e088 240e 60e2 e45c 454f 8aff     .......$.`\.OE..
   1d713:	9eab 8aaa 00ff e088 88e0 e0a2 7555 7fd5     ............Uu..
   1d723:	0355 517d 9f91 0011 4822 080e 2042 e45c     U.}Q...."H..B \.
   1d733:	454f 92aa 82eb 92ab 00eb e088 a0a4 a0a4     OE..............
   1d743:	744c 5fc4 6045 629b 629b 009b 8e88 ea00     Lt._E`.b.b......
   1d753:	e0ea 5555 fd57 0301 ff01 5555 0055 a422     ..UUW.....UUU.".
   1d763:	4444 20a2 92ff ff92 4f20 fa0a 4f0a 0020     DD. .... O...O .
   1d773:	2ee2 8a0e 00ae 92ff ff92 2110 8a48 2049     ...........!H.I 
   1d783:	0013 2ee2 a222 a026 497f 007f aa26 3f6b     ....".&..I..&.k?
   1d793:	aa6a 003b e4e2 0e48 c004 92ff ff92 6824     j.;...H.......$h
   1d7a3:	21b3 653d 002c 2ee2 a42a 204a ef08 aaaa     .!=e,...*.J ....
   1d7b3:	08ef 10ff 5691 0010 484c 48ea 6042 407f     .....V..LH.HB`.@
   1d7c3:	007f fd41 f745 f555 0045 8088 8e24 2084     ..A.E.U.E...$.. 
   1d7d3:	407f 007f ea44 5252 ea52 0044 8088 aaea     .@..D.RRR.D.....
   1d7e3:	e0aa 407f 007f 525f f356 5256 005f c0c4     ...@.._RV.VR_...
   1d7f3:	8ee8 e08a 407f 007f 80ff aabe aabf 00be     .....@..........
   1d803:	8688 aa82 a0ea 407f 007f 524a cf62 5262     .......@..JRb.bR
   1d813:	004a 8088 aeaa a0aa 0101 aefb aaab afa8     J...............
   1d823:	faaa 0002 ea00 aaaa 80ae 407f 007f 4afb     ...........@...J
   1d833:	065a 4afa 005b 8088 aaea e0aa 90f7 f29f     Z..J[...........
   1d843:	4402 784f 4f48 0040 c4e2 e240 002e 90f3     .DOxHO@...@.....
   1d853:	f29f 3f0a 13d4 ff10 0010 c4e2 004e 002e     ...?........N...
   1d863:	90f7 f29f 750c 5f44 8544 0084 e2e2 2ea0     .....uD_D.......
   1d873:	8000 90f3 f29f ff04 ff84 ff84 0004 e4e2     ................
   1d883:	0e0e 000e 88f9 fa8f 3802 e127 2221 0038     .........8'.!"8.
   1d893:	c4e2 c240 e022 90f3 f29f ff20 7f20 4040     ..@."..... . .@@
   1d8a3:	007f e4e2 2e2c c044 90f3 f29f 0902 c939     ....,.D.......9.
   1d8b3:	3109 0019 e4e2 224e e022 223e 22ff 003e     .1....N"".>".">.
   1d8c3:	222a 22ff 002a e422 2ce0 200c 223e 22ff     *"."*."..,. >"."
   1d8d3:	4a3e ea4b 6a53 005a e422 c0e2 60e2 223e     >JK.SjZ."....`>"
   1d8e3:	22ff 003e 9989 91ef 0089 e422 22e0 20e2     .">......."..". 
   1d8f3:	223e 22ff 007f 48ff 487f 004f e422 c062     >"."...H.HO.".b.
   1d903:	80e8 223e 22ff 223f 22ff 22ff 003f e422     ..>"."?"."."?.".
   1d913:	e2e2 e0e2 223e 22ff 003e 91ff 809f 00ff     ....>".">.......
   1d923:	e422 e2e0 e022 223e 22ff 003e 4949 897f     "...".>".">.II..
   1d933:	0089 e422 e2e0 e022 223e 22ff 403e 5562     .."...".>".">@bU
   1d943:	75c8 0042 e422 48e2 000e 223e 22ff 003e     .uB."..H..>".">.
   1d953:	5b44 5bc0 0044 e422 24e0 2084 223e 22ff     D[.[D."..$. >"."
   1d963:	003e 64a4 643f 00a4 e422 88e8 80e8 407f     >..d?d.."......@
   1d973:	007f fa03 feab faab 0003 8088 88e8 e0c2     ................
   1d983:	407f 007f aff8 faaa afaa 00f8 8088 880e     .@..............
   1d993:	00ae 407f 007f 7f53 0092 00ff 0038 c0c4     ...@..S.....8...
   1d9a3:	2c0e 200c 407f 007f ab7a fa0a ab0a 00fa     .,. .@..z.......
   1d9b3:	8088 a422 20a2 407f 007f 6f48 ca5a 6f5a     ..".. .@..HoZ.Zo
   1d9c3:	0048 8088 880e 00ae 407f 007f d744 7d55     H........@..D.U}
   1d9d3:	d555 0045 c4c4 2282 20e2 407f 007f 73aa     U.E....". .@...s
   1d9e3:	fa26 7322 00aa 8288 44a4 20a2 407f 007f     &."s.....D. .@..
   1d9f3:	eb44 0452 f24b 0044 8688 6aa4 6024 407f     D.R.K.D....j$`.@
   1da03:	007f 5b6a d575 5b55 0062 c0c4 220e 002e     ..j[u.U[b...."..
   1da13:	407f 007f aaff abae acaa 00ea 8688 ae8a     .@..............
   1da23:	20aa 407f 007f f515 5d5a 7257 0014 c0c4     . .@....Z]Wr....
   1da33:	a244 40c8 007f 00ff 007f e94d e94b 004d     D..@......M.K.M.
   1da43:	c4c4 24c0 20e4 003f 00ff 503f fa6f 6f4a     ...$. ?...?Po.Jo
   1da53:	0050 8888 aa82 20aa 6f00 2a2a ea2b 3f2a     P...... .o**+.*?
   1da63:	7b28 0008 ac68 a2ac c0c2 4f88 d700 5754     ({..h......O..TW
   1da73:	57dc d754 0000 2a2c 2a2a 202a aae8 eaaa     .WT...,**** ....
   1da83:	aaaa eaaa aaaa 00e8 aa0e aaaa 00ae 003f     ..............?.
   1da93:	00ff aafb aaff faaa 0003 8888 c8e4 e0c2     ................
   1daa3:	3e60 2a2a fe2a 2a2a 3e2a 0060 0e68 622a     `>***.***>`.h.*b
   1dab3:	6068 5fc0 5555 ff55 5555 5f55 00c0 2422     h`._UUU.UUU_.."$
   1dac3:	ea80 606a 6704 2d2d e735 2b30 6728 0004     ..j`.g--5.0+(g..
   1dad3:	440e 0c4e 002e 007f 00ff 007f d754 d57d     .DN.........T.}.
   1dae3:	0054 c4c4 a2c0 20e2 007f 00ff 007f 27aa     T...... .......'
   1daf3:	23fa 00aa c4c4 a4c2 204a 007f 00ff 007f     .#......J ......
   1db03:	73ac 732c 00a4 c4c4 e2c0 60c2 203f 20ff     .s,s.......`? . 
   1db13:	aaff aaae acab 00ea e280 aac0 a0ea 007f     ................
   1db23:	00ff a0ff eaaf aaaa 00ef c6c4 eac0 e0aa     ................
   1db33:	80fe 809f 00fe 10cb 51e7 008a 042c 2420     .........Q..,. $
   1db43:	2084 cf29 4949 a500 e5bd bda5 0085 220e     . ).II........."
   1db53:	220e e022 cf29 0049 4d54 ff44 4d44 0054     ."".).I.TMD.DMT.
   1db63:	200e 0e68 6008 cf29 0049 01f1 03f9 91e9     . h..`).I.......
   1db73:	00e9 200e 2e22 2022 cf29 4949 f500 9795     ... "." ).II....
   1db83:	9595 00f5 220e 2e02 2022 cf29 0049 92fe     .....".." ).I...
   1db93:	ff92 9292 00fe 200e aeaa a0aa cf29 4949     ....... ....).II
   1dba3:	1500 25e5 25fd 0025 220e 220e e022 cf29     ...%.%%.."."".).
   1dbb3:	4949 4900 8a7f 49ff 002a 220e e402 e084     II.I...I*.."....
   1dbc3:	cf29 0049 710c ff09 7109 000c 200e 2e22     ).I..q...q... ".
   1dbd3:	2022 cf29 0049 409f 921f 809f 00ff 200e     " ).I..@....... 
   1dbe3:	c4e0 e0c2 cf29 0049 aa2e 3f6a aa6a 003b     ....).I...j?j.;.
   1dbf3:	200e 8e44 c004 cf29 4949 7f00 d252 5253     . D...).II..R.SR
   1dc03:	007e 220e 200e a0a4 cf29 0049 a8ff aaab     ~..". ..).I.....
   1dc13:	a8ab 00ef 200e 88e0 e082 cf29 0049 88ff     ..... ....).I...
   1dc23:	00f7 a1bf 00ff 200e 80e8 e022 da20 fa52     ....... ..". .R.
   1dc33:	5f52 7202 0a02 00f8 8a88 88ae 8088 e414     R_.r............
   1dc43:	243f 710c ff09 7109 000c 082c 2e62 2022     ?$.q...q..,.b." 
   1dc53:	d520 5555 555f 5555 405f 0000 e400 e044      .UU_UUU_@....D.
   1dc63:	c0c2 5151 5251 a87a a9a9 2aa9 001a ea44     ..QQQRz....*..D.
   1dc73:	44a0 a0ea ff49 4a92 6f59 ffaa faaa 0022     .D..I..JYo....".
   1dc83:	2a0c aa22 e0aa 2272 24ff 5b15 ff55 5151     .*"...r".$.[U.QQ
   1dc93:	0019 e000 4822 2042 2272 24ff 4b4a e352     ...."HB r".$JKR.
   1dca3:	4b52 004a e000 4c0c 002e 1179 12ff ff00     RKJ....L..y.....
   1dcb3:	aaaa ffaa 0000 e000 c8aa a0ca e514 fd25     ..............%.
   1dcc3:	2525 7e04 4ad2 007b 220e 882e c0a2 1179     %%.~.J{.."....y.
   1dcd3:	12ff 774d ff55 7d55 0011 e200 4c48 2022     ..MwU.U}....HL" 
   1dce3:	5651 927f 2291 f824 a22e 0066 e080 e280     QV..."$...f.....
   1dcf3:	e0e2 a525 b2aa fda4 b2a4 a5aa 0025 8822     ..%.........%.".
   1dd03:	082e 2082 5651 94ff 6113 6949 cd9b 00a9     ... QV...aIi....
   1dd13:	e080 2200 00e0 5651 92ff 7f11 d754 7d54     ..."..QV....T.T}
   1dd23:	0002 e080 442e 2084 df20 6a49 204a 45de     .....D.  .IjJ .E
   1dd33:	4965 0043 4444 444e 4044 cb29 496d 2b40     eIC.DDNDD@).mI@+
   1dd43:	4fc8 4a6a 0052 4a2a aa2a a0aa c222 7654     .OjJR.*J*...".Tv
   1dd53:	335a 46ca 5264 0042 aa2a aaae 20aa 3f08     Z3.FdRB.*.... .?
   1dd63:	00c0 5655 f75c 5654 0055 000e 4e2a 204a     ..UV\.TVU...*NJ 
   1dd73:	3f08 00c0 a5bd a7fd a5fd 00bd 000e 8e24     .?............$.
   1dd83:	2084 7c00 9755 0595 5555 7d55 0000 0424     . .|U...UUU}..$.
   1dd93:	2424 002e ff00 f714 5b15 ff55 5151 0019     $$.......[U.QQ..
   1dda3:	0e68 4822 2042 3f08 00c0 6fb0 e929 6f29     h."HB .?...o).)o
   1ddb3:	00b0 000e 8024 60e2 3f08 00c0 5f60 d454     ....$..`.?..`_T.
   1ddc3:	5754 0060 000e 88ac a08c 4f88 0200 527e     TW`........O..~R
   1ddd3:	52d3 7e52 0002 2a2c eaaa a0aa 3f08 5ec0     .RR~..,*.....?.^
   1dde3:	7e41 ff20 ff49 0049 060e 0e86 202e 4f88     A~ .I.I...... .O
   1ddf3:	ff00 afa0 faaa aaaa 00af 2a2c aa2a a0aa     ..........,**...
   1de03:	c721 0418 557d 57d5 5555 007d 020e 2e22     !...}U.WUU}...".
   1de13:	2022 5555 2ba9 b585 e9a5 b5a5 0085 2a22     " UU.+........"*
   1de23:	4a44 2022 3424 525b 9f92 5292 345b 0024     DJ" $4[R...R[4$.
   1de33:	ea00 aaae 00e0 a5a4 a54f 2400 2427 20ff     ........O..$'$. 
   1de43:	0060 e048 c804 c0c2 2a13 4aca 102b a0bf     `.H......*.J+...
   1de53:	a0e7 00bf 22e2 24e0 2084 7b42 aa6a a8ab     .....".$. B{j...
   1de63:	abaa 7a6a 0043 4aa2 a2e0 e04a 8b28 8aff     ..jzC..J..J.(...
   1de73:	0029 223f 22ff 003f e080 e200 e0e2 8944     ).?"."?.......D.
   1de83:	1131 4489 7e00 4ad2 007b 220e 88e0 c0a2     1..D.~.J{.."....
   1de93:	5659 5272 7053 5253 97b2 009a a40a c484     YVrRSpSR........
   1dea3:	404e 4555 956a 8823 e293 8a82 00fb a244     N@UEj.#.......D.
   1deb3:	e2c0 e022 ff00 ff92 5744 fd55 5755 0044     ..".....DWU.UWD.
   1dec3:	2e68 440e 004e ff00 ff92 5f48 df6a 6f4a     h..DN.....H_j.Jo
   1ded3:	0050 2e68 8e08 60aa 92ff 00ff 4949 00ff     P.h....`....II..
   1dee3:	49ff 0049 e0e0 c002 00e0 92ff 00ff 527f     .II............R
   1def3:	52ff 52ff 007f e8e0 88ac a08c ff00 ff92     .R.R............
   1df03:	7e00 ff92 5202 007e 2e2c 8024 2084 92ff     .~...R~.,.$.. ..
   1df13:	00ff 447f d24f 5f49 0048 e0e0 e0e0 002e     ...DO.I_H.......
   1df23:	ff00 ff92 2b20 6fa8 2929 0030 2e68 4e48     .... +.o))0.h.HN
   1df33:	2022 92ff 00ff 734c 5500 55ff 007d e0e0     " ....Ls.U.U}...
   1df43:	22ac 20a2 d53f 755f 101f 10ff 509f 0010     .". ?._u.....P..
   1df53:	4422 8024 e0c2 d53f 755f 001f 212f 21ff     "D$...?._u../!.!
   1df63:	002f 2422 0040 60e2 d53f 755f 201f bf20     /."$@..`?._u.  .
   1df73:	2464 0027 2422 c042 c022 2af2 4f2b 0219     d$'."$B."..*+O..
   1df83:	a0bf a0e7 00bf 2e48 240c 2084 44a2 00bf     ......H..$. .D..
   1df93:	fe23 0023 92ff 00ff c042 e2e2 e0c2 44a2     #.#.....B......D
   1dfa3:	00bf 6a5f fa4a 6a4a 005f c042 aaaa a0aa     .._jJ.Jj_.B.....
   1dfb3:	44a2 00bf abfa faaa aaab 00fa c042 402e     .D..........B..@
   1dfc3:	a084 b1ff 918e ffa0 ff02 ffaa 0002 00e8     ................
   1dfd3:	a28c e022 d53f 755f 101f d623 525b 0043     ..".?._u..#.[RC.
   1dfe3:	c2e0 24e8 e082 955f b59f 00df 407f 407f     ...$.._......@.@
   1dff3:	00ff 02e0 e0e0 e0c0 44a2 00bf 9591 bf95     .........D......
   1e003:	91d1 0099 c042 0e2c 200c 28f3 492f 001a     ....B.,.. .(/I..
   1e013:	a0bf a0e7 00bf 8424 2420 2084 f408 3e23     ......$. $. ..#>
   1e023:	2f10 9a4a 2f4a 0010 8024 a80e 20ca 4fe0     ./J.J/..$.... .O
   1e033:	0060 6a5f fa4a 6a4a 005f 200e aaaa a0aa     `._jJ.Jj_.. ....
   1e043:	4fe0 0060 ab7a fe0a ab0a 00fa 200e a422     .O`.z........ ".
   1e053:	20a2 5454 547e d245 725d 5e50 0042 ae44     . TT~TE.]rP^B.D.
   1e063:	2a20 204a 5740 7564 ce45 7545 5764 0040      *J @WduE.EudW@.
   1e073:	040e 4448 002e 4f40 5555 c155 5555 5f55     ..HD..@OUUU.UUU_
   1e083:	0040 4622 84a2 2042 7f12 4a40 4a4a 4bde     @."F..B ..@JJJ.K
   1e093:	4a4a 0040 2c68 220e 4068 7f12 5640 7d55     JJ@.h,."h@..@VU}
   1e0a3:	55d7 557d 0056 0268 8224 002c 7f12 5541     .U}UV.h.$.,...AU
   1e0b3:	df55 5555 5157 0041 0e68 2222 002e 7f12     U.UUWQA.h.""....
   1e0c3:	5240 5452 50df 5254 0040 0e68 aaaa 00ae     @RRT.PTR@.h.....
   1e0d3:	7f09 4442 4658 42df 5844 0046 2a68 eaaa     ..BDXF.BDXF.h*..
   1e0e3:	20aa 7f12 6f40 c554 555f 5f54 0040 0e68     . ..@oT._UT_@.h.
   1e0f3:	c080 00ae 7f12 6548 4450 41d9 507e 004d     ......HePD.A~PM.
   1e103:	6868 2422 0048 7f00 5540 d755 557d 5f55     hh"$H...@UU.}UU_
   1e113:	0044 2a68 8424 202a e02f 002f 5e40 ff52     D.h*$.* /./.@^R.
   1e123:	5e52 0040 c4a2 8e24 2084 3d25 3de5 8025     R^@...$.. %=.=%.
   1e133:	94ff 9f92 0000 22e2 e4e2 204e 5658 7454     ......."..N XVTt
   1e143:	df54 7454 5654 0058 aa0e aaaa 00ae b528     T.TtTVX.......(.
   1e153:	2462 0029 a0bf a0e7 00bf 48a2 2442 2084     b$)........HB$. 
   1e163:	4b9f 8a3f ff89 7e00 4ad2 007b c0e0 082e     .K?....~.J{.....
   1e173:	c0a2 409f 9417 bf96 9496 8097 00ff ace0     ...@............
   1e183:	8c8e e0a2 409f fe00 abaa abaa 80fe 00ff     .....@..........
   1e193:	aae0 cac8 e0a2 409f aa34 83b2 aab2 8094     .......@4.......
   1e1a3:	00ff aae0 cac8 e082 0b68 49ff 909f 90ff     ........h..I....
   1e1b3:	91ff 009f e0c0 22ea e022 4f88 2f00 7eaa     .......""..O./.~
   1e1c3:	2828 aa7e 002f 2e2c aa2a e0a2 5642 ca6a     ((~./.,.*...BVj.
   1e1d3:	4256 ea57 544a 0042 8a88 88ae 8088 003c     VBW.JTB.......<.
   1e1e3:	10ff 1f20 f515 5f55 0000 082c 4e64 4044     .. ...U_..,.dND@
   1e1f3:	0078 20ff abf8 a8a9 a9ab 00fa 0c2c 202e     x.. ........,.. 
   1e203:	60e2 0078 20ff 7b48 ca4a 7b4a 0048 0c2c     .`x.. H{J.J{H.,.
   1e213:	220e 002e 2405 08cb e011 2811 04cb 0005     ."...$.....(....
   1e223:	8ca4 a420 208c aa26 3f6a bb6a 7e00 4ad2     .. .. &.j?j..~.J
   1e233:	007b 8e44 084c c0a2 4990 4704 57fc 5454     {.D.L....I.G.WTT
   1e243:	fc57 0045 0e2c 22a2 a0aa 4990 4000 45fd     W.E.,.."...I.@.E
   1e253:	57f5 f555 0045 002c 0e2c 200c 4990 bd00     .WU.E.,.,.. .I..
   1e263:	fda5 a5a7 a5fd 00bc 222c e222 2022 4990     ........,""." .I
   1e273:	9f00 9f90 95f5 909f 009f 0e2c 222e e0e2     ..........,.."..
   1e283:	4990 0200 aafa aaab faaa 0002 022c cac4     .I..........,...
   1e293:	20aa 4990 f800 aaaf aafa afaa 00f8 002c     . .I..........,.
   1e2a3:	88e8 00ae 8910 0040 2aeb ee2b 2a2b 00eb     ......@..*+.+*..
   1e2b3:	002c c0e0 e0c2 4990 4900 8a7f 1089 10ff     ,......I.I......
   1e2c3:	0020 802c 2ce0 200c 4990 0000 957d fd01      .,..,. .I..}...
   1e2d3:	5501 007c 002c 442a 204a 4990 0400 557d     .U|.,.*DJ .I..}U
   1e2e3:	55d7 7d55 0004 022c e222 2022 4990 5520     .UU}..,."." .I U
   1e2f3:	559f 7e20 4241 007c 822c a4e0 2084 4990     .U ~AB|.,.... .I
   1e303:	b404 9dd7 b5d5 d595 0024 482c 442a 204a     ........$.,H*DJ 
   1e313:	4990 5f00 d555 405f 40df 005f 0e2c e002     .I._U._@.@_.,...
   1e323:	e0a2 4990 001c 10ff 494d 897f 0089 002c     ...I....MI....,.
   1e333:	e2e0 e022 4b90 ff00 aaa8 abae acaa 00ea     .."..K..........
   1e343:	6868 ae2a 20aa 4990 0000 a0ff eaaf aaaa     hh*.. .I........
   1e353:	00ef 062c ea80 e0aa 4990 ff00 ef90 2a12     ..,......I.....*
   1e363:	2acf 0012 0e68 8284 40e8 003e 20ff aafb     .*..h....@>.. ..
   1e373:	aaab aaab 00fb e000 e2e2 e0e2 001c 11ff     ................
   1e383:	aafe afaa aaaa 00fa e000 aeaa a0aa 003e     ..............>.
   1e393:	20ff 5575 fd55 5555 0075 e000 48a2 a042     . uUU.UUu....HB.
   1e3a3:	003e 20ff 1575 f715 1515 0075 e000 e0e0     >.. u.....u.....
   1e3b3:	e0e0 003e 20ff 7f49 1089 08ff 0010 e800     ..>.. I.........
   1e3c3:	240e 2084 007e 20ff 7cc0 5557 7d55 0040     .$. ~.. .|WUU}@.
   1e3d3:	e000 a4aa 204a 003c 10ff 6b48 ca5a 6b5a     ....J <...HkZ.Zk
   1e3e3:	0048 e000 aa0e 00ae a630 2a7a 7eaa 2a2a     H.......0.z*.~**
   1e3f3:	a26a 0030 aa0e aaaa 00ae 5d61 5f45 cb42     j.0.......a]E_B.
   1e403:	5f4a 4b4a 0062 0e2c 2e48 4008 5f90 4100     J_JKb.,.H..@._.A
   1e413:	f55f 5555 5ff5 0041 422e 8824 2042 bf80     _.UU._A..B$.B ..
   1e423:	a9a8 aba9 a8a8 a9ab 00b9 0468 004e 40e4     ..........h.N..@
   1e433:	a722 257a 6f88 5d00 4fe5 0045 020e 4248     ".z%.o.].OE...HB
   1e443:	202a 2422 32ef 7205 5352 7454 0000 e000     * "$.2.rRSTt....
   1e453:	ae2a 20aa e722 0239 803f 145f 405f 007f     *.. ".9.?._._@..
   1e463:	080e 88e0 e0a2 a0af a0bf 12af 5b54 5df1     ............T[.]
   1e473:	0054 e0c0 aa82 204a 9097 909f 4117 55ff     T.....J .....A.U
   1e483:	ff55 0041 e080 4082 2004 5f90 3000 6bae     U.A....@. ._.0.k
   1e493:	ea2a 6e2b 00b0 422e 0048 60e2 82e2 aabf     *.+n...BH..`....
   1e4a3:	abaa aaaa 82bf 00e2 e848 8a8e 40e8 5f90     ........H....@._
   1e4b3:	0000 acfa fba9 ada9 00fa 402e a42a 204a     ...........@*.J 
   1e4c3:	5f90 2500 69a5 2121 a569 0024 4e2e 2e2e     ._.%.i!!i.$..N..
   1e4d3:	202e 5f90 1400 0924 55bd 4d25 0030 422e     . ._..$..U%M0..B
   1e4e3:	2e2e 202e 4f88 ff00 eaaa ad08 ecab 0000     ... .O..........
   1e4f3:	2a2c a222 202a ff00 aaa0 aaab aaac aabb     ,*".* ..........
   1e503:	00e8 8a68 8ae8 80e8 929e 00f3 f29f 009f     ..h.............
   1e513:	929e 00f3 e022 e0e2 e022 aab8 efaa 021a     ...."...".......
   1e523:	afba eaaa 0018 c8aa 8888 a0ca 80fc dbaa     ................
   1e533:	1602 137a 54fe 0058 2a02 8aaa 00ac fd22     ..z..TX..*....".
   1e543:	3f20 7d00 5555 7d55 0000 8624 2e2e 202e      ?.}UUU}..$.... 
   1e553:	e13e 003e 7554 755f b555 0094 6068 a4a2     >.>.Tu_uU...h`..
   1e563:	204a fd22 3f20 5d46 d555 5d55 0046 8624     J ". ?F]U.U]F.$.
   1e573:	2e00 0000 928a d2a3 008a 685b 50cb 004b     ..........[h.PK.
   1e583:	e422 e042 e0e0 b498 b7d5 15fd b597 b1d5     ".B.............
   1e593:	00f8 4444 e444 4044 7629 3aa2 204b 4b7f     ..DDD.D@)v.:K .K
   1e5a3:	4ff8 0060 4a2a 8206 00c2 b595 bd99 19d3     .O`.*J..........
   1e5b3:	d525 7549 0045 2a22 4a44 2022 f0a8 e5bc     %.IuE."*DJ" ....
   1e5c3:	0434 d72c 6850 0048 2a02 8aaa 00ac da36     4.,.PhH..*....6.
   1e5d3:	0012 f547 5f55 f555 0047 8444 4e44 4044     ..G.U_U.G.D.DND@
   1e5e3:	da36 6112 ff12 1214 497f 007f 0048 000e     6..a.....I..H...
   1e5f3:	e0e2 dd33 0011 2a3f fe2b ae21 0020 4222     ..3...?*+.!. ."B
   1e603:	c2c4 c0c2 1407 d435 5557 545d 4467 0005     ......5.WU]TgD..
   1e613:	2cea 646c 20ea da36 6412 fa02 abaa faaa     .,ld. 6..d......
   1e623:	0002 8244 2e4c 20aa da36 7f12 7f49 1008     ..D.L.. 6...I...
   1e633:	21ff 0016 8e44 242e 0080 da36 6212 fe00     .!..D..$..6..b..
   1e643:	fe92 fe93 0000 8044 e260 c0a6 da36 0812     ......D.`...6...
   1e653:	d13f 5d53 7557 0011 8044 24e0 2084 da36     ?.S]Wu..D..$. 6.
   1e663:	0812 4f88 3f00 aa6a 003b 8244 2a4c a0aa     ...O.?j.;.D.L*..
   1e673:	5a36 0092 abfe baaa ebae 0006 8844 aa0e     6Z..........D...
   1e683:	00ae 5523 1389 3f00 b555 5f95 0020 4822     ..#U...?U.._ ."H
   1e693:	240e a084 2a2a 2aff 4c00 4be9 e949 004d     .$..**.*.L.KI.M.
   1e6a3:	e848 2c40 e002 ff88 0088 fe23 0023 92ff     H.@,......#.#...
   1e6b3:	00ff 804c e0e2 e0e0 ff88 0088 82fb aaaa     ..L.............
   1e6c3:	82aa 00fb 804c aaea e0aa 7f48 0049 a597     ....L.....H.I...
   1e6d3:	91d7 2156 0016 0088 e8e4 6068 7f42 1442     ..V!......h`B.B.
   1e6e3:	5764 755d d595 0024 422e 444a 204a 7f44     dW]u..$..BJDJ D.
   1e6f3:	0044 5760 d555 5755 0060 402e 662e 206e     D.`WU.UW`..@.fn 
   1e703:	ff88 0088 92ff 00f2 9495 00f7 804c 80e8     ............L...
   1e713:	202c 4f88 5400 55ff 1015 23ec 003c 2a2c     , .O.T.U...#<.,*
   1e723:	a626 e0a2 5854 55f4 045c d72c 6850 0048     &...TX.U\.,.PhH.
   1e733:	2a02 8aaa 00ac 2a2a 2aff 002b aafb aaab     .*....**.*+.....
   1e743:	00fb e400 e282 e0e2 fd25 a9a5 01a5 5555     ........%.....UU
   1e753:	a955 00a9 4822 c200 6022 ff10 0010 80ff     U..."H.."`......
   1e763:	aabe aaeb 00be 864c c280 c0e0 be89 fa8a     ......L.........
   1e773:	aaaa ff00 9880 00e7 acac 0eae 0088 282b     ..............+(
   1e783:	29ff f984 b8a6 008e 00ff e2e4 22a2 a02a     .)..........."*.
   1e793:	484b 49ff 2220 e314 233c 0030 e2e4 a222     KH.I "..<#0...".
   1e7a3:	a022 ff22 0024 283f abfe aaaa 0036 062e     ".".$.?(....6...
   1e7b3:	e2a4 60a2 ff22 0024 aafe e2b2 aab2 00fe     ...`".$.........
   1e7c3:	062e 2a0e 6062 4a48 52ff 0752 527a 9c93     ...*b`HJ.RR.zR..
   1e7d3:	0010 aa22 aaae 20a4 ff22 0024 88ff ff8a     ..".... ".$.....
   1e7e3:	aaaa 00ac 062e e882 a08e ff22 0024 557f     ..........".$..U
   1e7f3:	ff55 5555 005f 062e 228e e022 ff22 0024     U.UU_...."".".$.
   1e803:	5a4b cb6a 524a 004b 002e aeea e0aa ff22     KZj.JRK.......".
   1e813:	0024 d555 557f d57f 005f 002e e024 20e4     $.U..U.._...$.. 
   1e823:	ff22 5c24 5fc4 5cc4 92ff 00ff 022e 02c0     ".$\._.\........
   1e833:	e0c2 ff22 0024 5f60 d454 5754 0064 002e     ..".$.`_T.TWd...
   1e843:	c8aa a0ca 5758 55f5 0c58 85f6 15e4 0036     ....XW.UX.....6.
   1e853:	2c02 2402 2084 575d 57fd 1955 f30a fa82     .,.$. ]W.WU.....
   1e863:	000b 4e44 2a44 204a ff22 0024 969d 00f7     ..DND*J ".$.....
   1e873:	969d 00f7 002e e04a e04a ff22 0024 acaa     ......J.J.".$...
   1e883:	a1ca acca 00aa 002e 8eac a08c 5551 57f5     ............QU.W
   1e893:	755d 5755 55f5 0051 a444 444e 40a4 fe43     ]uUW.UQ.D.ND.@C.
   1e8a3:	5253 42ff 1012 10ff 0053 22ea a0aa 202c     SR.B....S..".., 
   1e8b3:	5252 54f2 7a57 5252 50f4 0051 aa0e aaaa     RR.TWzRR.PQ.....
   1e8c3:	80ae 5d45 5ff5 5df5 ff45 9080 00ef 2e22     ..E]._.]E.....".
   1e8d3:	4e44 0088 f547 f55f 0047 487f 8f48 0088     DN..G._.G..HH...
   1e8e3:	e444 8046 000e 5f40 55f4 5557 5654 57f5     D.F...@_.UWUTV.W
   1e8f3:	0055 4668 4644 40e4 4544 55ff 5775 5575     U.hFDF.@DE.UuWuU
   1e903:	45ff 0044 4480 2244 80e0 e94f 494f 4fe9     .ED..DD"..O.OI.O
   1e913:	7e00 4ad2 007b e2e2 082e c0a2 5f40 55f4     .~.J{.......@_.U
   1e923:	5c56 5556 5ff4 0040 8c2c eaaa 208c 4742     V\VU._@.,.... BG
   1e933:	40e8 4d49 594b 4deb 0049 000e 220e 002e     .@IMKY.MI...."..
   1e943:	5f40 f652 765a f65b 5e52 0041 aa2e eaa0     @_R.Zv[.R^A.....
   1e953:	60aa 4444 52ea 4a46 5442 44ea 0044 acac     .`DD.RFJBT.DD...
   1e963:	ace0 e0ac 555f 40ff 55ff 005f 007f 00ff     ...._U.@.U_.....
   1e973:	e2e0 e0c2 e082 6f50 df4a 4f6a ef40 4040     ......PoJ.jO@.@@
   1e983:	005f aa2a 08aa e022 5f54 f555 7555 f555     _.*...".T_U.UuU.
   1e993:	5f55 0054 ae44 0822 204a 5151 55fd 7555     U_T.D.".J QQ.UUu
   1e9a3:	5555 51fd 0051 c4e0 4444 e0c2 4548 53ff     UU.QQ...DD..HE.S
   1e9b3:	755d 5557 55f5 0051 c282 8824 2042 5e50     ]uWU.UQ...$.B P^
   1e9c3:	56f2 735a 565a 5ef2 0050 8ae8 caea e08a     .VZsZV.^P.......
   1e9d3:	4b48 eb58 4448 ea5b 484b 004f 2c2a 8840     HKX.HD[.KHO.*,@.
   1e9e3:	e0a2 4a43 4eeb 5a4a 4e4a 4aea 0043 c802     ..CJ.NJZJN.JC...
   1e9f3:	8a88 00ae 5555 ff55 5555 f55f 5f55 0044     ....UUU.UU_.U_D.
   1ea03:	4e22 e800 2042 4c55 4ce7 4455 555f 55f5     "N..B UL.LUD_U.U
   1ea13:	005f c8aa c082 e002 5244 40e8 555f 5575     _.......DR.@_UuU
   1ea23:	40ff 0041 8224 48e4 204a 5159 54f2 535a     .@A.$..HJ YQ.TZS
   1ea33:	545a 51f2 0059 ea2a aaae 20ea 91ff 91f1     ZT.QY.*.... ....
   1ea43:	009f a0bf a0ef 00bf e2e2 a420 a084 2621     .......... ...!&
   1ea53:	22ff ff55 8b55 85f1 00fd e000 4822 2042     ."U.U......."HB 
   1ea63:	ff26 0024 505f f356 5056 005f 000e 8ee0     &.$._PV.VP_.....
   1ea73:	e082 2c23 24ff 5f4a fa6a 5f6a 0048 e000     ..#,.$J_j.j_H...
   1ea83:	aa2e 20ae 2621 24ff 535e ff5a 535a 005e     ... !&.$^SZ.ZS^.
   1ea93:	e000 0e48 4008 2621 24ff ff10 9595 ff95     ..H..@!&.$......
   1eaa3:	0010 e000 444c 804e ff26 0024 7f53 0092     ....LDN.&.$.S...
   1eab3:	00ff 0038 080e 2c0e 200c ff26 0024 94ff     ..8....,. &.$...
   1eac3:	f500 f784 0010 040e 02e8 00c2 2621 22ff     ............!&."
   1ead3:	6784 7f00 54d4 0077 e000 2a2c a0aa ff26     .g...Tw...,*..&.
   1eae3:	0024 a0ff aaaf aafa 00af 060e ea80 e0aa     $...............
   1eaf3:	5348 52fe 7a06 5252 935e 0090 aa0e aaaa     HS.R.zRR^.......
   1eb03:	00ae 2c23 24ff 803f 155d 809d 00ff e000     ..#,.$?.].......
   1eb13:	c4e0 e0c2 2c23 24ff aa02 3e6b aa6a 0022     ....#,.$..k>j.".
   1eb23:	e000 aa4a 20ea 2c23 24ff 5592 5399 5519     ..J.. #,.$.U.S.U
   1eb33:	0092 e000 4e44 4044 2c23 24ff 4f62 ea6a     ....DND@#,.$bOj.
   1eb43:	4f6a 0060 e000 aa2a 20aa 2c23 28ff ff24     jO`...*.. #,.($.
   1eb53:	efa0 afaa 00e0 e000 0e68 00ae 2c23 24ff     ........h...#,.$
   1eb63:	fb89 9b95 25e1 0039 e000 e2e2 e0e2 ff26     .....%9.......&.
   1eb73:	0824 aa6a aaad c9b9 000a 000e 4aaa 80e0     $.j..........J..
   1eb83:	5545 4955 ff45 4941 55d5 0045 ae44 0822     EUUIE.AI.UE.D.".
   1eb93:	204a aab8 aafa aafa 00b8 007f 00ff aeac     J ..............
   1eba3:	a08c e082 a5bd a5fd 00fd a2ff bfa1 0080     ................
   1ebb3:	e422 e240 200e a2bf a2fc 00bf a8ff 80af     ".@.. ..........
   1ebc3:	00ff aaea e8e0 e082 a2bf a4fc 14bf 24e7     ...............$
   1ebd3:	24ff 0024 a2ea 80e4 60e2 a2bf a4fc 00bf     .$$......`......
   1ebe3:	4af3 8a4a 001b aaea eae0 e0aa a2bf a2fc     .JJ.............
   1ebf3:	00bf eb11 4a46 0073 aaea 0ee0 e022 fb04     ....FJs....."...
   1ec03:	bea6 a7aa b2a2 b7aa 00a4 aa2a aaae 20ac     ..........*.... 
   1ec13:	9f84 8fe8 5744 fd54 5754 0044 4c0c 482a     ....DWT.TWD..L*H
   1ec23:	204a ff84 8f88 3f10 25e5 a57f 0025 4c0c     J .....?.%..%..L
   1ec33:	220e 20e2 7f44 4848 92ff 00ff 92ff 00ff     .". D.HH........
   1ec43:	440c e0e0 e0e0 ff84 8f88 ff00 feaa 88ab     .D..............
   1ec53:	00ff 4c0c 880e e0a2 9f84 8fe8 35a4 e52d     ...L.........5-.
   1ec63:	352d 0024 4c0c 220e 002e ff84 8f88 4870     -5$..L."......pH
   1ec73:	cf48 4949 0070 4c0c 2e2c 2022 9f84 8fe8     H.IIp..L,." ....
   1ec83:	2a00 b96c 4c29 002a 4c0c a20a 8044 6a5f     .*l.)L*..L..D._j
   1ec93:	4adf 506f 7e00 4ad2 007b ea88 0848 c0a2     .JoP.~.J{...H...
   1eca3:	e45c 454f ac0a ebba acba 000a e088 c8aa     \.OE............
   1ecb3:	a0ca 7117 f116 0057 92ff ff92 0000 22e2     ...q..W........"
   1ecc3:	e2e2 202e 7117 f116 2057 d25f 415e 007f     ... .q..W _.^A..
   1ecd3:	22e2 c2e0 6022 7909 f509 5555 2df5 4929     .".."`.y..UU.-)I
   1ece3:	0019 e200 2222 00e0 6414 e835 b3a8 a804     ....""...d5.....
   1ecf3:	a891 00c4 acaa 8c8e a0aa 3f00 2620 fe2a     ...........? &*.
   1ed03:	aaaa abae 00b0 aa68 88c8 a0ca 497f 007f     ......h......I..
   1ed13:	94ff ff94 9494 0084 e4e2 aeaa 20aa 407f     ............. .@
   1ed23:	007f 5645 f55d 5655 0045 8088 4e46 4046     ..EV].UVE...FNF@
   1ed33:	aafa abaa 02fa 5454 55ff 0057 4e2c 22aa     ......TT.UW.,N."
   1ed43:	20a2 407f 147f fd57 1055 21fe 003e c2c4     . .@..W.U..!>...
   1ed53:	e0c2 6068 407f 007f 5545 fd57 5655 0045     ..h`.@..EUW.UVE.
   1ed63:	8088 2e24 2004 497f 007f 547c 0497 5457     ..$.. .I..|T..WT
   1ed73:	007c e0e2 8024 e0e2 497f 7f49 7f20 25a5     |...$....II. ..%
   1ed83:	a57f 0025 2ee2 220e 20e2 ff00 9292 08ff     ..%....". ......
   1ed93:	e53f 7f25 00a5 222e e2c4 202e 497f 007f     ?.%...."... .I..
   1eda3:	557c 7cd6 5455 007c e0e2 8888 80e8 407f     |U.|UT|........@
   1edb3:	147f f55f 8057 88ff 00f7 8088 e0e2 80e4     .._.W...........
   1edc3:	407f 007f 5652 f25a 5452 0052 8288 eaea     .@..RVZ.RTR.....
   1edd3:	e0ea 407f 007f fe82 aaaa feaa 0082 8088     ...@............
   1ede3:	a0ac a0ac 407f 047f f04f 4a4b ef4a 0048     .....@..O.KJJ.H.
   1edf3:	8088 8ae0 00ae 407f 007f 545f d474 5f54     .......@.._Tt.T_
   1ee03:	0000 8888 88ac 80ca 407f 007f aabb aaab     .........@......
   1ee13:	aaab 00bb 8088 8ee8 e08a fe01 afaa faaa     ................
   1ee23:	fe08 9611 0050 ae2a 24aa e084 407f 807f     ....P.*..$...@..
   1ee33:	abbe aaea bfaa 0080 c2c4 c4a2 20a2 fe00     ............. ..
   1ee43:	fe92 5e20 5ed2 4141 007e 0424 4220 2004     .. ^.^AA~.$. B. 
   1ee53:	487f 007f 5760 d555 5755 0060 8288 222e     .H..`WU.UW`...."
   1ee63:	202e 4f88 ea00 da8d 8adf 0fed 0000 2a2c     . .O..........,*
   1ee73:	aa2a 202a 447f 7f44 95a9 07e5 55e5 0029     *.* .DD......U).
   1ee83:	4ec4 8024 2084 90f7 f29f 490a ff49 4949     .N$.. .....II.II
   1ee93:	0008 c4e2 2e62 2022 90f7 f29f 4f88 2621     ....b." .....O!&
   1eea3:	26f8 0021 c4e2 422c 2022 90f7 f29f fd01     .&!...,B" ......
   1eeb3:	2b25 25fd 004d c4e2 0e40 0000 90f7 f29f     %+.%M...@.......
   1eec3:	001f 04ff 08ff 0010 e4e2 e4e2 e0e2 90f3     ................
   1eed3:	f29f e414 fc27 2427 0004 e4e2 8024 e0e2     ....'.'$....$...
   1eee3:	90f7 f29f 2744 4848 887f 0088 c4e2 422c     ....D'HH......,B
   1eef3:	20a2 90f7 929f 24f2 a835 3568 0024 c4e2     . .....$5.h5$...
   1ef03:	c042 000e 223e 22ff 003e 15df 15f5 00df     B...>".">.......
   1ef13:	e222 e042 e002 223e 22ff 533e 927f 003f     ".B...>".">S..?.
   1ef23:	00ff e422 e0e0 e082 223e 22ff 003e 5425     ..".....>".">.%T
   1ef33:	549f 0025 e422 82e0 80e0 223e 22ff 003e     .T%.".....>".">.
   1ef43:	4969 4d6b 00a9 e422 02e0 00e0 223e 22ff     iIkM..".....>"."
   1ef53:	aa3e 3e6b aa6b 0022 e422 c0e2 60e2 487f     >.k>k."."....`.H
   1ef63:	487f 467f cf59 4948 006f 8888 4ca2 6022     .H.FY.HIo....L"`
   1ef73:	223e 22ff 003e d59f d5bf 001f e422 e0e0     >".">......."...
   1ef83:	e0c2 a9ef a9af 00ef 9497 8097 00ff c2e0     ................
   1ef93:	88e0 e0a2 407f 007f aafe e2b2 aab2 00fe     .....@..........
   1efa3:	8688 2a8e 6062 407f 007f 557d d557 5555     ...*b`.@..}UW.UU
   1efb3:	007d 8088 4e48 4048 407f 297f ab49 1216     }...HNH@.@.)I...
   1efc3:	4aab 0028 8088 ca44 80ac 407f 007f 775d     .J(...D....@..]w
   1efd3:	755d b555 009d 8888 442a 204a 407f 247f     ]uU.....*DJ .@.$
   1efe3:	72ab 2223 aa73 0027 8288 e2e2 e0e2 407f     .r#"s.'........@
   1eff3:	ae7f 2f62 ae62 92ff 00ff 8088 0268 e0c2     ..b/b.......h...
   1f003:	407f 907f 2249 52df 525b 005f 8688 c480     .@..I".R[R_.....
   1f013:	e046 407f 007f 4a62 ff4a 5252 0062 8088     F..@..bJJ.RRb...
   1f023:	aa0e 00ae 407f 007f 2aeb ef3a 2a2a 00eb     .....@...*:.**..
   1f033:	c0c4 aeaa a0ac 407f 907f 005f aabf eabf     .......@.._.....
   1f043:	00bf 8288 a2c2 a0a2 ea09 baaf afea aaea     ................
   1f053:	eaaf 0009 8800 aa8e 60a2 007f 00ff 5f15     .........`....._
   1f063:	7f50 9f90 0015 c4c4 8e24 2084 5dd1 5555     P.......$.. .]UU
   1f073:	f555 5555 5d55 00d1 c4e0 4444 e0c2 007f     U.UUU]....DD....
   1f083:	00ff 007f 55af 55e5 00af c4c4 e4c0 e044     .....U.U......D.
   1f093:	f718 b595 18f7 e514 f584 0016 440e 24e0     .............D.$
   1f0a3:	2084 cf29 4949 5200 fa57 3252 0053 220e     . ).II.RW.R2S.."
   1f0b3:	ea00 e0aa cf29 0049 6951 5dcb 6b49 0051     ....).I.Qi.]IkQ.
   1f0c3:	200e c022 000e cf29 0049 5554 c565 5465     . "...).I.TUe.eT
   1f0d3:	0057 200e 440c e0c2 cf29 4949 fa00 aaaa     W.. .D..).II....
   1f0e3:	abaa 00fa 220e c808 80ae cf29 0049 abfa     ....."....).I...
   1f0f3:	ffaa abaa 00fa 200e 0e68 6008 cf29 4949     ....... h..`).II
   1f103:	fb00 a9a9 f9ab 0002 220e 240e 60e2 cf29     .........".$.`).
   1f113:	0049 90ff fc97 9097 00ff 200e aae2 e0a2     I.......... ....
   1f123:	cf29 0049 507f 109f 27f0 0030 260e e080     ).I..P...'0..&..
   1f133:	e0e0 cf29 0049 6ba4 ea3a 6c2b 00aa 200e     ..).I..k:.+l... 
   1f143:	2a0e 00a6 cf29 0049 4960 cf48 4949 0060     .*..).I.`IH.II`.
   1f153:	200e 4e68 2022 cf29 0049 5223 53aa 52aa     . hN" ).I.#R.S.R
   1f163:	008b 200e aeea e0aa 44e4 447f 3f08 25e5     ... .....D.D.?.%
   1f173:	a57f 0025 0c2c 220e 20e2 3110 55df 5555     ..%.,..". .1.UUU
   1f183:	515f 415e 0000 2e2e 2e2e 202c 1179 12ff     _Q^A......, y...
   1f193:	aaff aaab aaab 00bb e000 e8e8 e0ea 5453     ..............ST
   1f1a3:	907f 0794 e010 202f 0038 e2ea 2cae 200c     ....../ 8....,. 
   1f1b3:	5651 917f fa12 ffab faab 0002 e080 0e48     QV............H.
   1f1c3:	4008 ff53 0092 557c 7cd4 5457 007c 080e     .@S...|U.|WT|...
   1f1d3:	8888 80e8 5651 94ff 24b2 9454 2655 0020     ....QV...$T.U& .
   1f1e3:	e000 e260 6060 c222 526f 0142 cd22 5465     ..`.``".oRB.".eT
   1f1f3:	0047 c844 4480 e042 c424 654f 2f40 4fc9     G.D..DB.$.Oe@/.O
   1f203:	4f69 0040 e08a 220c 6022 c820 486b 2f48     iO@....""` .kHH/
   1f213:	48c8 486b 0040 2a2a 2a2e 202a c424 6a4b     .HkH@.**.** $.Kj
   1f223:	2e42 4ac2 446b 0044 e800 8a88 00e0 c722     B..JkDD.......".
   1f233:	6758 2442 48db 6e49 0048 0e0e 4802 2042     XgB$.HInH....HB 
   1f243:	14ff 10f7 fd41 f745 f555 0045 e0e0 8e24     ....A.E.U.E...$.
   1f253:	2084 7e20 0a80 adea bea8 eca8 000a 622a     .  ~..........*b
   1f263:	4248 206a d57d 5557 097d ee30 3e21 0020     HBj }.WU}.0.!> .
   1f273:	8a24 2460 2084 c721 0218 556d 5f65 9585     $.`$. !...mUe_..
   1f283:	00a5 000e 2e62 6022 9e48 0020 4592 a220     ....b."`H. ..E .
   1f293:	a0be 0020 0e2c a222 4068 7f02 44d3 247f     .. .,.".h@...D.$
   1f2a3:	0a4f 4afa 002f 822c e8e0 e08a 5527 9097     O..J/.,.....'U..
   1f2b3:	2057 80ff 809f 00fe e0e4 e4c2 208e a597     W ........... ..
   1f2c3:	91d7 2156 4916 927f 0092 e8e4 6068 60c2     ..V!.I......h`.`
   1f2d3:	6a4a 279d 9f00 d2b2 9292 009f 2c8a 220e     Jj.'.........,."
   1f2e3:	e022 7452 e799 3fa8 12d1 14ff 0012 2c4a     ".Rt...?......J,
   1f2f3:	000e 00e0 6a4a a355 2302 49d5 6355 0002     ....JjU..#.IUc..
   1f303:	2c8a 220e 002e 4a28 4d9a 0028 a0bf a0e7     .,."..(J.M(.....
   1f313:	00bf aaea 24e0 2084 92ff 05ff 5d56 55f5     .....$. ....V].U
   1f323:	565d 0005 e0e0 4c46 4046 ff00 ff92 5f40     ]V....FLF@....@_
   1f333:	f356 5256 005f 2e68 8e0e e082 92ff 00ff     V.VR_.h.........
   1f343:	909f d4bf 909f 009f e0e0 eae2 e0e2 ff00     ................
   1f353:	ff92 aae2 0aeb aaea 00e2 2e68 8a04 00ac     ..........h.....
   1f363:	ff00 ff92 a515 91d7 2156 0016 2e68 e844     ........V!..h.D.
   1f373:	6068 ff00 ff92 ac6a eb38 ac38 006a 2e68     h`....j.8.8.j.h.
   1f383:	ae0a 20aa ff00 ff92 ad6b e93b ad39 006b     ... ....k.;.9.k.
   1f393:	2e2c 640a 204a 3f10 aa68 aab2 aaaa 2af2     ,..dJ .?h......*
   1f3a3:	0028 0e68 aaaa 00ae d53f 755f 101f f51f     (.h.....?._u....
   1f3b3:	9514 0056 4422 022c 20c4 d53f 755f b21f     ..V."D,.. ?._u..
   1f3c3:	828a 8aff 00b2 2422 0040 00e0 d53f 755f     ......"$@...?._u
   1f3d3:	001f 0203 12fe 0013 2422 e240 e022 d53f     ........"$@.".?.
   1f3e3:	755f 001f 121f 52f2 005e 4422 8006 0000     _u.....R^."D....
   1f3f3:	d53f 755f 001f 5651 927f 0091 2422 8040     ?._u..QV...."$@.
   1f403:	80e0 d53f 755f 081f d43f ff12 0010 2422     ..?._u..?....."$
   1f413:	e040 002e d53f 755f 0c1f c535 1909 000d     @...?._u..5.....
   1f423:	2422 e240 e022 4aff 9a4b 5502 ff55 7d55     "$@."..JK..UU.U}
   1f433:	0010 caaa 4ea4 4044 e917 5540 0067 d27e     .....ND@..@Ug.~.
   1f443:	7a4a 0003 22e2 88e0 c0a2 b1ff 918e ffa0     Jz..."..........
   1f453:	0baa aafe 00fb 00e8 268c 60aa d53f 755f     .........&.`?._u
   1f463:	481f f82f 280f 0048 02e0 80e4 60c2 4f88     .H/..(H......`.O
   1f473:	7b00 9a52 7a47 7f46 0000 2e2c eaaa 20ae     .{R.GzF...,.... 
   1f483:	4fe0 0160 ae2a 2b7a ab6a 002a 200e ea2a     .O`.*.z+j.*.. *.
   1f493:	20ae 7444 57d5 4075 d27e 7a4a 0003 e08a     . Dt.Wu@~.Jz....
   1f4a3:	8800 c0a2 7840 7a4f ca4a 7a4a 784f 0040     ....@xOzJ.JzOx@.
   1f4b3:	ea22 aaaa 20e2 7f12 5552 d65b 5e51 5251     ".... ..RU[.Q^QR
   1f4c3:	0054 8468 c04a 2084 7f12 4a40 ff4a 7f40     T.h.J.. ..@JJ.@.
   1f4d3:	4a4a 0040 2a68 0ec8 0088 7f12 5f40 5550     JJ@.h*......@_PU
   1f4e3:	55de 5f50 0040 0e68 aa2a 002e 7f09 4b41     .UP_@.h.*.....AK
   1f4f3:	696d 69ff 4b6d 0041 0268 46a4 00a2 7f12     mi.imKA.h..F....
   1f503:	5f40 c565 417f 5555 005f 2268 0848 2042     @_e..AUU_.h"H.B 
   1f513:	7f12 4a40 4a4c 4ad9 4a4c 0040 0868 e888     ..@JLJ.JLJ@.h...
   1f523:	0088 7f12 4a40 ec5a 4948 7255 005a 0068     ....@JZ.HIUrZ.h.
   1f533:	a2aa 0044 7c03 5e52 d575 537d 7a56 0046     ..D..|R^u.}SVzF.
   1f543:	2402 0e80 6022 5750 7e6d c44c 6744 6f55     .$.."`PWm~L.DgUo
   1f553:	0048 0e0e aeaa 000e 7b48 7aca 084b e110     H.......H{.zK...
   1f563:	213e 0030 aa0e 48e2 6008 ff40 4f48 d520     >!0....H.`@.HO .
   1f573:	755c 5954 0054 2e68 0e0e 200e 564d 4440     \uTYT.h.... MV@D
   1f583:	c05f 4a4a 4a5f 004a 80ac aae0 a0ea 409f     _.JJ_JJ........@
   1f593:	ae0a faaa acaa 808a 00ff eae2 eaea e0e2     ................
   1f5a3:	409f aa0f eaba aaaa 808f 00ff ace8 8c88     .@..............
   1f5b3:	e0aa 499f 8f19 8399 8b98 808c 00ff 2ce0     ...I...........,
   1f5c3:	6800 e062 69a9 6a3f 24aa a17b 453d 002c     .hb..i?j.${.=E,.
   1f5d3:	8024 a4aa 204a 5a14 76d5 d754 7455 5ad5     $...J .Z.vT.Ut.Z
   1f5e3:	0014 482a 082e 2042 0b68 0aff 0069 aabe     ..*H..B h...i...
   1f5f3:	aaff 00be e0c0 a482 20c2 6a2f aabc 2f4a     ......... /j..J/
   1f603:	1110 51fe 0030 aaea 68ae 6008 0038 08ff     ...Q0....h.`8...
   1f613:	fe23 0023 92ff 00ff 0c2c e2e2 e0c2 0038     #.#.....,.....8.
   1f623:	10ff fb22 aeaa fbaa 0002 082c 622a 206a     ..".......,.*bj 
   1f633:	003c 12ff abfa aafa faab 0002 0c2c 442e     <...........,..D
   1f643:	a084 0038 08ff 92ff f30a fa82 000b 0c2c     ..8...........,.
   1f653:	2ae8 204a 003c 18ff 5760 d555 5755 0060     .*J <...`WU.UW`.
   1f663:	0c2c 222e 202e 0038 08ff 7f30 5555 9595     ,..". 8...0.UU..
   1f673:	009d 082c 0e6c e002 001c 08ff 5bb6 ff00     ..,.l........[..
   1f683:	a9aa 00fa 0a2c 2a4c a0a2 4990 2420 24ff     ....,.L*...I $.$
   1f693:	a27f e2be 003e 882c e2e8 e022 4990 5410     ....>.,..."..I.T
   1f6a3:	725a 52d3 545a 0012 0a2c e8c8 00ca 4990     Zr.RZT..,......I
   1f6b3:	5200 5a56 52f2 5254 0000 2e2c aeae 20ae     .RVZ.RTR..,.... 
   1f6c3:	4990 4a00 4dea 4858 ea5d 004a 082c 889e     .I.J.MXH].J.,...
   1f6d3:	80f8 4990 5800 55f5 5557 f555 0058 022c     ...I.X.UWUU.X.,.
   1f6e3:	e222 20a6 8910 0040 545e fe54 d554 005e     ".. ..@.^TT.T.^.
   1f6f3:	002c 8a8c 80ae 4990 be00 fca5 a4a7 a6fd     ,......I........
   1f703:	00bc 0a2c e8c8 80ca 4990 ff00 af88 a8a8     ..,......I......
   1f713:	aaad 008d 2c2c 8a8c 80e8 9523 0149 6715     ....,,....#.I..g
   1f723:	f515 6109 0011 ae44 0822 204a 4990 fa00     ...a..D.".J .I..
   1f733:	aaab aaab aaab 00fb 022c e24a e04a 4990     ........,.J.J..I
   1f743:	ff00 aaaa b7bd a5a2 00ff 0e2c 6aaa e022     ..........,..j".
   1f753:	4990 ea00 6a4a ea4f 6a4a 004a 082c ea88     .I..JjO.JjJ.,...
   1f763:	e0aa 4990 3f10 1fc0 6b28 52d2 006b 0e68     ...I.?..(k.Rk.h.
   1f773:	0e0c e08a 4990 7d00 5555 d5d7 5755 007d     .....I.}UU..UW}.
   1f783:	022c 0848 2042 4990 4400 aa46 1213 46aa     ,.H.B .I.DF....F
   1f793:	0044 022c eaaa 20ea 8910 2b52 2bda 9288     D.,.... ..R+.+..
   1f7a3:	22db 0013 8468 08ae e04a 2548 5148 417d     ."..h...J.H%HQ}A
   1f7b3:	41c3 517d 0049 2268 e848 2042 4990 7f00     .A}QI.h"H.B .I..
   1f7c3:	5544 ff55 5f55 0044 2c2c 220e 002e 4990     DUU.U_D.,,."...I
   1f7d3:	5a00 7253 52d6 5272 005a 022c 8ac8 00ae     .ZSr.RrRZ.,.....
   1f7e3:	8910 0040 4d69 d94b 4d4b 0069 002c 4e04     ..@.iMK.KMi.,..N
   1f7f3:	0044 8910 0040 bec0 abaa beaa 00c0 002c     D...@.........,.
   1f803:	88ac a08c 4990 a888 c8bf bf0c a0e7 00bf     .....I..........
   1f813:	0268 24e0 2084 003e 20ff 5545 fd57 5655     h..$. >.. EUW.UV
   1f823:	0045 e000 2e24 2004 ff38 8720 aafa aaab     E...$.. 8. .....
   1f833:	feaa 008b 020e 4aa4 204a 007e 20ff 5515     .......JJ ~.. .U
   1f843:	957f 557f 009f e000 e024 20e4 a239 3a67     ...U....$.. 9.g:
   1f853:	6baa 222e a063 0038 ea22 aaae 20e2 5565     .k."c.8.".... eU
   1f863:	7d56 d557 7d55 5557 0065 4404 4244 002c     V}W.U}WUe..DDB,.
   1f873:	5664 5665 fc55 5457 5464 0066 aa8a 8cc8     dVeVU.WTdTf.....
   1f883:	a0aa 4969 755f df55 5575 695f 0019 4822     ..iI_uU.uU_i.."H
   1f893:	080e 2042 5564 6556 cc44 5564 5556 0074     ..B dUVeD.dUVUt.
   1f8a3:	4444 444e 4044 df42 0a64 5544 fe55 5455     DDNDD@B.d.DUU.UT
   1f8b3:	0044 040e e482 a084 df44 0a64 4a49 4aff     D.......D.d.IJ.J
   1f8c3:	2e5a 004b 080e ea00 e0aa cf42 0a74 557c     Z.K.......B.t.|U
   1f8d3:	7cd6 5455 007c 080e 8888 80e8 cf42 0a74     .|UT|.......B.t.
   1f8e3:	a0ff a4a4 a4af 00e4 060e ea80 e0aa ef22     ..............".
   1f8f3:	0035 92aa 82eb 92ab 00eb 000e a0a4 a0a4     5...............
   1f903:	9097 909f fe54 8754 82f8 00fe e0c0 c8aa     ....T.T.........
   1f913:	a0ca 5f90 0000 fb0e aaae fbae 000e 402e     ..._...........@
   1f923:	a422 20a2 5f90 0000 684f cf5a 685a 004f     ".. ._..OhZ.ZhO.
   1f933:	402e eae0 e0e0 fd22 3f20 5745 57fd 57fd     .@....". ?EW.W.W
   1f943:	0045 8624 4c4e 404e fd22 3f20 5f41 55f5     E.$.NLN@". ?A_.U
   1f953:	5ff5 0041 8624 4802 2042 f927 3c23 7f00     ._A.$..HB '.#<..
   1f963:	d46d 446f 007d 8624 402c 60ea f927 3c23     m.oD}.$.,@.`'.#<
   1f973:	7558 7d57 b595 0058 8624 a482 204a f927     XuW}..X.$...J '.
   1f983:	3c23 4f61 d555 5557 0061 8624 4002 2004     #<aOU.WUa.$..@. 
   1f993:	f927 3c23 cb08 ef5a cb4a 0008 8624 ae2a     '.#<..Z.J...$.*.
   1f9a3:	60aa da36 0012 9ba8 8afa 9bfa 00a8 8044     .`6...........D.
   1f9b3:	aa0e 00ae da36 2212 5f40 d575 5f55 0040     ....6.."@_u.U_@.
   1f9c3:	8a44 446c 604c da36 0012 a1ff a5bd abb1     D.lDL`6.........
   1f9d3:	00b5 a244 84c0 002e da36 5402 de74 5454     ..D.....6..Tt.TT
   1f9e3:	da36 0002 aaea aaaa e0aa 84bc 07fd 4b78     6.............xK
   1f9f3:	4b92 4a72 007b 2c8a ae0e e0aa da36 6012     .KrJ{..,....6..`
   1fa03:	3a23 6aaa 3a2a 0023 8044 eae0 e0e2 da36     #:.j*:#.D.....6.
   1fa13:	0012 455d d76d 456d 005d 8044 6ae0 e042     ..]Em.mE].D..jB.
   1fa23:	da36 0012 a522 2169 a569 0022 8244 2e2e     6...".i!i.".D...
   1fa33:	202e da36 2a10 7faa 7f2a 2faa 0022 0a48     . 6..*..*../".H.
   1fa43:	8ece 20ca 84bc 07fd 3f00 6baa 2a2b 003b     ... .....?.k+*;.
   1fa53:	2c8a ae48 e04a 2a2a 4aff 509f f417 5017     .,H.J.**.J.P...P
   1fa63:	009f e848 88e0 e082 7f44 1444 fd57 1455     ..H.....D.D.W.U.
   1fa73:	e03f 003f a44c e282 a0a4 7f44 0044 6d43     ?.?.L.....D.D.Cm
   1fa83:	6755 a595 00c1 804c 2e62 6022 7f48 0048     Ug....L.b."`H.H.
   1fa93:	557f ff55 5f55 0045 824c e2c0 e022 5611     .UU.U_E.L..."..V
   1faa3:	55fc 1156 f422 7449 0042 aa0a cacc 00aa     .UV.".ItB.......
   1fab3:	fd57 fd57 0457 80fc 809f 00fc c4e4 2ce4     W.W.W..........,
   1fac3:	200e ff00 a581 ffa9 a9a9 afe9 00a1 0e24     . ............$.
   1fad3:	a222 2024 5b54 5afe 2257 6aca 6a53 004a     ".$ T[.ZW".jSjJ.
   1fae3:	2a68 4a64 0022 2a2a 2aff 402b 5563 9560     h*dJ".**.*+@cU`.
   1faf3:	00e7 e400 e280 e022 5c13 0151 7458 7d57     ......"..\Q.XtW}
   1fb03:	b595 00dd 0a88 2a48 a044 ea28 aaba 2db3     ......H*D.(....-
   1fb13:	5555 a1a5 0000 8888 22c2 e022 2222 24ff     UU.......""."".$
   1fb23:	aab8 aafa aafa 00b8 e002 aeac a08c ff10     ................
   1fb33:	0010 f90f a9af f9af 000f 804c 442a 204a     ..........L.*DJ 
   1fb43:	ff21 0422 adf8 faaa adaa 00f8 082e aaea     !.".............
   1fb53:	e0aa ff22 0024 aafa fbae acaa 00f8 002e     ..".$...........
   1fb63:	aeac a08c ff22 0024 89f5 03f5 89f5 00f5     ....".$.........
   1fb73:	022e 442a 204a 5151 f553 5759 3d55 9755     ..*DJ QQS.YWU=U.
   1fb83:	0011 4a4a 4ae0 e04a 5450 52ff 0652 527a     ..JJ.JJ.PT.RR.zR
   1fb93:	9c53 0090 ca22 aaae 20aa ff22 0024 487f     S...".... ".$..H
   1fba3:	c95f 5f49 0048 062e 24a4 2024 ff10 0010     _.I_H....$$ ....
   1fbb3:	557f ff55 5555 005f 864c 4e8e e044 ff10     .UU.UU_.L..ND...
   1fbc3:	0010 6a4f c95d 6a5d 004f 804c c4e0 e0c2     ..Oj].]jO.L.....
   1fbd3:	5559 55f7 0a59 82f3 0afa 001b e424 2a20     YU.UY.......$. *
   1fbe3:	204a 4605 fd44 5456 fe55 4645 0005 ac0a     J .FD.VTU.EF....
   1fbf3:	8c8e 002a 4444 e75c 7d45 f555 5455 0044     ..*.DD\.E}U.UTD.
   1fc03:	c624 4646 0046 5342 d65a 7e52 d652 535a     $.FFF.BSZ.R~R.ZS
   1fc13:	0042 2e0e aeaa 002e f547 f55f 2447 ff25     B.......G._.G$%.
   1fc23:	2425 0000 e444 0e48 4008 f547 f55f 0047     %$..D.H..@G._.G.
   1fc33:	91ff ff91 0000 e444 2242 2022 f547 f55f     ......D.B"" G._.
   1fc43:	0247 223e 22ff 003e e444 2c40 200c f547     G.>".">.D.@,. G.
   1fc53:	f55f 3347 11cc 20ff 003f e444 a448 e082     _.G3... ?.D.H...
   1fc63:	5c46 55f7 555d 555d 5cf5 0046 222e 00a4     F\.U]U]U.\F.."..
   1fc73:	60e2 514f 5fe2 7555 5f55 51e0 005f 2422     .`OQ._UuU_.Q_."$
   1fc83:	e280 6022 5f48 4bea 5a45 4a4e 4aeb 004a     .."`H_.KEZNJ.JJ.
   1fc93:	2e68 ac0a a08c 4857 53f1 5a56 5257 50f2     h.....WH.SVZWR.P
   1fca3:	005f 0ee0 eaaa e0a2 faab fa8a 00ab fe08     _...............
   1fcb3:	9611 0050 aaea 24e0 e084 556b 41e9 555f     ..P....$..kU.A_U
   1fcc3:	5555 57f5 0041 4822 080e 2042 5559 55f5     UU.WA."H..B YU.U
   1fcd3:	7151 5f51 55f5 0058 0e2c a422 606a 5158     QqQ_.UX.,.".j`XQ
   1fce3:	50f6 7555 5557 55f5 0058 008e 22e2 002e     .PUuWU.UX...."..
   1fcf3:	555f 55f5 205f 8952 5f80 0020 e444 4440     _U.U_ R.._ .D.@D
   1fd03:	804e fc27 ff24 ff92 7e00 4ad2 007b 68c4     N.'.$....~.J{..h
   1fd13:	082e c0a2 5854 59f5 425e 5956 58f5 005e     ....TX.Y^BVY.X^.
   1fd23:	4488 224a 8048 ff26 0024 5655 f55d 565e     .DJ"H.&.$.UV].^V
   1fd33:	0055 000e 8eac a08c 2621 24ff 80ff bf95     U.......!&.$....
   1fd43:	bf80 0095 e000 2ae2 202a ff26 0024 abfa     .......** &.$...
   1fd53:	a8ab abaa 00fb 000e e0a4 e0a4 2c23 24ff     ............#,.$
   1fd63:	7f22 55d5 d57f 0055 e000 4404 40e4 ff26     "..U..U....D.@&.
   1fd73:	7f22 d554 0a7f ff09 0008 ac0e e082 002e     ".T.............
   1fd83:	2c23 28ff 7d05 55d7 7d55 0001 e000 4e48     #,.(.}.UU}....HN
   1fd93:	4048 2c23 24ff 7d52 d457 7c57 0051 e000     H@#,.$R}W.W|Q...
   1fda3:	e482 200c 2621 22ff 7447 d555 7455 0047     ... !&."GtU.UtG.
   1fdb3:	e000 c4e0 e0c2 2c23 24ff 4f72 d24a 4253     ......#,.$rOJ.SB
   1fdc3:	0070 e000 c8aa a08c 2621 48ff 002f fb29     p.......!&.H/.).
   1fdd3:	1a2e 006b e080 0ec8 e0aa 2621 24ff 5f68     ..k.......!&.$h_
   1fde3:	ca6a 4a5f 006a e000 aa0e a0ea 545a 54ff     j._Jj.......ZT.T
   1fdf3:	015a 545a 54ff 005a 4422 8480 2042 a2bf     Z.ZT.TZ."D..B ..
   1fe03:	a4fc 00bf f8af f888 00a8 aaea 80e4 0000     ................
   1fe13:	929f 92fc 249f 56df 575c 005c aaea 8ae0     .....$.V\W\.....
   1fe23:	80ae a2bf a2fc 12bf 4263 8fb2 0062 aaea     ........cB..b...
   1fe33:	08e0 002e ff00 ffa0 ffaa bfa0 afa8 00c8     ................
   1fe43:	ac68 ac8c 000e 9f84 8fe8 5745 ff55 5755     h.........EWU.UW
   1fe53:	0045 4c0c 4c0c 404e fc87 0087 6f50 fa4a     E..L.LN@....PoJ.
   1fe63:	6f4a 0050 e0e2 aa2a 20aa 7f44 4f48 fa01     JoP...*.. D.HO..
   1fe73:	aaaf faaa 0003 4c0c 4c0c c042 9f84 8fe8     .......L.LB.....
   1fe83:	6b48 cf5a 6b5a 004c 4c0c 0e0c 004c ff84     HkZ.ZkL..L..L...
   1fe93:	8f88 5554 7dd7 55d5 0055 4c0c 2280 20e2     ..TU.}.UU..L.". 
   1fea3:	0a3b 407f 555f 575d 41fe 00c6 c082 c6c4     ;..@_U]W.A......
   1feb3:	204c 4a4a 4f75 aa45 5aaf aa4f 00ab 2c8a     L JJuOE..ZO....,
   1fec3:	c000 c0e4 fc83 9f92 4f60 d24a 4253 0060     ........`OJ.SB`.
   1fed3:	c002 c8aa a0ca a535 adb7 f9a0 b7a5 a1ad     ......5.........
   1fee3:	0030 4a24 2e22 2022 8464 a6a4 ed95 a685     0.$J"." d.......
   1fef3:	84a4 0064 ac8a 0e00 8088 e45c 445f 5517     ..d.......\._D.U
   1ff03:	f555 5555 0017 e888 284e 204a 5744 5454     U.UU....N(J DWTT
   1ff13:	07fc 54fc 5754 0044 aa2a aaae 20ac 5555     ...TTWD.*.... UU
   1ff23:	fd55 0301 55fd 5555 0055 6a44 a420 20a2     U....UUUU.Dj .. 
   1ff33:	5352 5652 00fb 53fa 5252 0053 4aa2 a2e0     RSRV...SRRS..J..
   1ff43:	e04a 7117 f116 005f 08ff 08ff 0010 22e2     J..q.._........"
   1ff53:	c4e2 60c2 7117 f116 0057 a4ff fca7 0001     ...`.q..W.......
   1ff63:	22e2 e4e0 200c 2432 2921 ea2a a9aa 24a1     ."... 2$!)*....$
   1ff73:	0032 ea88 aaaa 80e8 1f00 4820 4444 4444     2......... HDDDD
   1ff83:	2048 001f 4208 2aa2 8024 497f 7f49 95a9     H ...B.*$..II...
   1ff93:	07e5 55e5 0029 2ee2 8024 2084 407f 477f     ...U)...$.. .@.G
   1ffa3:	5ff5 27f5 20ff 003f 8488 464e e0c2 407f     ._.'. ?...NF...@
   1ffb3:	007f 555f 55ff 55ff 005f 8088 220e 002e     .._U.U.U_...."..
   1ffc3:	407f 007f aab8 aafa aafa 00b8 8088 aeac     .@..............
   1ffd3:	a08c 407f 007f 213f 252f a2ff 006c 8688     ...@..?!/%..l...
   1ffe3:	e4c2 c086 407f 807f abbe abea beab 0080     .....@..........
   1fff3:	8088 a4aa 606a 447f 007f 7558 7d57 b595     ....j`.D..XuW}..
   20003:	00d8 c4c4 a482 204a 447f 007f bec0 abaa     ......J .D......
   20013:	beaa 00c0 c0c4 88ac a08c 90f7 f29f 5504     ...............U
   20023:	5755 55fd 0055 c4e2 8424 002e 90f3 f29f     UW.UU...$.......
   20033:	7f00 d754 7d54 0002 e4e2 402e 2084 223e     ..T.T}.....@. >"
   20043:	22ff 203e 2aff ff2a 0020 e422 c8ea a08c     ."> .**. .".....
   20053:	223e 22ff 233e 22ff 487f 008f e422 e2e0     >".">#.".H.."...
   20063:	e0c0 223e 22ff 2a2e 202e 21fe 00a6 e422     ..>".".*. .!..".
   20073:	a2e8 6048 223e 22ff 80ff bfa4 81a4 00ff     ..H`>"."........
   20083:	e422 aae2 e0a2 223e 22ff 013e affa abaa     ".....>".">.....
   20093:	00fb e422 84e0 e082 223e 22ff 003e d67d     ..".....>".">.}.
   200a3:	557c 007c e422 8868 808e 223e 22ff 80ff     |U|.".h...>"."..
   200b3:	bf95 8095 00ff e422 c4e0 e0c2 223e 22ff     ......".....>"."
   200c3:	093e 3aaf 3fea 00aa e422 e2e0 60aa 223e     >..:.?.."....`>"
   200d3:	22ff 023e 496e 48cf 006f e422 48e2 60e2     .">.nI.Ho."..H.`
   200e3:	223e 22ff d27f 007e 88ff 00f7 e422 4aea     >"."..~....."..J
   200f3:	80e8 223e 22ff 913f 9591 d1bd 0091 e422     ..>"."?.......".
   20103:	e2e2 e0e2 407f 007f 283f abfe abaa 00b6     .....@..?(......
   20113:	8288 aec2 a02e 203f a03f 2a6e 2aeb a06e     ......? ?.n*.*n.
   20123:	0030 a288 eaaa 20aa abe2 0aea a2ea 7ee0     0...... .......~
   20133:	4ad2 007b aa08 88c0 c0a2 407f 007f 2a6f     .J{........@..o*
   20143:	e02f 2a2f 006f 8288 c2ca e0ca 407f 007f     /./*o........@..
   20153:	92ea 06eb 93ea 00ea 8088 442a 20a2 407f     ..........*D. .@
   20163:	247f 904f fa00 abaa 00fa c0c4 a8e0 80ae     .$O.............
   20173:	407f 207f e43f 1227 27ed 0025 c2c4 e0c2     .@. ?.'..'%.....
   20183:	6068 407f 0a7f 5e64 d34a 564a 0068 8088     h`.@..d^J.JVh...
   20193:	2ee2 e022 a2e2 ebaa beaa ebaa a2aa 00e2     ..".............
   201a3:	8860 8ee8 6080 abe8 eaaa beab eaab abaa     `....`..........
   201b3:	00e8 080e 8a8e 002e 203f 20ff 0a3f aafe     ........? . ?...
   201c3:	faae 000f e880 a482 204a 007f 00ff 007f     ........J ......
   201d3:	755f 75d5 005f c4c4 44c0 40e4 203f 20ff     _u.u_....D.@? . 
   201e3:	003f 755f 75d5 005f e880 4480 40e4 80fe     ?._u.u_....D.@..
   201f3:	809f 40fe 545e 55fe 00de 042c a828 80ae     ...@^T.U..,.(...
   20203:	93d1 95ad 07d5 95d5 91a5 00d1 2206 222e     ............."."
   20213:	0026 8bfc aaba 0cfb 1213 12fe 0013 8a0e     &...............
   20223:	e2e0 e022 baff fbaa 7f0c 7c51 9093 0011     ..".......Q|....
   20233:	aee8 228a c008 abfc 8aba 0cfb 7e00 4ad2     ...".........~.J
   20243:	007b 8a0e 88e0 c0a2 cf29 0049 ff55 8b55     {.......).I.U.U.
   20253:	85f1 00fd 200e 4822 2042 cf29 4949 fb00     ..... "HB ).II..
   20263:	564a 4afa 009b 220e aa0e e0aa cf29 4949     JV.J..."....).II
   20273:	fc00 fda6 fda4 0000 220e e248 8026 cf29     ........."H.&.).
   20283:	0049 aae2 0aeb aaea 00e2 200e 8a00 00ae     I.......... ....
   20293:	cf29 0049 5213 7f54 9290 0013 200e 2eea     ).I..RT...... ..
   202a3:	e02a cf29 0049 ff11 2501 4bd5 0071 200e     *.).I....%.Kq.. 
   202b3:	040e 002e cf29 0049 aa22 3f6a aa6a 0022     ....).I.".j?j.".
   202c3:	200e c8aa a0ca cf29 0049 aa22 f623 aa23     . ....).I.".#.#.
   202d3:	0022 200e 442a 204a 2179 22ff 7447 d555     ".. *DJ y!."GtU.
   202e3:	7455 0047 e000 c4e0 e0c2 ca22 6a4b 3f4a     UtG.......".KjJ?
   202f3:	4aca 4a6b 0042 e800 aa88 00e0 ca22 6a4b     .JkJB.......".Kj
   20303:	3e4a 4aca 4a6b 0042 a222 4248 20a2 df20     J>.JkJB.".HB.  .
   20313:	7551 3557 55df 5577 0051 220e 2a6a 2062     QuW5.UwUQ.."j*b 
   20323:	c424 655f 305f 54d7 547f 0057 e08a a2e2     $._e_0.T.TW.....
   20333:	a0ea ca22 6a4b 3e4a 4aca 4b66 0052 ea88     ..".KjJ>.JfKR...
   20343:	aaaa 00ae ca2a 6b5e 424a ca2a 6a5e 004a     ....*.^kJB*.^jJ.
   20353:	8e44 aaaa 00ae c020 755f 5f55 d535 605f     D..... ._uU_5._`
   20363:	0040 4644 4644 4044 df20 5575 3f55 55d5     @.DFDFD@ .uUU?.U
   20373:	5f75 0040 4444 444e 4044 d224 6048 294f     u_@.DDNDD@$.H`O)
   20383:	49d9 4969 004f 8024 22e2 e022 c92d 6c4a     .IiIO.$.."".-.Jl
   20393:	3848 4ace 4a6a 004c aa02 aaae 00a2 c92c     H8.JjJL.......,.
   203a3:	6a4e 384b 4acb 4b6a 004c a4a2 e280 60aa     NjK8.JjKL......`
   203b3:	c121 754d 3555 59d7 4161 0041 a422 042e     !.MuU5.YaAA."...
   203c3:	20a2 d25f 525b 005f 685b 50cb 004b 46c4     . _.[R_.[h.PK..F
   203d3:	e0e0 e0c0 3f08 00c0 575d f555 5755 005d     .....?..]WU.UW].
   203e3:	000e 22e2 e022 3f08 57c8 54f4 40df 41fe     ...""..?.W.T.@.A
   203f3:	007e 080e e0aa 6068 3f08 bec0 fca5 a4a7     ~.....h`.?......
   20403:	a6fd 00bc 0a0e e8c8 a0ca 3f08 34c0 fe5b     ...........?.4[.
   20413:	3652 ff5a 0054 000e aaea 00ae 7f20 5580     R6Z.T....... ..U
   20423:	ff55 5555 007f 00ff 0624 0606 e082 3f08     U.UU....$......?
   20433:	5fc0 5474 54df 5f74 0000 0a0e eaaa 00aa     ._tT.Tt_........
   20443:	d77c 577c 037c 2221 23fc 00ac 0e2c 22aa     |.|W|.!".#..,.."
   20453:	a0a2 537e 53fe 017e 223f a4ff 0069 0c68     ..~S.S~.?"..i.h.
   20463:	2aaa e02a 5575 7755 ddd5 7755 5555 0075     .**.uUUw..UwUUu.
   20473:	4444 444e 4044 7f02 44d3 147f 9591 d1bd     DDNDD@...D......
   20483:	0091 822c e2e2 e0e2 7752 7f5a b79a ff52     ..,.....RwZ...R.
   20493:	9880 00e7 ae0e 0eae 0088 ff00 ff92 8f00     ................
   204a3:	acba baaa 008f 2e68 8e0e e08a ff00 ff92     ......h.........
   204b3:	4f60 d24a 4253 0060 2e68 c88a a08c d53f     `OJ.SB`.h.....?.
   204c3:	755f 081f 4949 49ff 0049 2422 2242 20e2     _u..II.II."$B". 
   204d3:	d53f 755f 481f f55f 5f55 0040 2422 e040     ?._u.H_.U_@."$@.
   204e3:	002e d53f 755f 401f 5564 55c8 0064 2422     ..?._u.@dU.Ud."$
   204f3:	4842 000e d53f 755f 001f b12a 3160 002a     BH..?._u..*.`1*.
   20503:	2422 2442 2084 d53f 755f 021f aaab afaa     "$B$. ?._u......
   20513:	00fa 2422 0840 002e 44a2 00bf 5f50 d575     .."$@....D..P_u.
   20523:	5f75 0050 c042 4e44 4044 d53f 755f 201f     u_P.B.DND@?._u. 
   20533:	2a2e 2aff 002e 02e0 48e2 40e8 d525 5549     .*.*.....H.@%.IU
   20543:	0865 d53f d53f 0015 22e2 e2e0 20e2 2406     e.?.?...."... .$
   20553:	2527 5fe5 5555 4467 0006 c422 444c 20c2     '%._UUgD..".LD. 
   20563:	4fe0 0060 f447 5f54 f454 0047 200e aeaa     .O`.G.T_T.G.. ..
   20573:	a0aa 524a 4a4c c372 7a4a 5244 004a ea2a     ..JRLJr.JzDRJ.*.
   20583:	aaae 20ea 7444 57d4 755c fc42 7c42 0006     ... Dt.W\uB.B|..
   20593:	aa2a aaae 20aa 7f00 7e54 c650 7e50 5650     *.... ..T~P.P~PV
   205a3:	0042 4a6a 246a 00c6 7f12 5557 d57f 4057     B.jJj$....WU..W@
   205b3:	404f 005f 2468 20e4 e0c2 7f12 4f44 c450     O@_.h$. ....DOP.
   205c3:	5557 5d55 0045 0e68 640c 40c6 7f12 5541     WUU]E.h..d.@..AU
   205d3:	db75 597d 5575 0041 2a68 4444 00a2 1221     u.}YuUA.h*DD..!.
   205e3:	447f 7764 6fea 776a 0044 8224 ae2a 60aa     .Ddw.ojwD.$.*..`
   205f3:	7f00 5269 fd4a 6a45 7d56 0041 2a68 aaa6     ..iRJ.EjV}A.h*..
   20603:	0044 7a4b 7aca 004b f28b 8a82 00fb aaea     D.Kz.zK.........
   20613:	e2e0 e022 3f20 27e4 2111 4dcb 4d59 004b     ..". ?.'.!.MYMK.
   20623:	2e68 4c0c 002e 7944 55d1 215d 55dd 6955     h..L..Dy.U]!.UUi
   20633:	0054 440e 4444 004e 509f d51f 90ff f09f     T..DDDN..P......
   20643:	909f 00ff c4e4 2ce8 e022 5644 7fd5 56d5     .......,".DV...V
   20653:	0044 88ff 00f7 aa8e 80ae 80e8 ad0a 3e6b     D.............k>
   20663:	eb2a 2a2e ac6b 000a ea22 aaae 20e2 0b68     *..*k...".... h.
   20673:	4aff fd09 ffa5 fda5 0001 e0c0 8ea4 2084     .J............. 
   20683:	b229 fb66 7321 1bad 1be4 00e0 4c2a 404e     ).f.!s......*LN@
   20693:	e0e0 0b68 0aff 5564 d754 5554 0064 e080     ..h...dUT.TUd...
   206a3:	2e48 4008 0b68 4aff 2a09 b96d 4c2a 002a     H..@h..J.*m.*L*.
   206b3:	e0c0 2482 0048 cb59 c97d 0359 a9fd a9a9     ...$H.Y.}.Y.....
   206c3:	00fd 4844 080e 4044 b32c 2c64 a473 7e20     ..DH..D@,.d,s. ~
   206d3:	4ad2 007b 4ee2 a824 c0a2 0038 08ff 4b78     .J{..N$...8...xK
   206e3:	4b92 4a72 007b 0c2c ae2e e0aa 001c 92ff     .KrJ{.,.........
   206f3:	004b d59f d5bf 001f 0a2c a2c4 a0a2 4990     K.......,......I
   20703:	5710 55f5 5557 57f5 0010 2e2c c444 204e     .W.UWU.W..,.D.N 
   20713:	4990 7c40 fd57 fd55 7c57 0040 002c 22e2     .I@|W.U.W|@.,.."
   20723:	00e0 4990 3f00 2b2a abfe abaa 0036 2c2c     ...I.?*+....6.,,
   20733:	aa8a 80c8 4990 f800 aeaa aafb aaac 00f8     .....I..........
   20743:	0a2c e8ca a0ca 4990 7700 5555 55ff 5555     ,......I.wUU.UUU
   20753:	0077 242c a662 2024 4990 2b10 8b48 3f48     w.,$b.$ .I.+H.H?
   20763:	3fe0 0020 022c c6a2 2084 4990 a100 bf42     .? .,.... .I..B.
   20773:	4b09 5afe 006b 042c 0e2c e0aa 4990 a100     .K.Zk.,.,....I..
   20783:	bf42 6b58 6aca 005f 042c 082c e0aa 4990     B.Xk.j_.,.,....I
   20793:	7f00 7f54 d455 547f 005d 2c2c 402e 60ea     ..T.U..T].,,.@.`
   207a3:	4990 5000 755f 55d5 5f75 0050 042c e444     .I.P_u.Uu_P.,.D.
   207b3:	4044 2244 64bf 1027 28eb 292f 002d c24a     D@D".d'..(/)-.J.
   207c3:	c2e2 20e2 4990 bf20 aaaa 20ff 21fe 003e     ... .I .... .!>.
   207d3:	882c e888 6068 4990 dd33 2011 49ff ff49     ,...h`.I3.. .II.
   207e3:	0049 222c e240 202e 003e 20ff 7f00 5555     I.,"@.. >.. ..UU
   207f3:	55ff 005f e000 e468 e0e4 5565 7d56 d755     .U_...h...eUV}U.
   20803:	7d55 5556 0065 4404 446e 0044 5262 6e5b     U}VUe..DnDD.bR[n
   20813:	da4a 6e4a 525b 0062 ea00 aaaa 00e0 5d61     J.Jn[Rb.......a]
   20823:	5f45 d540 5d57 5755 0061 0e2c 220e 002e     E_@.W]UWa.,.."..
   20833:	fc02 aaa8 20bd d269 6b51 0049 c8aa 888e     ..... i.QkI.....
   20843:	a042 5f90 e800 fab3 eaaa fbb2 00a8 402e     B.._...........@
   20853:	aaea 00ae 2722 35ea e240 1a44 e44a 0042     ...."'.5@.D.J.B.
   20863:	000e aa0e 00ae e422 322f 5755 05fd 57fd     ......"./2UW...W
   20873:	00b0 e000 440e 004e cf42 0a74 c03f f504     .....DN.B.t.?...
   20883:	959f 00f4 000e 48e0 40e8 67a2 0239 72a8     .......H.@.g9..r
   20893:	fa27 7722 00aa 080e a40a 20c2 e722 053a     '."w....... ".:.
   208a3:	557f 5555 9595 001d 020e e4c4 e0e4 5f90     .UUU..........._
   208b3:	2000 807f 5555 55ff 0055 402e 2424 2024     . ..UU.UU..@$$$ 
   208c3:	5f90 3f00 5f90 bf15 9593 00ff 4e2e 4e02     ._.?._.......N.N
   208d3:	e042 5f90 0800 b5af bce6 25e6 0037 402e     B.._.......%7..@
   208e3:	eae0 e0e0 a4fc baab 02ee aae6 e4bf 00ac     ................
   208f3:	ea22 aaaa 20e2 ff00 b7aa b0a8 a2ae aabf     ".... ..........
   20903:	00ea 0e68 c202 a0ea ff00 efa0 eaaa 7e0f     ..h............~
   20913:	4ad2 007b 0e68 e8aa c0a2 e13e 883e 8abf     .J{.h.....>.>...
   20923:	fa8a aaaa 00aa 6068 a8a8 e0ca f927 3c23     ......h`....'.#<
   20933:	5a6b fa4a 5a4a 006b 8424 eae2 e0e2 e13e     kZJ.JZk.$.....>.
   20943:	003e aaba aafa aafa 00ba 6068 aea8 a088     >.........h`....
   20953:	f927 3f20 dd60 d755 dd55 0061 8424 0e0c     '. ?`.U.U.a.$...
   20963:	c000 f827 3e21 fb0a aaae fbae 000e 4268     ..'.!>........hB
   20973:	a402 20a2 f927 3c23 fa00 f8ad fba9 0001     ... '.#<........
   20983:	8624 8eac a004 e13e 003e 745f df55 7455     $.....>.>._tU.Ut
   20993:	005f 6068 c4e0 e0c2 f18f 959f 9595 9595     _.h`............
   209a3:	d1bf 009f 4446 e4e0 6044 aa91 aad7 02fa     ....FD..D`......
   209b3:	aa97 aad2 00fa ea00 eaaa a0aa b492 b29f     ................
   209c3:	1ad2 3622 74cb 0042 ea00 aaaa 00e0 f4a8     .."6.tB.........
   209d3:	e4bf 0536 d52c 6857 0048 aa22 a8aa c0aa     ..6.,.WhH.".....
   209e3:	84bc 07fd aab8 aafa aafa 00b8 2c8a aeac     .............,..
   209f3:	a08c da36 0012 aab8 aafa aafa 00b8 8044     ..6...........D.
   20a03:	aeac a08c da36 6012 fb0e aaae fbae 000e     ....6..`........
   20a13:	8044 a422 20a2 da36 6212 fa00 fcab faa9     D.".. 6..b......
   20a23:	0000 8044 aeac a08c dd33 0011 92ea 06eb     ..D.....3.......
   20a33:	93ea 00ea 4022 442a 20a2 84bc 07fd 7f00     ...."@*D. ......
   20a43:	db49 5b75 007f 2c8a 6a24 2024 5927 2292     I.u[...,$j$ 'Y."
   20a53:	d281 f9a4 a2d5 00f9 4422 a208 0044 da36     ........"D..D.6.
   20a63:	0012 be40 bf6a be6a 0000 8244 ceaa a0ca     ..@.j.j...D.....
   20a73:	2a2a 4aff fa4b ffaa faaa 0003 e448 48e0     **.JK.......H..H
   20a83:	e0c2 2a2a 2aff a500 3369 69fd 00a5 e848     ..**.*..i3.i..H.
   20a93:	a442 204a ff88 0088 f25e 5f52 f252 005e     B.J ....^.R_R.^.
   20aa3:	804c aeaa a0aa 7f44 0044 f557 555f 57f5     L.....D.D.W._U.W
   20ab3:	0050 824c c4e4 204e 7f44 0444 3aef ef2a     P.L...N D.D..:*.
   20ac3:	2a3a 00e8 804c aeea 20aa 7f44 0044 99f5     :*..L.... D.D...
   20ad3:	03f5 99f5 00f5 804c 442a 204a 7f44 0044     ......L.*DJ D.D.
   20ae3:	557f 75cb 5b55 007f 864c 2a0e 6060 ff88     .U.uU[..L..*``..
   20af3:	0088 5f50 d575 5f75 0050 804c 4e44 4044     ..P_u.u_P.L.DND@
   20b03:	7f44 2044 24ff 1827 29ef 002d a44c c282     D.D .$'..)-.L...
   20b13:	20c2 6f40 6f7a ff40 6f40 6f7a 0040 cc2a     . @ozo@.@ozo@.*.
   20b23:	8c80 20ca fb28 aaaa b7aa 02aa abaa 00a8     ... (...........
   20b33:	888e 8888 80ae f828 a6ad 2cb4 5454 a6a5     ......(....,TT..
   20b43:	0000 ea08 aaaa 00ae ff22 2524 25fd a0bf     ........".$%.%..
   20b53:	a0ef 00bf 0e2e 242e 2084 ff21 ff22 9fb2     .......$. !."...
   20b63:	9eb2 97b0 0098 2c2e 4268 6048 5f56 5ff0     .......,hBH`V_._
   20b73:	1256 fa57 3652 0053 2e68 ea00 e0aa ff22     V.W.R6S.h.....".
   20b83:	0224 ab7e beaa ebaa 003e 002e aa0e 00ae     $.~.....>.......
   20b93:	4949 54f2 2b5a 54ca 4952 0079 ae22 aeae     II.TZ+.TRIy."...
   20ba3:	20a2 ff22 0024 d65e 527a d77a 005e 002e     . ".$.^.zRz.^...
   20bb3:	a88c 80ae ff22 0024 5d69 df75 5d75 0069     ....".$.i]u.u]i.
   20bc3:	002e 4ec4 c044 ff10 0010 aaff a9bd a9bf     ...ND...........
   20bd3:	00fd 864c c484 40e4 ff80 ffa4 7784 fd54     ..L....@.....wT.
   20be3:	7754 0004 8e4c 48aa 204a f55d f55f 005d     Tw..L..HJ ]._.].
   20bf3:	80fe 809f 00fe c422 4842 200e f547 f55f     ......".BH. G._.
   20c03:	8847 214f f826 0027 e444 c442 2022 5d50     G.O!&.'.D.B." P]
   20c13:	55f5 7f55 5555 5ef5 0051 0624 a222 6060     .UU.UU.^Q.$.".``
   20c23:	f547 f55f 0047 5954 9970 0094 e444 4842     G._.G.TYp...D.BH
   20c33:	000e 5c50 55f7 555d 555d 5cf7 0050 c444     ..P\.U]U]U.\P.D.
   20c43:	4446 40c4 555f 57fc 555c 5c52 54f5 0056     FD.@_U.W\UR\.TV.
   20c53:	ace8 2488 2084 5555 53fe 515e 4d52 5fe5     ...$. UU.S^QRM._
   20c63:	0045 a244 42c8 202e 5f42 4aea 4a4b 4a4b     E.D..B. B_.JKJKJ
   20c73:	5eea 0043 aa2e 2ae0 204a 5f44 5ff5 4844     .^C....*J D_._DH
   20c83:	4b5c 5be8 0048 4e4c 2440 c0c2 4040 40e0     \K.[H.LN@$..@@.@
   20c93:	4040 4040 40e0 0040 0000 0000 0000 4b49     @@@@.@@.......IK
   20ca3:	ea5e 5f4a ea4a 4b5e 0049 aa0e aaae 00ae     ^.J_J.^KI.......
   20cb3:	5740 47ed 574d 4f40 53ea 0052 4e4c 684c     @W.GMW@O.SR.LNLh
   20cc3:	000e 80ff f19f 009f 5555 55fd 0055 2ee2     ........UU.UU...
   20cd3:	a220 a0c2 2621 22ff f55d 5f55 f555 005d      ...!&."].U_U.].
   20ce3:	e000 2e22 2022 2c23 24ff 5a6b fa4b 5a4b     .."." #,.$kZK.KZ
   20cf3:	006b e000 aae2 e0a2 ff26 7f24 5f42 ff4a     k.......&.$.B_J.
   20d03:	c340 004c 2c0e 82ae 60c2 ff26 0024 abba     @.L..,...`&.$...
   20d13:	faa2 aaa2 00ba 000e 8808 e0aa 2c23 22ff     ............#,."
   20d23:	6eb0 eb2a 6e2a 00b0 e000 ae2a 20aa 5149     .n*.*n....*.. IQ
   20d33:	55fd 57a9 55a9 51fd 0049 4422 8480 2042     .U.W.U.QI."D..B 
   20d43:	ff26 7f24 bfa4 3fe4 2448 00ff 0e0e ae88     &.$....?H$......
   20d53:	e088 a2bf a4fc 00bf a9fb a8ab 00f9 a2ea     ................
   20d63:	e4e0 60ea a2bf a4fc 44bf 5d65 5dc5 0065     ...`.....De].]e.
   20d73:	aaea e2e0 e022 ff00 aba8 abba abee ebba     ...."...........
   20d83:	00a8 0e68 ae2e 002e ff00 af84 baaa aaef     ..h.............
   20d93:	efba 00a4 2a68 eac8 60ea ff00 aaa4 aab7     ....h*...`......
   20da3:	aaea eab7 00a4 0068 acea a0a6 ff84 8f88     ......h.........
   20db3:	d521 7349 fd49 0049 4c0c 0e2c 200c 9f84     !.IsI.I..L,.. ..
   20dc3:	8fe8 6450 d74d 6d48 0052 4c0c e248 2084     ..PdM.HmR..LH.. 
   20dd3:	8572 a8aa f282 af82 82aa 0072 8024 8ee8     r.........r.$...
   20de3:	e08a e45c 454f 547f d47d 547d 005d e288     ..\.OE.T}.}T]...
   20df3:	eac0 60ea 7117 f116 0057 bda5 bde5 0085     ...`.q..W.......
   20e03:	22e2 e2e0 e022 7117 f116 0057 88fb 898f     .".."..q..W.....
   20e13:	00f9 22e2 84e4 20c2 243f aafd 06ab 80f9     ..."... ?$......
   20e23:	819f 00fc e2ea 2cea 200e 92ff 00ff 5311     .......,. .....S
   20e33:	f15d 5355 0011 e2e2 e2e2 e0e2 92ff 00ff     ].US............
   20e43:	5f40 f654 5f52 0040 e0e2 88ac a08c 497f     @_T.R_@........I
   20e53:	007f bec0 abaa beaa 00c0 e0e2 88ac a08c     ................
   20e63:	407f 007f f557 0057 4422 0089 8088 a0a6     .@..W.W."D......
   20e73:	8024 407f 007f 5758 f555 5755 0058 c0c4     $..@..XWU.UWX...
   20e83:	e222 20e2 407f 007f 5f40 55f5 5ff5 0041     ".. .@..@_.U._A.
   20e93:	8488 6ae2 e042 aafb aaff 00fb a0bf a0e7     ...jB...........
   20ea3:	00bf 8ae4 24e0 2084 4f88 fb02 aaac afaa     .....$. .O......
   20eb3:	aaaa 00fa 2e2c ae2a a0aa 407f 007f b2ff     ....,.*....@....
   20ec3:	b297 b796 0098 8688 8086 6068 90f3 f29f     ..........h`....
   20ed3:	1f00 f515 5f55 0000 c4e2 4e04 4044 90f3     ....U_.....ND@..
   20ee3:	f29f fd01 ffa5 fda5 0001 e4e2 0e2c 200c     ............,.. 
   20ef3:	4879 794f e414 243f 203f 003f e4e2 082c     yHOy..?$? ?...,.
   20f03:	e0e2 90f7 f29f 5515 7d5b 9599 0015 e4e2     .......U[}......
   20f13:	a402 204a 90f7 929f 50ff 5c57 9475 0097     ..J .....PW\u...
   20f23:	e4e2 2482 2084 90f7 f29f 7e01 4141 49df     ...$. .....~AA.I
   20f33:	0049 e4e2 e2e0 e022 90f7 84ff 1f52 8252     I.....".....R.R.
   20f43:	90ff 00ef c4e2 4268 00e8 90f7 f29f 2a26     ......hB......&*
   20f53:	5533 55ff 007d c4e2 a2a4 20a2 90f3 f29f     3U.U}...... ....
   20f63:	ff00 9595 959f 00f5 e4e2 e268 e022 223e     ..........h.".>"
   20f73:	22ff ac0a eabb acab 000a e422 eae0 00e0     ."........".....
   20f83:	223e 22ff 493d 4be9 49e9 000d e422 8e24     >"."=I.K.I..".$.
   20f93:	2084 223e 22ff 523f f75a 525a 005f c422     . >"."?RZ.ZR_.".
   20fa3:	8ee0 e082 223e 22ff 6a50 5fca 6a4a 0052     ....>"."Pj._JjR.
   20fb3:	e422 aee2 20aa 223e 22ff 203e 57fc 7d55     ".... >"."> .WU}
   20fc3:	0040 e422 a4e2 204a 223e 22ff 553e ff05     @."...J >".">U..
   20fd3:	5505 007c e422 a4e2 204a 223e 22ff a53f     .U|."...J >"."?.
   20fe3:	91d7 5196 0026 e422 e8e4 6068 223e 22ff     ...Q&."...h`>"."
   20ff3:	e43f 1027 2be9 002d e222 e0c2 002e 223e     ?.'..+-.".....>"
   21003:	22ff 003e 37aa 37fa 00aa e422 aae0 20c4     .">..7.7..".... 
   21013:	407f 007f 1a52 13f6 1af6 0052 8088 c8aa     .@..R.....R.....
   21023:	a0ca 407f 087f aaff a8af f8af 000f 8488     ...@............
   21033:	e4c4 a0a4 aae2 0aeb a2ea 90ef 90f7 009f     ................
   21043:	aa08 24c0 2084 407f 207f 807f 5555 55ff     ...$. .@. ..UU.U
   21053:	0055 a488 2404 2024 407f 007f 5a7e ffc8     U....$$ .@..~Z..
   21063:	5a48 007e 8088 c8aa a0ca 407f 007f 322e     HZ~........@...2
   21073:	b75a 325a 002e 8088 eae8 e0ca 407f 007f     Z.Z2.........@..
   21083:	351f 5fd5 7555 001f 8088 220e 002e 407f     .5._Uu....."...@
   21093:	007f d77c 7d45 d745 007c c0c4 220e 002e     ..|.E}E.|...."..
   210a3:	407f 007f 97a8 15f5 57f5 00a8 8088 622a     .@.......W....*b
   210b3:	206a 2aeb ee2b ea2b a0bf a0e7 00bf c0e0     j .*+.+.........
   210c3:	e2c2 20c4 203f 20ff 003f fd55 fd17 0055     ... ? . ?.U...U.
   210d3:	e880 2480 2084 203f 20ff 523f 5a77 9a7f     ...$. ? . ?RwZ..
   210e3:	00b7 e880 ea80 e0ea 007f 00ff 217f 21ab     .............!.!
   210f3:	23f9 00a9 c4c4 48ca 404e 007f 00ff 9a8b     .#.....HN@......
   21103:	0aea 5aea 00ab c4c4 aaae a0ae baff fbaa     ...Z............
   21113:	000c 497f 8949 0089 aee8 0e0c e022 f718     ...II......."...
   21123:	b595 18f7 d525 5549 0065 440e e2e0 e022     ....%.IUe..D..".
   21133:	f718 b595 18f7 6a51 59c4 0046 440e 24e8     ......Qj.YF..D.$
   21143:	2084 cf29 0049 fd85 a8a5 fda9 0089 200e     . ).I.......... 
   21153:	a024 a0a4 cf29 0049 ba83 aaab baab 0083     $...).I.........
   21163:	200e 4ee0 e042 cf29 4949 7d00 55d5 d57d     . .NB.).II.}.U}.
   21173:	0054 220e 4802 e00a cf29 0049 557d d755     T..".H..).I.}UU.
   21183:	5555 007d 200e 0e2c 200c cf29 0049 4a7b     UU}.. ,.. ).I.{J
   21193:	4b92 4a72 007b 200e aeea e0aa cf29 0049     .KrJ{.. ....).I.
   211a3:	6ba4 2322 6b22 00a4 200e 2e2e 202e cf29     .k"#"k... ... ).
   211b3:	4949 6200 da55 5251 0064 220e 4a0a 40e8     II.bU.QRd..".J.@
   211c3:	cf29 4049 6f00 ca4a 5253 0060 200e 88ac     ).I@.oJ.SR`.. ..
   211d3:	a08c 5651 94ff fa02 f9ad fbaf 0006 e000     ..QV............
   211e3:	a42a 204a cf20 6a48 2a4a 4bdc 5b68 0048     *.J  .HjJ*.Kh[H.
   211f3:	0e2c 02ae 60c2 c424 745f 3d54 54d4 645f     ,....`$._tT=.T_d
   21203:	0044 a202 4248 00a2 c220 4a6e 2b5a 4aca     D...HB.. .nJZ+.J
   21213:	426e 0040 aa22 aaae 20a2 c722 7458 3744     nB@.".... ".XtD7
   21223:	55d5 5d75 0004 040e 4cc6 4046 cd25 5576     .Uu].....LF@%.vU
   21233:	3756 54d5 567d 0044 a444 08ae 2042 0aff     V7.T}VD.D...B ..
   21243:	08fb abff afaa aeaa 003b e2e0 8ece e08a     ........;.......
   21253:	3f08 00c0 aa7f aaba eaba 003a 060e aa8e     .?........:.....
   21263:	e0aa c721 ea18 eb2a ea2a e03f 003f 0a0e     ..!...*.*.?.?...
   21273:	aaae 6068 7a16 db52 7e56 f612 aaaa 00f6     ..h`.zR.V~......
   21283:	ea44 aaaa 00ae 5465 9f64 ffa4 fc24 aaaa     D.....eTd...$...
   21293:	0036 2e08 2c48 200e 5d63 9765 c5a5 7e00     6...H,. c]e....~
   212a3:	4ad2 007b 2e06 8826 c0a2 92ff 00ff aaba     .J{...&.........
   212b3:	aafa aafa 00ba e0e0 aeac a08c 92ff ff92     ................
   212c3:	ad4a ef38 ad38 004a 2ee0 ae24 2084 d53f     J.8.8.J...$.. ?.
   212d3:	755f 011f aabe aaff 00be 2422 a442 20c2     _u........"$B.. 
   212e3:	d53f 157f a4bf bfa2 a2a4 00bf 4422 2ee0     ?..........."D..
   212f3:	e002 d53f 755f 441f 5827 df6a 004a 4422     ..?._u.D'Xj.J."D
   21303:	c224 202a d53f 157f 007f 40fc 4875 0074     $.* ?......@uHt.
   21313:	4422 aa02 a0ea d53f 157f 447f 127f ff11     "D....?....D....
   21323:	0010 4422 c0c4 002e d53f 755f 421f 6a56     .."D....?._u.BVj
   21333:	948b 0086 4422 8204 40e8 d53f 755f 621f     ...."D...@?._u.b
   21343:	ca4b 4a4b 0062 4422 8024 60e2 42a1 00bf     K.KJb."D$..`.B..
   21353:	a9ff a98f 93be 009c c242 c0c2 6068 44a2     ........B...h`.D
   21363:	00bf 5f48 d575 5f75 0048 c042 2e48 4008     ..H_u.u_H.B.H..@
   21373:	d53f 755f 001f 6abe 6a3f 00be c2e0 88e8     ?._u...j?j......
   21383:	80e8 4fe0 5760 55f5 20f7 e13e 003e 2e0e     ...O`W.U. >.>...
   21393:	e044 6068 4fe0 0060 affa 02da affa 00da     D.h`.O`.........
   213a3:	200e 88ac a08c 7f00 5154 517d 52c6 507c     . ......TQ}Q.R|P
   213b3:	0054 4468 aa4e 60aa 7f00 7d44 d456 547d     T.hDN..`..D}V.}T
   213c3:	7d56 0044 a268 eaaa a0a2 7f12 7f55 c055     V}D.h.......U.U.
   213d3:	5e51 5f51 0040 4e6a 2a2a 0026 7f12 5f50     Q^Q_@.jN**&...P_
   213e3:	d575 7555 505f 0040 4468 c464 0064 7f12     u.Uu_P@.hDd.d...
   213f3:	5f42 5f72 5dc2 5d51 0044 2c68 0aae 204a     B_r_.]Q]D.h,..J 
   21403:	7f12 5444 4a57 4ad2 5457 0044 0068 8ae8     ..DTWJ.JWTD.h...
   21413:	00e0 4744 6a48 d057 6a57 4748 0044 0a68     ..DGHjW.WjHGD.h.
   21423:	eae2 000e 3fa4 01a4 aefa abaa faaa 0003     .....?..........
   21433:	80ac a2e2 e082 a929 aa7f e900 e93e 282f     ......).....>./(
   21443:	00e9 8024 2448 6088 1f00 4820 4444 4444     ..$.H$.`.. HDDDD
   21453:	2048 001f 4208 2aa2 8024 4f88 2200 76ac     H ...B.*$..O.".v
   21463:	ff25 6f35 00a5 222c 22aa 202a 0b68 49ff     %.5o..,"."* h..I
   21473:	d724 6a5a eb0a 0048 e0c0 aa0e 00ae 0b68     $.Zj..H.......h.
   21483:	49ff b926 2066 b966 0026 e0c0 606a 606a     .I&.f f.&...j`j`
   21493:	0b68 4aff a901 b7a9 a1fd 0031 e080 8e44     h..J......1...D.
   214a3:	4084 0038 10ff 697f 75db 415b 007f 0a2c     .@8....i.u[A..,.
   214b3:	2a4e 6068 0038 10ff 6a4f c95d 6a5f 004f     N*h`8...Oj]._jO.
   214c3:	082c c4e0 e0c2 003c 10ff d3a8 06fa d2aa     ,.....<.........
   214d3:	00fb 082c aa4e e0aa 4990 5700 57f5 2628     ..,.N....I.W.W(&
   214e3:	ff20 0020 0a2c 026a 002e 4990 ff20 ff2a      . .,.j....I .*.
   214f3:	ff20 8f88 0088 ac2c ac8c 000e 01d8 4358      .....,.......XC
   21503:	42fa 425a 43fa 0058 0e2c 8888 00ae 4990     .BZB.CX.,......I
   21513:	6800 6a5f 4aca 5f6a 0068 022c e8ca 208c     .h_j.Jj_h.,.... 
   21523:	4990 4900 887f 2a4f 2afa 004f 802c e8e8     .I.I..O*.*O.,...
   21533:	e0aa a945 2c42 b3aa b4ea a9aa 0021 ae22     ..E.B,......!.".
   21543:	aeae 20a2 4990 fa01 aaae 0202 aaaa 00fb     ... .I..........
   21553:	0e2c 0c0c e00a 4990 4f00 5a6a 4acf 6f5a     ,......I.OjZ.JZo
   21563:	0048 0a2c eaaa 20aa 4990 ff00 aaa0 aeab     H.,.... .I......
   21573:	abba 00ea 2c2c e80a 80ae 007e 20ff fb02     ....,,....~.. ..
   21583:	aeaa fbaa 0002 e000 ae28 2088 003e 20ff     ........(.. >.. 
   21593:	5f50 df75 5f75 0050 e000 2e22 2022 5265     P_u.u_P..."." eR
   215a3:	5657 f25a 565a 5257 0065 c822 88ae 20c2     WVZ.ZVWRe.".... 
   215b3:	4f68 6754 47c8 4f74 6f48 0018 2e2c 2e2c     hOTg.GtOHo..,.,.
   215c3:	202c 5f90 5f00 f355 5f55 ff08 0048 4e2e     , ._._U.U_..H..N
   215d3:	4e4e e080 6fa2 0532 0273 22fb 52c3 004b     NN...o2.s..".RK.
   215e3:	020e e2e2 e0e2 2722 35ea fa00 ab83 83aa     ......"'.5......
   215f3:	00fb 000e 4e0a e0a4 ef22 0035 407f 545f     .....N..".5..@_T
   21603:	aafe 00a6 060e ac86 208e 5f90 2000 aa7f     ......... ._. ..
   21613:	aab2 32e6 002a 422e eac0 00ae f806 a8aa     ...2*..B........
   21623:	a9ae 50ea fe42 0040 222a 4248 202a ff00     ...PB.@.*"HB* ..
   21633:	b7aa b5a8 a5af a5bf 00ef 0e68 a402 204a     ..........h...J 
   21643:	fe20 3e21 5d51 f557 5d57 0051 8606 220e      .!>Q]W.W]Q...."
   21653:	002e f349 4b41 0079 92fe 92fe 00fe 022e     ..I.AKy.........
   21663:	e2e4 60a2 caa4 15f2 d4a9 10f8 10ff 00d3     ...`............
   21673:	a42a 0048 602c bb94 b29e 1ad7 d626 544b     *.H.,`......&.KT
   21683:	0064 aa2a aaea 20a4 da36 2512 25fd 9e20     d.*.... 6..%.% .
   21693:	d0b1 009e 8e44 242e 2084 dd33 0011 5755     ....D..$. 3...UW
   216a3:	7fd5 57d5 0055 4022 220e 002e da36 0012     ...WU."@."..6...
   216b3:	ab3e 3e66 ab66 003e 8044 aa0e 00ae 84bc     >.f>f.>.D.......
   216c3:	07fd ff00 aba2 baae 00eb 2c8a ae2c 80ae     ...........,,...
   216d3:	db2a 5b2a fb02 2b06 2ada 005a ae0e 0aae     *.*[...+.*Z.....
   216e3:	604a 2a2a 4aff 2b28 2ffa 2bfa 0028 e848     J`**.J(+./.+(.H.
   216f3:	888e 80ae ff2a 004a a5ff a9bd abb1 00b5     ....*.J.........
   21703:	86ce 8480 002e ff2a 002a 6a4e ce5b 6a5a     ......*.*.Nj[.Zj
   21713:	004e 84ce 8806 e0aa ff88 0088 3aaa 2fea     N............:./
   21723:	3aea 00aa 804c c8aa a0ca 4444 447f fb02     .:..L.....DD.D..
   21733:	aeaa fbaa 0002 8844 ae2c 208c 5557 55fd     ......D.,.. WU.U
   21743:	0057 4474 45c7 0075 44e4 c2e2 20e2 7f44     W.tD.Eu..D... D.
   21753:	0044 7b54 7f52 bb92 0014 804c ae0e 00ae     D.T{R.....L.....
   21763:	7f44 0044 b729 fb22 b321 0029 484c 8c24     D.D.).".!.).LH$.
   21773:	404e 5452 56fb 225e d666 764b 0042 ea22     N@RT.V^"f.KvB.".
   21783:	acaa 40e4 5b54 56f2 135e d626 774a 0044     ...@T[.V^.&.JwD.
   21793:	aa2a aaae 20ac fa2a aaaa b7aa 02aa aaaa     *.... *.........
   217a3:	00aa aa8e aaaa 80ae fe0a abaa aaac 5500     ...............U
   217b3:	5454 00a9 2e2e 0eaa 60aa f928 acab 29b1     TT.......`(....)
   217c3:	5755 a9a9 0051 e080 8e24 2084 ff22 5f24     UW..Q...$.. ".$_
   217d3:	5ff5 4921 498f 0021 042e 00e4 00e0 5141     ._!I.I!.......AQ
   217e3:	575d f555 5755 515d 0041 c620 4644 20c0     ]WU.UW]QA. .DF. 
   217f3:	575d 57f5 015d 5555 a9a9 0001 2e02 442a     ]W.W].UU......*D
   21803:	60e2 ff21 aa22 fe73 aa73 23fc 003c 0a2e     .`!.".s.s..#<...
   21813:	204a e0e0 5558 55fa 0659 82fb 0afa 001b     J ..XU.UY.......
   21823:	e4e8 2aa0 204a ba06 fbaa baaa f622 f6aa     ...*J ......"...
   21833:	0022 ea44 aaaa 00ae fa8a a8ab 92fe a03f     ".D...........?.
   21843:	a0e7 00bf a0a4 a4a4 2084 5f41 55f5 4155     ......... A_.UUA
   21853:	4f45 4fe5 0045 246a 2420 2004 f547 f55f     EO.OE.j$ $. G._.
   21863:	0047 15df 15f5 00df e444 e040 e002 f457     G.......D.@...W.
   21873:	545f 54ff a0bf a0e7 00bf 08e8 e20a 20c4     _T.T........... 
   21883:	5d52 f754 4a4a e05f 4a5f 004a c002 e2aa     R]T.JJ_._JJ.....
   21893:	a0ea 5c46 55f7 545d 545f 5df4 0046 44aa     ..F\.U]T_T.]F..D
   218a3:	ea80 60a2 fc48 fe54 5d52 d422 5448 0062     ...`H.T.R]".HTb.
   218b3:	acaa 8c8e a0aa 5040 55ff 5555 5555 50ff     ......@P.UUUUU.P
   218c3:	0040 0660 622a 20a6 4d5b 4dff 405b 5f44     @.`.*b. [M.M[@D_
   218d3:	4fe8 0048 4a2a 2420 2084 5f40 f555 495d     .OH.*J $. @_U.]I
   218e3:	eb4d 4b59 004d e2e0 44e0 40e4 5c4b 4ee9     M.YKM....D.@K\.N
   218f3:	5f40 5754 56f4 0055 42ac a880 80ae ff27     @_TW.VU..B....'.
   21903:	0b24 ff28 3f2a bee1 0065 480e aa4c a022     $.(.*?..e..HL.".
   21913:	ff27 ff22 bfd1 8fd1 97f0 0098 480e 022c     '."..........H,.
   21923:	6048 ff26 0124 5251 a978 aaa9 0028 040e     H`&.$.QRx...(...
   21933:	a4ea a0ea 2621 24ff 7f10 55d5 d57f 0055     ....!&.$...U..U.
   21943:	e000 6060 6060 ff26 0024 522e b79a 529a     ..````&.$..R...R
   21953:	002e 000e eae8 e0a8 2c23 24ff 7f22 beaa     ........#,.$"...
   21963:	3fea 0002 e000 aa0e 00ae ff26 4024 da7e     .?........&.$@~.
   21973:	4a6a cb7a 007e 080e 888c 80ae 2c23 24ff     jJz.~.......#,.$
   21983:	a9ff baa6 aaa7 00ea e200 88c8 80e8 ff27     ..............'.
   21993:	5720 2299 3605 5cd5 0075 040e 4a48 40c8      W.".6.\u...HJ.@
   219a3:	aafa aafe 01fa 94da 9494 00da aa2a aaae     ............*...
   219b3:	20aa 5559 5d77 f555 5555 5177 0059 4822     . YUw]U.UUwQY."H
   219c3:	080e 2042 aabf baac 910f ffa2 a291 00ff     ..B ............
   219d3:	cae8 2ee0 e002 a2bf a2fc 44bf 53ea ea52     ...........D.SR.
   219e3:	0044 aaea aee0 20aa a2bf a2fc 22bf 22fe     D...... ....."."
   219f3:	92ff 00ff aaea 22e2 e0e0 a2bf a2fc 00bf     ......."........
   21a03:	aafa aaab 00fa aaea e4e0 a0ea fcbf bfa2     ................
   21a13:	df00 1524 15ff 0024 aeea a22c a0e2 9f84     ..$...$...,.....
   21a23:	8fe8 9422 ff40 aaaa 00ba 4c0c 8eac a08c     ..".@......L....
   21a33:	ff00 bd90 bdd1 95d5 95fd 0094 2e68 8424     ............h.$.
   21a43:	202e 3329 b3e5 ff6d 91a0 b18e 00ff 6868     . )3..m.......hh
   21a53:	8068 e008 fc83 9f92 5758 f555 5755 0058     h.......XWU.UWX.
   21a63:	c002 622a 206a a2b2 b2b7 f0a2 b2a2 a2b7     ..*bj ..........
   21a73:	00b2 e848 4840 40e8 a5b4 b5b5 f0af b5af     ..H.@H.@........
   21a83:	a5b5 00b4 4644 e4c0 4044 a7b8 aaaa f8a2     ....DF..D@......
   21a93:	aaa2 a7aa 00b8 ac2a 8e88 60aa 7555 7cd6     ......*....`Uu.|
   21aa3:	0356 547a 9d52 0091 ea2a aaae 20ea e45c     V.zTR...*.... \.
   21ab3:	454f 69a4 fd33 6b31 00a5 e088 4caa 404e     OE.i3.1k.....LN@
   21ac3:	cfba 009a 5655 fd55 5655 0055 402e 4e46     ....UVU.UVU..@FN
   21ad3:	4046 4f88 3f00 fa20 adaa a9ab 00b2 2e2c     F@.O.? .......,.
   21ae3:	a62a a0a2 a97e 39e9 7ea3 d422 7448 0042     *...~..9.~".HtB.
   21af3:	4444 aaca 60a2 92ff 00ff aab8 aafa aafa     DD...`..........
   21b03:	00b8 e0e2 aeac a08c 497f 007f 6eb0 eb2a     .........I...n*.
   21b13:	6e2a 00b0 e0e2 aeaa a0aa 497f 207f eabf     *n.........I. ..
   21b23:	10bf 41ee 007e e4e2 e0c8 6068 417f 087f     ...A~.....h`.A..
   21b33:	f55f 7f55 f555 0051 0000 442a 204a 407f     _.U.U.Q...*DJ .@
   21b43:	007f dd51 7555 dd55 0051 c0c4 c4e0 e0c2     ..Q.UuU.Q.......
   21b53:	407f 087f fe52 0a52 fe52 0052 c0c4 aea8     .@..R.R.R.R.....
   21b63:	a088 487f 417f d575 4177 21fe 003e 8088     ...H.Au.wA.!>...
   21b73:	022e 6048 88fb fa8f fd41 f745 f555 0045     ..H`....A.E.U.E.
   21b83:	c4e2 8e24 2084 90f7 f29f ea0b ee2b ea2b     ..$.. ......+.+.
   21b93:	000b c4e2 c0e0 e0c2 90f3 f29f be20 ffaa     ............ ...
   21ba3:	beaa 0020 e4e2 aeaa a0aa 88f9 fa8f 5d01     .. ............]
   21bb3:	7f55 9d95 0001 c4e2 2ee0 e042 90f3 f29f     U.........B.....
   21bc3:	5544 7dd7 d555 0045 e4e2 2282 20e2 90f7     DU.}U.E....". ..
   21bd3:	f29f 7e01 aaab baab 0003 c4e2 c8e8 e0ca     ...~............
   21be3:	223e 22ff 4a3f 4aef 4aef 000b e422 08e8     >"."?J.J.J.."...
   21bf3:	e02a 223e 22ff 4a3e 5dea ed48 005a e422     *.>".">J.]H.Z.".
   21c03:	acc6 808e 223e 22ff 80ff eabe beab 0080     ....>"."........
   21c13:	e422 8284 40e8 223e 22ff 003e 557f 55d5     "....@>".">..U.U
   21c23:	007f e422 46e0 40a2 223e 22ff 7e43 d26b     .."..F.@>"."C~k.
   21c33:	7e6a 0043 e422 48ec e0c2 223e 22ff c53e     j~C."..H..>".">.
   21c43:	a129 cda9 0022 e422 2e2e 202e 223e 22ff     )...".".... >"."
   21c53:	c03e abbe beaa 00c0 e422 c84a a08c 407f     >.......".J....@
   21c63:	007f 293f ff28 abaa 00aa 8688 aea4 2084     ..?)(.......... 
   21c73:	407f 207f 6bc8 2f48 6bc8 0048 c2c4 aea2     .@. .kH/.kH.....
   21c83:	a0a2 407f 007f 5f50 d575 5f75 0050 c2c4     ...@..P_u.u_P...
   21c93:	6a40 8026 407f 007f 5665 d57c 567c 0065     @j&..@..eV|.|Ve.
   21ca3:	8088 ae2a 20aa 407f 007f 92ff 00f3 c754     ..*.. .@......T.
   21cb3:	0054 8088 e0e2 808e a0ef e2bf baaf efaa     T...............
   21cc3:	aaba 00ea e000 aeea a0aa 80ff fd90 f497     ................
   21cd3:	fd96 8092 00ff a6e2 a2ea e0e2 1f00 4820     .............. H
   21ce3:	4444 4444 2048 001f 4208 2aa2 8024 df52     DDDDH ...B.*$.R.
   21cf3:	0052 aab8 aafa aafa 00b8 200e 8eac a08c     R.......... ....
   21d03:	df52 0052 6eb0 eb2a 6e2a 00b0 200e ae2a     R.R..n*.*n... *.
   21d13:	20aa cf29 0049 fb0e aaae fbae 000e 200e     . ).I.......... 
   21d23:	a422 20a2 cf29 0049 2aef e02f 2a2f 00ef     ".. ).I..*/./*..
   21d33:	200e e0e8 e0e8 cf29 0049 557f ff55 7d55     . ....).I..UU.U}
   21d43:	0057 200e 4ee4 e044 df52 0052 6a4f cf5a     W.. .ND.R.R.OjZ.
   21d53:	6a5a 004f 200e eae0 e0e0 cf29 2049 64bf     ZjO.. ....).I .d
   21d63:	2527 4fd9 0049 200e e2e0 6048 cf29 4949     '%.OI.. ..H`).II
   21d73:	d280 f9a4 a2d5 00f1 220e a208 0044 ff49     ........."..D.I.
   21d83:	0092 7f22 beaa 3fea 0002 220c aa2e 20ae     .."....?..."... 
   21d93:	ff49 0092 4b52 42fe 4bfe 0052 220c aa2e     I...RK.B.KR.."..
   21da3:	20ae 5557 957d 0097 557f 55d5 007f 0624     . WU}....U.U..$.
   21db3:	262a 2004 5651 92ff 5a6b fa4b 5a4b 006b     *&. QV..kZK.KZk.
   21dc3:	e080 aae2 e0a2 d525 7d57 3755 5dd5 5577     ......%.W}U7.]wU
   21dd3:	0045 e444 444c 40e4 d731 7555 355f 55df     E.D.LD.@1.Uu_5.U
   21de3:	5775 0051 4822 080e 2042 de20 7a53 3656     uWQ."H..B  .SzV6
   21df3:	52db 615e 0040 ea22 caa2 60a2 df20 5770     .R^a@."....` .pW
   21e03:	3f55 76d6 5554 0006 2c68 8e24 60aa d427     U?.vTU..h,$..`'.
   21e13:	7d55 3555 5dd5 5475 0057 c4e0 4444 e0c2     U}U5.]uTW...DD..
   21e23:	557e 31a9 fd05 3101 5529 007e 222e e2e2     ~U.1...1)U~.."..
   21e33:	202e 751f df55 7555 001f 007f 00ff 4446     . .uU.Uu......FD
   21e43:	4046 e0a2 557d 55d7 a07d ff91 91a0 00ff     F@..}U.U}.......
   21e53:	6848 2e48 e082 537e 53fe a57e a6f8 a6f8     HhH...~S.S~.....
   21e63:	00bf 0c68 22aa e02a 6b3e 2bbe 213e f55f     ..h.."*.>k.+>!_.
   21e73:	5f15 0030 0c2c e2aa 606a c721 0319 aafc     ._0.,...j`!.....
   21e83:	02ff 9f90 0090 0e0e e80a 002e 2f12 aa6b     ............./k.
   21e93:	2e6b f01b 1017 0018 eaa4 ec4a 200c 92ff     k.........J.. ..
   21ea3:	00ff 5745 7fd5 57d5 0045 e0e0 220e 002e     ..EW...WE...."..
   21eb3:	ff00 ff92 6ba5 ff32 6b31 00a5 2e68 8c24     .....k2.1k..h.$.
   21ec3:	404e ff00 ff92 f79c e90f a9bf 00ef 2e68     N@............h.
   21ed3:	222c 60e4 d53f 755f 541f f359 5951 0014     ,".`?._u.TY.QY..
   21ee3:	4422 a40a 204a d53f 755f 241f ff24 ff00     "D..J ?._u.$$...
   21ef3:	0024 4422 8e08 800e d53f 755f 001f a9fb     $."D....?._u....
   21f03:	a9ab 00fa 2422 e440 60e2 d53f 755f 001f     ...."$@..`?._u..
   21f13:	aafb faaa 0003 2422 ea40 e0aa d53f 157f     ......"$@...?...
   21f23:	90ff fc97 9097 00ff 4422 aae2 e0a2 d53f     ........"D....?.
   21f33:	157f 527f 0293 5253 007e 4422 8024 60e2     ...R..SR~."D$..`
   21f43:	d53f 157f 88ff faab 88ab 00ff 4622 c480     ?..........."F..
   21f53:	e0c2 d53f 755f 601f 6597 6597 0097 2422     ..?._u.`.e.e.."$
   21f63:	e240 e0e2 6492 009f f559 1556 f554 005a     @....d..Y.V.T.Z.
   21f73:	c022 ac44 2084 44a2 52bf 52ff a07f e0af     ".D.. .D.R.R....
   21f83:	003f c842 a4e4 a084 7fa2 7f80 bfa5 bfe5     ?.B.............
   21f93:	9fe4 00f4 2c2c 2e0e 808e 4f88 7f00 beaa     ....,,.....O....
   21fa3:	3fea 9fe5 00f5 2a2c aa22 202a 447f c55f     .?....,*".* .D_.
   21fb3:	445f 7e00 4ad2 007b 04e4 a824 c0a2 7f00     _D.~.J{...$.....
   21fc3:	4f40 d755 475d 5752 005a 2c68 4e4e 808e     @OU.]GRWZ.h,NN..
   21fd3:	cc52 4277 a22e 2abe 24fb 00ae a222 0448     R.wB...*.$..".H.
   21fe3:	20a2 7f12 7c40 d556 547e 7c55 0040 2a68     . ..@|V.~TU|@.h*
   21ff3:	e888 200a 7f00 5f51 d751 5775 5f51 0051     ... ..Q_Q.uWQ_Q.
   22003:	2468 e002 2004 7f12 7b41 7b4d 7bc1 7b4d     h$... ..A{M{.{M{
   22013:	0041 0268 44a4 00a2 7f12 7649 da54 4a72     A.h..D....IvT.rJ
   22023:	5a54 0042 0a68 e8ca 00ca 7f12 5440 dd57     TZB.h.......@TW.
   22033:	5d75 5457 0040 0468 64c4 00c4 7f12 5f40     u]WT@.h..d....@_
   22043:	5b54 5bc9 5574 005a 0e68 4a48 a0ae 7f09     T[.[tUZ.h.HJ....
   22053:	5440 7e69 56c2 7c69 0040 882c a42a 8008     @Ti~.Vi|@.,.*...
   22063:	a32c 207c 9a7f bf56 9a96 00ff c0e0 8ee4     ,.| ..V.........
   22073:	e084 7f00 5e52 da7a 7c53 5a56 0076 aa68     ....R^z.S|VZv.h.
   22083:	e8c8 a0ca 7f00 5e52 da7a 7e53 5a56 0076     ......R^z.S~VZv.
   22093:	2a68 eaaa 20aa e587 a8bf aeab a8ab bcaf     h*... ..........
   220a3:	00a7 e0e4 a0a4 e0c8 6d54 4856 f35e 5252     ........TmVH^.RR
   220b3:	527e 0052 aa2a aaae 20aa 5645 d65f 7455     ~RR.*.... EV_.Ut
   220c3:	d55e 545c 0045 aa88 2ae8 604a 0b68 49ff     ^.\TE....*J`h..I
   220d3:	7d00 d755 7f55 0001 e080 8024 2084 2bbc     .}U.U.....$.. .+
   220e3:	2afe 02be f626 774a 0044 aa0e aaaa 00ae     .*..&.JwD.......
   220f3:	573e 969a 3e5b ff90 ff88 0080 aa0e 2ee0     >W..[>..........
   22103:	402c 0078 20ff 4f54 ca7a 4f7a 0054 0c2c     ,@x.. TOz.zOT.,.
   22113:	ae28 2088 0078 20ff 547e 7dd8 5458 007e     (.. x.. ~T.}XT~.
   22123:	0c2c c8aa a0ca 0078 20ff 7752 7f5a b79a     ,.....x.. RwZ...
   22133:	0012 0c2c ae0e 00ae 0078 20ff 07a4 b56a     ..,.....x.. ..j.
   22143:	a22f 0045 0c2c a62c 20e2 4990 2a2e 2aff     /.E.,.,.. .I.*.*
   22153:	202e 58cf 006f 482c 42e8 6048 4990 92ff     . .Xo.,H.BH`.I..
   22163:	20ff c97f ff49 0049 e22c e2e0 202e 4990     . ..I.I.,.... .I
   22173:	f800 f98f d524 5549 0065 222c 0ee2 e022     ....$.IUe.,"..".
   22183:	4990 0400 557f 55fd 55fd 007f 022c 622a     .I...U.U.U..,.*b
   22193:	206a 4990 7f20 b2aa aaaa f2aa 002a 2c2c     j .I .......*.,,
   221a3:	aa0e 00ae 4891 d53f 755f 961f 8fe2 00fa     .....H?._u......
   221b3:	c0e2 e802 808e 4990 7e40 7a43 7aca 7e43     .......I@~Cz.zC~
   221c3:	0040 222c aaea 20e2 4990 7f00 7555 d55f     @.,"... .I..Uu_.
   221d3:	755f 005f 2c2c e024 20e4 5565 7d56 d755     _u_.,,$.. eUV}U.
   221e3:	7d55 5556 0065 4422 84e2 20a2 5f64 5d55     U}VUe."D... d_U]
   221f3:	d555 5d55 5f55 0064 4e22 8422 20a2 5262     U.U]U_d."N".. bR
   22203:	6b56 cf4a 7352 5256 0062 868a 622a 808a     VkJ.RsVRb...*b..
   22213:	cf42 0a74 d2ab 06fa d2aa 00fb 000e aaea     B.t.............
   22223:	e0aa 9097 909f 5e50 f253 5e53 0050 e0c0     ......P^S.S^P...
   22233:	aa8e 80ae ff11 abab efab 7555 75df 0055     ..........Uu.uU.
   22243:	2a02 4c44 0022 a8b8 edab 3f05 b9e5 38e9     .*DL"......?...8
   22253:	000c 444c 444e 4044 88ff 00f7 affa a8aa     ..LDNDD@........
   22263:	afaa 00fa 80e8 a0a8 a0a8 f926 3c22 4b78     ..........&."<xK
   22273:	da7a 4b7a 0078 6068 aa2e 20ae d49a a1ba     z.zKx.h`... ....
   22283:	14da a0be a0e7 00be 8eac a48c 2084 da36     ............. 6.
   22293:	8812 004f 5774 57fd 0075 8244 2ec4 e022     ..O.tW.Wu.D...".
   222a3:	da36 6012 0a0e a1ee 0aee 000e 8044 ceaa     6..`........D...
   222b3:	a0ca da36 0012 aee8 abea aeea 00e8 8244     ..6...........D.
   222c3:	e224 a084 7f44 1244 ea2c 07b0 92e8 00e8     $...D.D.,.......
   222d3:	402e 8eac a08c 7f44 0044 293f f92e a9ae     .@....D.D.?)....
   222e3:	001a 8648 ac84 4008 7f44 0044 88fb 22ff     ..H....@D.D...."
   222f3:	c975 0075 824c c4e2 e0e2 4444 447f ea0e     u.u.L.....DD.D..
   22303:	a1ae eaae 000e 8844 ceaa a0ca 5314 f25e     ......D......S^.
   22313:	535e d626 774a 0044 aa2a aaae 20ac ff22     ^S&.JwD.*.... ".
   22323:	0024 7a0f cf4a 7a4a 000f 082e 88ac 808e     $..zJ.Jz........
   22333:	ff10 0010 7559 d756 7455 0059 804c a244     ....YuV.UtY.L.D.
   22343:	40c8 555b 57fd 0659 82fb 0af2 001b c4e4     .@[U.WY.........
   22353:	2ae0 204a 545e 56fd 235e aaf6 34ea 0064     .*J ^T.V^#...4d.
   22363:	aa8e aaae 80ae ff22 0124 aeab 07fa aaaa     ......".$.......
   22373:	00fa 002e aeea a0aa 5c56 56f5 7454 5454     ........V\.VTtTT
   22383:	5cf5 0056 aa2a aaae 202a f547 f55f 2247     .\V.*...* G._.G"
   22393:	24ff e02f 002f e444 e042 202e f547 f55f     .$/./.D.B.. G._.
   223a3:	774c ff55 7d55 0010 e444 2eac 2022 515d     LwU.U}..D..." ]Q
   223b3:	55f5 5d51 5551 51f5 005d 4664 464c 6044     .UQ]QU.Q].dFLFD`
   223c3:	5744 57f5 5f55 5755 57f5 0044 4446 646c     DW.WU_UW.WD.FDld
   223d3:	4046 6f50 df4a 4f6a da6a 5a4f 006a aa2a     F@PoJ.jOj.OZj.*.
   223e3:	88aa 80e8 484e 4ee8 5b6a 4e6a 4ae8 004e     ....NH.Nj[jN.JN.
   223f3:	acaa 8c8e a0aa ff26 7d21 55d7 097d 21fe     ......&.!}.U}..!
   22403:	003e 2c0e e002 6068 2c23 44ff 487a da7a     >..,..h`#,.DzHz.
   22413:	487a 0078 e000 aeac a08c 5048 50fe b1a8     zHx.......HP.P..
   22423:	a8fe fe50 0050 0e2c a222 4068 a2bf a2fc     ..P.P.,.".h@....
   22433:	51bf d57d 5555 005d aaea e2e2 e0e2 e5fd     .Q}.UU].........
   22443:	f5ad 20ad b5d5 35e9 0065 4a4a 4ae0 e04a     ... ...5e.JJ.JJ.
   22453:	9f84 8fe8 d574 4977 e11e 003e 4c0c 00ae     ....t.wI..>..L..
   22463:	6068 7f44 4f48 93a8 0aea 53ea 0028 4c0c     h`D.HO.....S(..L
   22473:	ea2a 20ea 5f68 ca6a 5f6a 7e68 4ad2 007b     *.. h_j.j_h~.J{.
   22483:	ae2c 288c c0a2 083b 48ff 004b aabb aaff     ,..(..;..HK.....
   22493:	00bb 2aea e8e0 e08a 7117 f116 0057 aaff     ...*.....q..W...
   224a3:	acab 00ea 22e2 aae4 a0ea 4a7f 7f54 ff4a     .....".....JT.J.
   224b3:	544a 4a7f 007f aae2 2a2e e0a2 2a36 aaea     JT.J.....*..6*..
   224c3:	01b6 94e2 9488 00e2 aa2a aaae 20aa 74af     ........*.... .t
   224d3:	25ff 6ff4 11a0 91fe 0056 e0e8 4aae 204c     .%.o....V....JL 
   224e3:	407f 007f a2b2 ebba a2ba 00b3 c2c4 2ec4     .@..............
   224f3:	20aa 407f 007f adb5 ffa5 ada5 00b5 8088     . .@............
   22503:	e0e0 e0e0 90f7 f49f 8a82 aafb feab 008b     ................
   22513:	c4e2 a0a4 a0a4 90f7 f29f 4a4b 4aef 4aef     ..........KJ.J.J
   22523:	004b e4e2 08e8 e00a 90f3 f29f d200 cbb6     K...............
   22533:	c492 0082 e4e2 c82a 20ca 223e 22ff 5750     ......*.. >"."PW
   22543:	5ff5 57f5 0050 e422 4c2e 204e 223e 22ff     ._.WP."..LN >"."
   22553:	555e 54fe 55fe 005e c622 aa0e 00ae 223e     ^U.T.U^.".....>"
   22563:	22ff a8ba aafa aafa 00b8 e422 aeac a08c     ."........".....
   22573:	447f 447f 487f 5a6f 5acf 006f c4c4 aaca     .D.D.HoZ.Zo.....
   22583:	a0ea 223e 22ff 6eb0 eb2a 6e2a 00b0 e422     ..>".".n*.*n..".
   22593:	ae2a 20aa 223e 22ff 5f50 d575 5f75 0050     *.. >"."P_u.u_P.
   225a3:	e422 4ee4 4044 407f 007f 566a c05c 565c     "..ND@.@..jV\.\V
   225b3:	006a 8088 aeac a08c a9e0 ebbf a9bf eba0     j...............
   225c3:	afa9 00e1 4e4c 444c e042 aaef e9ac aaac     ....LNLDB.......
   225d3:	afe8 efa8 0008 48ea 0c4a 002e e804 b3be     .......HJ.......
   225e3:	beea b3ea e8be 0004 0e00 aeaa 0000 6e03     ...............n
   225f3:	2a2b e822 2b2a 6e2a 000b caaa 2e2c 20aa     +*".*+*n....,.. 
   22603:	8afa aaff 00fa 0879 08ff 0079 a8a8 e2a0     ......y...y.....
   22613:	e0e2 aafa caff 2dfa 114a 10ff 001f a8a8     .......-J.......
   22623:	8aac e0c2 baff fbaa fd0d ffa5 fda5 0001     ................
   22633:	aee8 8e24 2084 f718 b595 18f7 d67d 557c     ..$.. ......}.|U
   22643:	007c 440e 88e8 808e df52 0052 afb8 aafa     |..D....R.R.....
   22653:	affa 00b8 200e 8e88 8088 cf29 ff49 9fa9     ..... ....).I...
   22663:	8ba9 b984 008c 2c0e 022c 6048 cf29 0049     .......,,.H`).I.
   22673:	5f28 ca6a 5f6a 0028 200e ae2c 208c cf29     (_j.j_(.. ,.. ).
   22683:	4449 d775 4e71 1ef1 0010 2a0e 24e0 2084     IDu.qN.....*.$. 
   22693:	cf29 7f49 5780 bf96 9695 00ff 2e0e ce0a     ).I..W..........
   226a3:	e0ca cf29 0049 5761 cf65 5765 0061 200e     ..).I.aWe.eWa.. 
   226b3:	4ec4 c044 cf29 9e49 f392 e90f e9bf 000f     .ND.).I.........
   226c3:	280e 222c 60c4 cf29 0049 9328 caaa 532a     .(,".`).I.(...*S
   226d3:	0028 200e ea2a 20ea 44e5 447f 3e45 fa21     (.. *.. .D.DE>!.
   226e3:	aaab 00b1 e2e2 8ae0 80e8 5a15 7f54 9a94     ...........ZT...
   226f3:	0217 22fe 0023 4e2a e24a e022 cb28 5f6a     ..."#.*NJ.".(.j_
   22703:	2b4a 42c9 446d 0046 ce2a 24ca 2084 dd20     J+.BmDF.*..$.  .
   22713:	7555 375d 55dd 5d77 0000 2a2c c462 60a2     Uu]7.Uw]..,*b..`
   22723:	c927 6f40 5a4a cf2a 6940 004f 2a22 eac8     '.@oJZ*.@iO."*..
   22733:	6022 ca3f 5f66 2a46 4fc0 536a 0052 aee6     "`?.f_F*.OjSR...
   22743:	2ca6 000e c120 755f 3555 55d7 437d 0044     .,.. ._uU5.U}CD.
   22753:	2e2e 2e2e a02e aa7f aa0f 10ff 0ee9 ef88     ................
   22763:	0010 caea 44a8 60aa 7e20 4a8a 4f4a 6aca     .....D.` ~.JJO.j
   22773:	de5a 0050 8cac caa8 a08c 3f08 00c0 aafb     Z.P........?....
   22783:	faab aaab 00fb 000e eaea e0ea 7f20 7fd5     ............ ...
   22793:	55d5 7e00 4ad2 007b 0424 a824 c0a2 7d07     .U.~.J{.$.$....}
   227a3:	d755 7d55 0007 ff84 0084 4446 4046 000e     U.U}......FDF@..
   227b3:	c47f 007f 7a57 7f52 ba92 0057 c0c4 aeea     ....WzR...W.....
   227c3:	e0aa d77c 577c 037d b4ff b59f 00ff 0e2c     ..|.|W}.......,.
   227d3:	a222 a022 1517 3027 9557 3057 1527 0017     "."...'0W.W0'...
   227e3:	6464 6464 6064 5625 6bca 6252 5a50 8ae7     ddddd`%V.kRbPZ..
   227f3:	0016 ae8e 80ae c0e0 6a4a a355 5f41 55f5     ........JjU.A_.U
   22803:	5ff5 0041 2c8a 4822 2042 4f88 5520 1faa     ._A..,"HB .O U..
   22813:	577c 57d4 007c 2a2c a2a6 a02a 7454 e799     |W.W|.,*..*.Tt..
   22823:	7fa0 d56d 6c57 007d 2c8a 442e 60ca 92ff     ..m.Wl}..,.D.`..
   22833:	40ff f557 4057 fc27 0027 e2e0 6262 6068     .@W.W@'.'...bbh`
   22843:	92ff 40ff 4b78 da7a 4b7a 0078 e0e0 aa2e     ...@xKz.zKx.....
   22853:	20ae 92ff 00ff 5f10 d575 5f75 0010 e0e0     . ....._u.u_....
   22863:	6a60 8026 92ff 54ff 506a d57f 7f55 0055     `j&....TjP..U.U.
   22873:	e2e0 e2c0 202e d53f 755f 001f 7c57 7cd5     ..... ?._u..W|.|
   22883:	0057 2422 a440 a084 d53f 157f fd5f f745     W."$@...?..._.E.
   22893:	f555 0045 4422 8e24 2084 d53f 755f 021f     U.E."D$.. ?._u..
   228a3:	aafa aaab 00fa 4422 c402 a0ca 945f d4bf     ......"D...._...
   228b3:	001f 92fe 92fe 00fe aaaa e4a0 e0a2 d53f     ..............?.
   228c3:	157f 495f 8a7f ff11 0008 4422 e208 6048     .._I......"D..H`
   228d3:	d53f 755f 021f 527e 52d3 007e 2422 aa42     ?._u..~R.R~."$B.
   228e3:	a0ea d53f 157f 2a3f 6aab 2a2b 003b 4422     ..?...?*.j+*;."D
   228f3:	e8e8 e0ea 4a0b d257 b6ab b2ab 0ad7 000b     .....JW.........
   22903:	eaaa aac2 c0ea 0944 01f1 d55d 015d 09f1     ......D...].]...
   22913:	0044 a422 4444 20a2 7448 d25f 467a f22b     D.".DD. Ht_.zF+.
   22923:	a42f 006c aa22 88aa c0aa 5a54 5a77 c255     /.l.".....TZwZU.
   22933:	7a54 5e50 0042 ae44 0824 204a 7f00 5154     TzP^B.D.$.J ..TQ
   22943:	507c 50c5 517c 0054 aa68 e8c8 a0ca 7f00     |P.P|QT.h.......
   22953:	5254 d47d 7e51 5d51 0055 aa68 e8c8 a042     TR}.Q~Q]U.h...B.
   22963:	7f00 5f48 5f68 55f5 755f 0055 0068 44e4     ..H_h_.U_uU.h..D
   22973:	004e 7f12 5f52 c952 4b78 5f52 0052 2e68     N...R_R.xKR_R.h.
   22983:	8446 202e 7806 5d56 d374 5578 745e 004c     F.. .xV]t.xU^tL.
   22993:	ccaa 8c8e a0ca 4a91 5700 fe55 5e55 57f5     .......J.WU.U^.W
   229a3:	0040 0624 622a 2004 01d8 a5b4 a5b5 a5f7     @.$.*b. ........
   229b3:	a5b5 00b5 0e2c 0e0e e002 4990 7f20 2a80     ....,......I ..*
   229c3:	0bfe fe0a 002a 0e2c c80a a0ca 4990 1f01     ....*.,......I..
   229d3:	5575 d5df 7555 001f 042c 446c 40e4 2548     uU..Uu..,.lD.@H%
   229e3:	7558 5655 55d7 7554 0058 042c 2c4a 4084     XuUV.UTuX.,.J,.@
   229f3:	4990 aba9 faae af02 aaaa 00fa 0e2c aeaa     .I..........,...
   22a03:	a0aa 5565 7f56 d454 7f54 5556 0065 2c02     ..eUV.T.T.VUe..,
   22a13:	aaae 0022 5564 7c56 d656 7c56 5556 0064     ..".dUV|V.V|VUd.
   22a23:	ea80 aaaa 80e0 4f88 6400 6d55 7dc6 6655     .......O.dUm.}Uf
   22a33:	0000 222c ae66 202a cf42 8a74 f39e 692f     ..,"f.* B.t.../i
   22a43:	29bf 006f 000e 222e 60e2 fd09 9595 03fd     .)o....".`......
   22a53:	7555 75df 0055 4844 080e 4044 f208 aaba     Uu.uU.DH..D@....
   22a63:	ffaa 7252 72de 0050 8a88 88ae 8088 9f82     ..Rr.rP.........
   22a73:	00e4 aab2 fba2 aaa2 00b2 002e e8e8 e0e8     ................
   22a83:	89ff d2a9 4d0a 7e52 75d5 005f 4002 042e     .....MR~.u_..@..
   22a93:	2024 f927 7e21 7d50 cc50 7c51 0050 8024     $ '.!~P}P.Q|P.$.
   22aa3:	6aa2 2024 9613 9a97 b2db b29f 12d7 001b     .j$ ............
   22ab3:	ecaa aaa0 a0ec b52f bcee 35e6 7e07 4ad2     ....../....5.~.J
   22ac3:	007b eae0 e8e2 c0a2 f2aa e6bc 0b2a d62a     {...........*.*.
   22ad3:	6a54 004a ea2a aaae 20ea 5956 55f1 175d     TjJ.*.... VY.U].
   22ae3:	d525 7549 0042 a622 262e 20a2 5954 56f3     %.IuB."..&. TY.V
   22af3:	0b5a d22e 6853 0048 ea22 aaae 20e2 fd2b     Z...ShH.".... +.
   22b03:	ada9 adb7 5507 9551 00a3 0c48 a622 4008     .....UQ...H."..@
   22b13:	a8fe aaaa 2a9a aa5a a85a 004e c88a 88ae     .....*Z.Z.N.....
   22b23:	80ca afba aeea 00ba 545a 57f4 005a aa0e     ........ZT.WZ...
   22b33:	aaaa 00ae f547 f55f 4947 5ceb ea4a 004b     ....G._.GI.\J.K.
   22b43:	e444 e040 80ae f547 f55f 0305 abfe faaa     D.@...G._.......
   22b53:	0003 e444 a20e c082 ea4e ea5f 204e 55d5     ..D.....N._.N .U
   22b63:	4055 007f e888 c480 c0c2 f547 f55f a94f     U@........G._.O.
   22b73:	287e 6a3e 00af e444 aae2 e0a2 f547 f55f     ~(>j..D.....G._.
   22b83:	2947 b7a9 e1bd 0031 e444 8e24 2084 6c4a     G)....1.D.$.. Jl
   22b93:	6ddf 424a 554a 52f9 005e 248a 042e 802a     .mJBJU.R^..$..*.
   22ba3:	4643 4fe2 6a5a 4f4a 46e2 0043 aeea 8e88     CF.OZjJO.FC.....
   22bb3:	e0aa 4a54 eb41 4a5e ea5f 4b5e 0041 0e2c     ..TJA.^J_.^KA.,.
   22bc3:	eaaa 00ae a2bf a2fc 51bf fda2 a254 00f9     .........Q..T...
   22bd3:	aaea 44e0 40a2 577c 7e52 5652 f642 d74a     ...D.@|WR~RVB.J.
   22be3:	004c ca2a aaae 20aa 9f84 8fe8 fb82 fbaa     L.*.... ........
   22bf3:	fbaa 0082 4c0c ae2e 20ae a8a8 bcd5 06a9     .....L... ......
   22c03:	a8a9 bdd4 00a8 242a 8480 20a2 f494 aaaf     ......*$... ....
   22c13:	2aba aa5a 54af 0024 ea22 caa8 a0a6 abf9     .*Z..T$.".......
   22c23:	aaae 02fa aaff aaaa 00fa aa0e eaaa a0aa     ................
   22c33:	487f 127f 565a 967f 9e9a 0010 ac88 ac8c     .H..ZV..........
   22c43:	a0ac aafb aaae 02fb a0bf a0e7 00bf aeac     ................
   22c53:	2484 2084 447f 017f aeab 03fa aaae 00fa     .$. .D..........
   22c63:	c0c4 aeea a0aa 90f3 f29f d444 7f55 df55     ..........D.U.U.
   22c73:	0045 e4e2 e288 e022 90f7 02ff 6eb0 eb2a     E....."......n*.
   22c83:	6e2a 00b0 c4e2 ae2a 20aa bee2 bea3 03ea     *n....*.. ......
   22c93:	de52 deab 0010 aa22 a8aa c0aa 243c 44ff     R.....".....<$.D
   22ca3:	5557 57f5 2452 0049 8a44 2ce2 0048 223e     WU.WR$I.D..,H.>"
   22cb3:	22ff 7d41 ff55 7e55 0041 e422 e260 40a6     ."A}U.U~A.".`..@
   22cc3:	223e 22ff 003e 9ab7 9aff 00b7 e422 eae0     >".">......."...
   22cd3:	e0ea 223e 22ff ae2a 3e6a ae6a 002a e422     ..>"."*.j>j.*.".
   22ce3:	aa4e 00ae aee8 aaeb aeeb 7ee8 4ad2 007b     N..........~.J{.
   22cf3:	244e 08ca c0a2 aafa 9aff faaa 2525 25fd     N$..........%%.%
   22d03:	0025 cae8 e2ca e022 aafa caff 10fa d524     %.....".......$.
   22d13:	764a 0003 a8a8 82a0 80a4 aaff fbba aa0c     Jv..............
   22d23:	2673 73fa 00aa aee8 440a 00a2 baff fbaa     s&.s.....D......
   22d33:	6a0c 745a 5ad4 0062 aee8 ea00 e0aa cf29     .jZt.Zb.......).
   22d43:	0049 5f48 55f5 f55f 0055 200e a422 204a     I.H_.U_.U.. ".J 
   22d53:	cf29 0049 aabb fba2 aaa2 00bb 200e aeea     ).I.......... ..
   22d63:	e0aa cf29 0049 bae7 aaef a8eb 00ef 200e     ..).I.......... 
   22d73:	eaaa e0c2 ab24 abfe 2024 57fc 7d55 0040     ....$...$ .WU}@.
   22d83:	ae0e a40a 204a dc30 7557 355d 55dd 5c77     ....J 0.Wu]5.Uw\
   22d93:	0050 c444 4446 40c4 cd24 5f76 3455 56cd     P.D.FD.@$.v_U4.V
   22da3:	557f 0055 ea80 aaaa 00e0 9277 5217 0077     .UU.......w..Rw.
   22db3:	497f 49ff 007f fae8 4218 4022 a57f 257f     .I.I.....B"@...%
   22dc3:	4f88 7f20 7fa5 0025 e2e2 8e0c 202e 7f04     .O ...%...... ..
   22dd3:	7fd5 5f10 df75 5f75 0010 2e68 2e22 2022     ..._u.u_..h."." 
   22de3:	d53f 755f 031f abfa aaab 00fb 4422 ae04     ?._u........"D..
   22df3:	e04a d53f 157f 92ff 9ff4 94f0 00f2 4422     J.?..........."D
   22e03:	8e04 4008 d53f 755f 421f 556d 9567 00a5     ...@?._u.BmUg...
   22e13:	2422 6240 60e2 7f12 5557 d57f 4b57 4672     "$@b.`..WU..WKrF
   22e23:	007b 486a 2ae4 a0c2 7f12 5744 d55d 5575     {.jH.*....DW].uU
   22e33:	575d 0044 2468 a6c2 2004 7f12 5f40 5754     ]WD.h$... ..@_TW
   22e43:	40dc 515d 005d 2c68 a0a8 a0a4 7f12 5f40     .@]Q].h,......@_
   22e53:	5d55 4fc9 4f59 0049 4e68 442e 40e4 0b68     U].OYOI.hN.D.@h.
   22e63:	01ff f39e ea0e eabf 000e e0c0 02ae e0e4     ................
   22e73:	a87e fe33 aa32 227e 48d7 0074 ca22 aaae     ~.3.2.~".Ht."...
   22e83:	20aa aa4a 0452 7b56 de52 6e50 0052 ea2a     . J.R.V{R.PnR.*.
   22e93:	aaae 20ea 003e 20ff f35f 525e f35e 005f     ... >.. _.^R^._.
   22ea3:	e000 aa0e 00ae 6435 a4bf a0b5 aca5 2cf7     ......5d.......,
   22eb3:	0035 6c44 4e44 4044 4f88 5f00 5ab2 5ab7     5.DlDND@.O._.Z.Z
   22ec3:	1eb3 0000 2e2c eaa2 20a6 fa2a acab a8b4     ....,.... *.....
   22ed3:	5102 9157 00a2 ecac 24a8 2084 ff22 0124     .QW......$. ".$.
   22ee3:	b4bb faaa aab7 00ba 002e aae0 a0ea ff22     ..............".
   22ef3:	d024 f25b d35a f25a 005b 002e 48a2 a042     $.[.Z.Z.[....HB.
   22f03:	f547 f55f 5747 57fd 57fd 0045 e444 4c4e     G._.GW.W.WE.D.NL
   22f13:	404e f547 f55f 505f 55f7 f557 0057 e444     N@G._._P.UW.W.D.
   22f23:	e4e0 e0e4 5258 5bfb 5f51 5b51 51fb 0058     ....XR.[Q_Q[.QX.
   22f33:	f548 555f 0055 6549 ff50 7e51 f655 5455     H._UU.IeP.Q~U.UT
   22f43:	004d 2e2c 6a2a 60ea 574a 5fe8 4f6a 4f7a     M.,.*j.`JW._jOzO
   22f53:	57f4 0054 8a0e cac8 00ae 6f50 6bfa 0a5e     .WT.......Po.k^.
   22f63:	6f5a 6afa 005e 2e68 0eaa 60aa a4bf a4f8     Zo.j^.h....`....
   22f73:	20bf 55ff 55ff 0055 aaea 40e2 6060 f8bf     . .U.UU....@``..
   22f83:	bfa4 5c42 de70 7e50 0042 aeea ae2e 20ae     ..B\p.P~B...... 
   22f93:	aabb faa3 aaa3 00bb 88ff 00f7 e2e2 e0e2     ................
   22fa3:	80e8 9264 a0a8 e682 ab8a 96ba 006a 0024     ..d.........j.$.
   22fb3:	ae8a 80aa 8b62 a0a4 ff80 b595 9fb5 0061     ....b.........a.
   22fc3:	480e 6ae2 e042 8f60 aaaa ee8a a281 8fa2     .H.jB.`.........
   22fd3:	0062 ae2c 08ca 002e 74af 3fe5 74e5 2aaf     b.,......t.?.t.*
   22fe3:	aaff 006f 0ee8 e80a e0e8 407f 017f a4bb     ..o........@....
   22ff3:	faaa aaa7 00ba 8088 aae0 a0ea 90f7 02ff     ................
   23003:	aaff aeab bf89 0088 c4e2 c4a2 002e 90f3     ................
   23013:	929f a9ff a98f 93be 009c e2e2 c0c2 6068     ..............h`
   23023:	90f7 42ff 5f68 ca6a 5f6a 0068 c4e2 ae2c     ...Bh_j.j_h...,.
   23033:	208c 90f3 f29f 3aa8 2fea 3aea 00a8 e4e2     . .....:./.:....
   23043:	c8aa a0ca 90f7 f29f d75d 205d 23ff 00a0     ........].] .#..
   23053:	e4e2 062e 208e 90f7 42ff d574 4977 e11e     ..... ...Bt.wI..
   23063:	003e c4e2 02ae 6048 88f9 fa8f 5761 cf65     >.....H`....aWe.
   23073:	5765 0061 e4e2 4ec4 c044 223e 22ff 7f52     eWa....ND.>"."R.
   23083:	55d5 d57f 0055 e422 a462 204a 223e 22ff     .U..U.".b.J >"."
   23093:	f559 1556 f457 0059 e422 ae64 200c 223e     Y.V.W.Y.".d.. >"
   230a3:	22ff aa7f aab2 f2aa 002a e422 eae0 00ae     ."......*.".....
   230b3:	223e 22ff 4a7f 6a5f 6adf 004f e422 e8ac     >".".J_j.jO."...
   230c3:	a0ec aafa caff 29fa a673 4a3a 006b a8a8     .......)s.:Jk...
   230d3:	2aa0 204a aaff fbba 6b0c ca5e 5e4a 006b     .*J .....k^.J^k.
   230e3:	aee8 2c0a a062 aaff fbba 600c ca4f 5253     ...,b......`O.SR
   230f3:	0060 aee8 c80a a08c cf29 0049 547a d25a     `.......).I.zTZ.
   23103:	545a 007a 200e 8eac a08c df28 6049 334e     ZTz.. ....(.I`N3
   23113:	53d6 537c 005e 00ae ae0e 00ae ca2b 6a5f     .S|S^.......+._j
   23123:	224b 5ac7 4e6a 0043 ecac a2a0 a0c2 751f     K".ZjNC........u
   23133:	75df 101f e82f 202f 003f 4646 8840 c0a2     .u.././ ?.FF@...
   23143:	d77c 577c 017c 6a7b 6adf 007b 0e2c e2aa     |.|W|.{j.j{.,...
   23153:	e0aa 7f04 7fd5 5904 56f5 f455 0059 2e68     .......Y.VU.Y.h.
   23163:	4a04 40e8 d53f 157f e55f f55f f05f 001f     .J.@?..._._._...
   23173:	4422 e404 e082 d53f 157f a8bf aafa aafa     "D....?.........
   23183:	00b8 4422 ae2c a08c d53f 157f a8bf faa2     .."D,...?.......
   23193:	aaa2 00bb 2422 aa40 e0aa d53f 755f 0a1f     ...."$@...?._u..
   231a3:	aaff faae 000f 2422 2a40 204a d53f 157f     ......"$@*J ?...
   231b3:	547f fd57 7d57 0057 4622 e480 e0e4 547f     .TW.W}W."F.....T
   231c3:	d57f 547f 205d 2aff 00ff e4e2 68ea a0a8     ...T] .*.....h..
   231d3:	7f00 5c54 d575 5d73 7455 004c aa68 e262     ..T\u.s]UtL.h.b.
   231e3:	a06a e587 a8bf a9ad a8ad bcaf 00a7 e0e4     j...............
   231f3:	424e e0c8 1f00 4820 4444 4444 2048 001f     NB.... HDDDDH ..
   23203:	4208 2aa2 8024 00d9 f55f 015f 4f2a 4a81     .B.*$..._._.*O.J
   23213:	002f 4ee0 ae44 e04a 4990 1804 55f6 0258     /..ND.J..I...UX.
   23223:	447b 007a 0a2c 22ae a0ea 4990 4700 5775     {Dz.,.."...I.GuW
   23233:	56d2 5453 0047 0e2c a44e e0a0 cf42 0a74     .VSTG.,.N...B.t.
   23243:	adb5 f7a5 ada5 00b5 000e c0e0 e0c2 5f90     ..............._
   23253:	2900 28cf 2acf 48ff 002b 422e cae2 204c     .).(.*.H+..B..L 
   23263:	ff05 a9a9 03ef 7555 75df 0055 ae44 8420     ......Uu.uU.D. .
   23273:	2026 84bc 07fd bea2 1eeb 5eeb 00b2 2c8a     & .........^...,
   23283:	c8aa a0ca da36 d432 fd58 d955 fd51 0054     ....6.2.X.U.Q.T.
   23293:	8044 242a 202a 7f44 3044 5ad7 56fe 5ffa     D.*$* D.D0.Z.V._
   232a3:	0014 824c 84a4 004a ff11 4012 5f75 c575     ..L...J....@u_u.
   232b3:	5f75 0075 002e a246 a084 7c50 fd56 7d54     u_u...F...P|V.T}
   232c3:	f456 5549 0065 c8aa 888e a042 5f41 d575     V.IUe.....B.A_u.
   232d3:	435f f555 755f 0055 4844 080e 4044 a2bf     _CU._uU.DH..D@..
   232e3:	a2fc 00bf 4afb 4afa 00fb aaea aee0 a0ae     .....J.J........
   232f3:	afb5 a5b5 f5af afa2 a7b4 00b4 440e 24e0     .............D.$
   23303:	2084 57fc 55fd 57fd 00fc 88ff 00f7 e222     . .W.U.W......".
   23313:	20e2 80e8 ff08 9595 15f5 95ff f595 0015     . ..............
   23323:	a422 4444 20a2 487f 027f 5e5b 72d2 52df     ".DD. .H..[^.r.R
   23333:	0056 8088 e08a a0a4 90f3 929f baf7 aaef     V...............
   23343:	a8eb 00ef e4e2 eaaa e0c2 eb08 aabe 3bea     ...............;
   23353:	aeea e8bb 0008 aa0e aaae 60e2 007f 00ff     ...........`....
   23363:	ba4f aaab 3bee 0006 8a88 8eac 60aa aafa     O....;.......`..
   23373:	caff 10fa 555a 50ff 0058 a8a8 aca0 a08c     ....ZU.PX.......
   23383:	cafa aaff 00fa 545d 55d7 005c cae8 02ca     ......]T.U\.....
   23393:	c0e0 aafa caff 00fa ac6a 4d39 006a a8a8     ........j.9Mj...
   233a3:	aaa0 4024 cf29 0049 507f d57f 527f 0075     ..$@).I..P...Ru.
   233b3:	200e a0e0 a0a8 cf29 0049 a27f aa77 a277     . ....).I...w.w.
   233c3:	003e 200e eaea e084 b7a8 b6fc 07ad d62d     >.. ..........-.
   233d3:	4f64 0078 8cac caa8 a08c de25 7654 3655     dOx.......%.TvU6
   233e3:	55d4 5e74 0045 ac02 848e 00a2 7a0c 0aaa     .Ut^E........z..
   233f3:	abfa 0afa faaa 000c aa2a aaae 20ea aa7f     ........*.... ..
   23403:	aa0f 00ff faab bbaa 0008 eaea aa84 20aa     ............... 
   23413:	ff00 ff92 db34 d77e ff5a 0054 2e68 480a     ....4.~.Z.T.h..H
   23423:	004a d53f 157f d1ff d1bf e791 00b0 4622     J.?..........."F
   23433:	c282 6048 d53f 755f 441f 55d6 d57f 0056     ..H`?._u.D.U..V.
   23443:	4422 ea08 e0aa d53f 157f aa1f 2a7e 6a3e     "D....?.....~*>j
   23453:	00af 4422 a88c 80ae 44a2 01bf cc7b 427a     .."D.....D..{.zB
   23463:	ca7f 007a c042 aae0 a0ea e13e 003e abb1     ..z.B.....>.>...
   23473:	f8a1 aaa3 00b3 6268 424e e0ea 84bc 47fd     ......hbNB.....G
   23483:	5571 c57f 557f 0071 2c8a e224 a084 7f44     qU...Uq..,$...D.
   23493:	0044 ef59 425a ea5f 005a 804c aa0e a0ea     D.Y.ZB_.Z.L.....
   234a3:	5f50 5df5 0f55 7d55 7fd5 0050 444c 44c6     P_.]U.U}..P.LD.D
   234b3:	404c a2bf a2fc 00bf aaba aaff 00ba aaea     L@..............
   234c3:	a8e0 a0a8 9f84 8fe8 5045 54de d57e 005e     ........EP.T~.^.
   234d3:	8a08 a840 80ae 7a15 fd17 0755 a5bd a4ef     ..@....z..U.....
   234e3:	00ba c444 46c4 40c4 fd15 9597 959d 959d     ..D..F.@........
   234f3:	fd97 0015 ae44 0822 204a d53f 157f 547f     ....D.".J ?....T
   23503:	54fc 57fc 007c 4422 ea0a 20ea 7f12 5750     .T.W|."D... ..PW
   23513:	d77d 5740 5c54 0057 4e68 484e a02c 507e     }.@WT\W.hNNH,.~P
   23523:	745f d754 557c 7755 004d ac0a 04ae 002e     _tT.|UUwM.......
   23533:	7e45 c3d5 755d c35d 56dd 0055 2a2a 4a44     E~..]u]..VU.**DJ
   23543:	202a 0038 08ff 4a3f 5a6f ab4e 009e 082c     * 8...?JoZN...,.
   23553:	a8ea 002e 4990 ff08 a9a9 08ff f09f 009f     .....I..........
   23563:	242c 422e 6068 9097 969f 7551 f55f 755f     ,$.Bh`....Qu_._u
   23573:	0041 e0c0 a246 a084 f10d aaae 03ee 7456     A...F.........Vt
   23583:	75de 0055 ea2a aaae 20ea ff00 aaa2 aaba     .uU.*.... ......
   23593:	aaaf aaba 00e2 4c68 4c6c 406c ea0e aaaf     ......hLlLl@....
   235a3:	f9ae aaae eaaf 001f aaae eaea 20ae 2a2a     ............. **
   235b3:	4aff 527f d77e 7e5a 0056 ea48 eac4 00ae     .J.R~.Z~V.H.....
   235c3:	5556 55f5 8856 4651 46d8 0061 6a2a 6a24     VU.UV.QF.Fa.*j$j
   235d3:	6062 555f 55f9 485f 755f 75df 0055 0424     b`_U.U_H_u.uU.$.
   235e3:	4220 2004 ee5b ee5b 005a d27e 7a4a 0003      B. [.[.Z.~.Jz..
   235f3:	eaea 88a0 c0a2 8f6a adb2 e088 aa8f 8aaf     ......j.........
   23603:	006f ac84 aa0a a0ea abf9 02fe aefb 49fa     o..............I
   23613:	92ff 0012 aa0e a0ea 60c2 f229 eaa7 123a     .........`)...:.
   23623:	57fa 5654 000c ea22 caa8 206a 90f7 f29f     .WTV.."...j ....
   23633:	b25f b65b b25b 001e c4e2 caca 60c2 f718     _.[.[........`..
   23643:	f795 e71c efba abaa 00ef 4e0e ae0a e08a     ...........N....
   23653:	cf29 4949 7f00 abaa 3bee 0006 220e c80a     ).II.....;..."..
   23663:	60ea 5651 94ff 7541 f55f 755f 0041 e080     .`QV..Au_._uA...
   23673:	a246 a084 5545 556b da46 567e 557d 0055     F...EUkUF.~V}UU.
   23683:	ea00 aaaa 60aa ad04 05ff 75ad 05ad fdaf     .....`.....u....
   23693:	0004 480e 4846 004e f92d a9ab bfa9 4ba9     ...HFHN.-......K
   236a3:	59a9 002c 442e 4444 204e 4849 49ff db34     .Y,..DDDN IH.I4.
   236b3:	da76 fb56 0054 e2e4 6a22 2062 ff22 0024     v.V.T..."jb ".$.
   236c3:	adf7 0ff5 a5f5 00f5 022e 442a 204a ff22     ..........*DJ ".
   236d3:	2024 74df 355a 74da 005f 0a2e caca a0ec     $ .tZ5.t_.......
   236e3:	f75d f75d 005d a0bf a0e7 00bf 2e0e a440     ].].].........@.
   236f3:	a084 90f3 32ff 5bd4 56fe ff5a 0054 c4e2     .....2.[.VZ.T...
   23703:	2c2a 202a aa7f aa0f 0aff beeb ebaa 000c     *,* ............
   23713:	eaea 6a84 20a6 7f12 7d40 7c56 7ec1 7c54     ...j. ..@}V|.~T|
   23723:	0040 8e68 eaaa 00aa 547f 54fd 005d 31ab     @.h......T.T]..1
   23733:	33f9 00a9 eaea 6c68 404e aa47 aa23 044b     .3....hlN@G.#.K.
   23743:	baeb aaef 00ef e4e2 aac4 e0ca bf68 026a     ............h.j.
   23753:	abae 02ae bf6a 0068 aa2a aaae 20ac 90f7     ....j.h.*.... ..
   23763:	f29f f14d a92f f1af 004c c4e2 442a 204a     ..M./...L...*DJ 
   23773:	cc23 fb01 fbae faae 9f10 0090 0ee0 aaae     #...............
   23783:	000e 2a29 6a5b f8a9 6aa9 2a5b 0029 ea6a     ..)*[j...j[*).j.
   23793:	6a60 60ea 4990 bd00 a9ab fdab aaab 00bf     `j.`.I..........
   237a3:	042c c4c6 e0e8 ef22 4235 6bfa aa56 fa53     ,.....".5B.kV.S.
   237b3:	0052 080e ae80 8008 2e09 aabb faaf afaa     R...............
   237c3:	2bba 0000 ecac 24a8 60e4 ff28 b5a8 06aa     .+.....$.`(.....
   237d3:	555a a798 0020 a82e a8ea 60ca ff22 0024     ZU.. ......`".$.
   237e3:	775d f15d 775d 005d 022e 284e 204a 407f     ]w].]w]...N(J .@
   237f3:	407f 5577 fc57 5557 0077 8288 2a4e 204a     .@wUW.WUw...N*J 
   23803:	4fe0 0060 7546 fd57 7555 0046 200e 284e     .O`.FuW.UuF.. N(
   23813:	204a 755d 75d7 005d 6c26 55d7 006e 8624     J ]u.u].&l.Un.$.
   23823:	6a2a a004 e632 3eab a6ea 3eea e6ab 0032     *j..2..>...>..2.
   23833:	2a8a 4a48 802a 751f 75df 7518 f55f 755f     .*HJ*..u.u.u_._u
   23843:	0059 4646 e2c2 a084 9010 9090 9f90 9090     Y.FF............
   23853:	9090 0010 0200 002e 0000 2020 2621 e738     ..........  !&8.
   23863:	2020 2020 0020 8024 220e e022 1101 1211          .$.."".....
   23873:	2722 8844 1008 0020 0000 000e 0000 7f00     "'D... .........
   23883:	8140 0081 80ff 8080 00ff 8088 e000 0088     @...............
   23893:	0808 e614 8485 f584 080e 0038 2202 8448     ..........8.."H.
   238a3:	2022 1f00 4820 4444 4444 2048 001f 4208     " .. HDDDDH ...B
   238b3:	2aa2 8024 0704 84fc fc87 8784 04fc 0000     .*$.............
   238c3:	220e 2ee2 0000 8808 ff88 8888 ff00 9880     ."..............
   238d3:	00e7 2e00 0e00 0088 1414 1414 29fe 6aa9     .............).j
   238e3:	2828 0000 2422 4248 002e 0808 08ff 4048     ((.."$HB......H@
   238f3:	7f40 4040 0040 8844 2e82 0000 2410 54d4     @.@@@.D......$.T
   23903:	5455 5454 4057 0000 2422 0080 e084 3f08     UTTTW@.."$.....?
   23913:	00c0 8aff 9889 cea9 0000 060e 4882 2042     .............HB 
   23923:	1010 2424 8744 2444 1024 0010 2202 222e     ..$$D.D$$...."."
   23933:	0022 2140 4006 4040 407f 4040 0000 2268     ".@!.@@@.@@@..h"
   23943:	e222 2022 4990 2000 fe21 2020 003f 0000     "." .I. !.  ?...
   23953:	242c 0080 e0e2 4990 0000 8282 8484 8088     ,$.....I........
   23963:	00ff 002c 0000 e022 4990 0000 80ff 8480     ..,..."..I......
   23973:	8484 00fc 002c 22e2 e022 003e 20ff 8000     ....,.."".>.. ..
   23983:	fe81 8080 00ff e000 c002 e002 4860 4948     ............`HHI
   23993:	c87e 4848 404f 0060 4822 0000 e0e2 1f00     ~.HHO@`."H......
   239a3:	4820 4444 4444 2048 001f 4208 2aa2 8024      HDDDDH ...B.*$.
   239b3:	5f90 0000 8884 fe81 8080 00ff 402e 8024     ._...........@$.
   239c3:	e022 2121 22ff 8484 ff84 8484 0084 e002     ".!!."..........
   239d3:	0e00 0000 0808 08ff 4408 7f44 8484 0004     .........DD.....
   239e3:	8844 0e80 0000 0808 08ff 4408 7f44 8484     D..........DD...
   239f3:	0004 8844 0c80 e022 4240 42e2 4f42 4242     ..D...".@B.BBOBB
   23a03:	42e2 0040 2222 222e 2022 4040 ef40 494a     .B@.""."" @@@.JI
   23a13:	ef48 4040 0040 4822 0e08 e022 2c23 24ff     H.@@@."H..".#,.$
   23a23:	0022 00ff 01fe 0000 e000 002c 6008 2c23     ".........,..`#,
   23a33:	24ff 0023 ff20 2020 003f e000 c002 c022     .$#. .  ?.....".
   23a43:	1f00 4820 4444 4444 2048 001f 4208 2aa2     .. HDDDDH ...B.*
   23a53:	8024 415f 41ff 5f41 ff00 9880 00e7 e200     $._A.AA_........
   23a63:	0e26 0088 407f 7f40 4404 7f44 8444 0084     &....@@..DD.D...
   23a73:	8888 0e00 e022 407f 7f40 4080 1f20 4020     ...."..@@..@ . @
   23a83:	0080 8888 0e00 0000 003f 00ff 80bf 80ff     ........?.......
   23a93:	80ff 0080 8a88 80a4 e0e2 001f 00ff 001f     ................
   23aa3:	001f 00ff 001f e2e2 e2e0 e0e2 4f88 0000     .............O..
   23ab3:	007f ff00 0000 007f 222c aaaa a0aa c929     ........,"....).
   23ac3:	494f 0049 00ff 0000 0000 e200 e220 e022     OII......... .".
   23ad3:	3f08 00c0 08ff 0008 08ff 0008 000e 20e2     .?............. 
   23ae3:	20e2 3f08 00c0 81fc 81be fc80 0000 020e     . .?............
   23af3:	0e48 e022 3f08 01c0 9f00 2040 0800 0006     H."..?....@ ....
   23b03:	480e 220e 002e 643f 24a4 003f 00ff 0000     .H."..?d.$?.....
   23b13:	0000 44c4 c2c0 e022 3f00 2525 bf65 2525     ...D.."..?%%e.%%
   23b23:	3f25 0000 0068 000e 002e 3408 04c7 37c4     %?..h......4...7
   23b33:	ff08 9880 00e7 8224 0e2e 0088 44a2 00bf     ......$......D..
   23b43:	8808 ff88 8888 0008 c042 0e00 0000 6380     ........B......c
   23b53:	8000 f18f 9191 9f91 0080 2268 2222 202e     ..........h""". 
   23b63:	4040 48ff 4f48 ff00 9880 00e7 022c 0e2e     @@.HHO......,...
   23b73:	0088 409f a400 a4a4 a4a4 8080 00ff 88e0     ...@............
   23b83:	8888 e0a2 1f00 4820 4444 4444 2048 001f     ...... HDDDDH ..
   23b93:	4208 2aa2 8024 4990 0800 e212 2222 2022     .B.*$..I....""" 
   23ba3:	003f 002c 0200 e022 1f00 4820 4444 4444     ?.,..."... HDDDD
   23bb3:	2048 001f 4208 2aa2 8024 5f90 0000 20ff     H ...B.*$.._... 
   23bc3:	0619 0039 00ff 402e 22ea e0a2 1f00 4820     ..9....@.".... H
   23bd3:	4444 4444 2048 001f 4208 2aa2 8024 4242     DDDDH ...B.*$.BB
   23be3:	645f 0004 4444 645f 0004 e002 0200 00e0     _d..DD_d........
   23bf3:	1f00 4820 4444 4444 2048 001f 4208 2aa2     .. HDDDDH ...B.*
   23c03:	8024 da36 6212 3f00 a020 2060 0020 8844     $.6..b.? .`  .D.
   23c13:	0068 0000 4444 447f 0044 4040 407f 0040     h...DD.DD.@@.@@.
   23c23:	8844 2282 20e2 4444 447f 1044 22e2 2022     D..". DD.DD.."" 
   23c33:	003f 8844 0080 c022 8484 84ff 0084 888f     ?.D...".........
   23c43:	8888 00f8 e222 e220 6022 4444 447f 4900     ....". ."`DD.D.I
   23c53:	6c5a 0a49 000f 8844 4880 c022 0a0a 14ff     ZlI...D..H".....
   23c63:	5495 0000 007f 00ff 4822 e042 e082 1f00     .T......"HB.....
   23c73:	4820 4444 4444 2048 001f 4208 2aa2 8024      HDDDDH ...B.*$.
   23c83:	ff10 0010 90ff ff90 9090 009f 864c 6880     ............L..h
   23c93:	e022 0808 08ff 2f20 ff21 5f41 0040 8844     "..... /!.A_@.D.
   23ca3:	0c00 6022 2222 24ff 2f00 ff21 4f41 0000     .."`"".$./!.AO..
   23cb3:	e002 0c00 6022 1f00 4820 4444 4444 2048     ...."`.. HDDDDH 
   23cc3:	001f 4208 2aa2 8024 0808 08ff 3400 07c4     ...B.*$......4..
   23cd3:	c484 0037 8844 48a2 c022 2222 24ff 7f00     ..7.D..H"."".$..
   23ce3:	7e48 8889 0008 e002 402e 60c2 1f00 4820     H~.......@.`.. H
   23cf3:	4444 4444 2048 001f 4208 2aa2 8024 5141     DDDDH ...B.*$.AQ
   23d03:	5557 f555 5557 5755 0041 440c 464c 00c4     WUU.WUUWA..DLF..
   23d13:	4a48 4aeb 5e4a 4a4a 4aeb 0048 2a22 4a44     HJ.JJ^JJ.JH."*DJ
   23d23:	2022 4848 e949 4f4a e948 4849 0048 0088     " HHI.JOH.IHH...
   23d33:	000e 8008 4f40 4be8 4a4a 4a4a 4bea 0048     ....@O.KJJJJ.KH.
   23d43:	0e68 aa22 60aa 4f40 e949 484e ef48 4949     h."..`@OI.NHH.II
   23d53:	0040 220e 2222 0022 4f40 42e2 4042 4f40     @.."""".@O.BB@@O
   23d63:	42e2 0042 220e 0e60 6022 4241 44ec 4447     .BB.."`."`AB.DGD
   23d73:	4744 44e4 0047 4800 8224 e022 4848 ea4c     DG.DG..H$.".HHL.
   23d83:	5849 e948 484e 0048 2222 8448 2022 1f00     IXH.NHH.""H." ..
   23d93:	4820 4444 4444 2048 001f 4208 2aa2 8024      HDDDDH ...B.*$.
   23da3:	4848 4be8 494d 4f40 40e0 0040 ae88 0e00     HH.KMI@O.@@.....
   23db3:	6022 2c23 24ff 1012 fc13 1013 0010 e000     "`#,.$..........
   23dc3:	002c 200c 2621 24ff 1012 11fe 5090 0010     ,.. !&.$.....P..
   23dd3:	e000 0800 e042 2c23 22ff 4405 7f44 8484     ....B.#,.".DD...
   23de3:	0004 e000 0e00 0000 2c23 24ff 2002 a03f     ........#,.$. ?.
   23df3:	2060 0020 e000 e200 2022 2c23 24ff 8102     `  ....." #,.$..
   23e03:	85bd fc85 0007 e000 0000 c022 ff20 2f20     ..........". . /
   23e13:	0020 4949 497f 0049 0c68 2222 6022 1010      .II.II.h."""`..
   23e23:	10ff 10df 2424 9249 0000 002c aae2 e022     ....$$I...,...".
   23e33:	744c 5fc4 0845 fe09 0809 0008 8e88 8024     Lt._E.........$.
   23e43:	2084 1f00 4820 4444 4444 2048 001f 4208     . .. HDDDDH ...B
   23e53:	2aa2 8024 fc04 2828 0328 14f8 4424 000c     .*$...(((...$D..
   23e63:	aa2a aaae 20aa 4941 e949 ff09 e909 4949     *.... AII.....II
   23e73:	0041 0000 000e 0000 447f 7f44 8808 ff88     A........DD.....
   23e83:	8888 0008 4cc4 2e00 0000 fc01 a4a4 a4a7     .....L..........
   23e93:	a4a4 01fc 0000 22e2 22e2 002e f407 9594     ......."."......
   23ea3:	9c96 9596 f494 0007 80e0 0000 e0a2 1f00     ................
   23eb3:	4820 4444 4444 2048 001f 4208 2aa2 8024      HDDDDH ...B.*$.
   23ec3:	007f 00ff 007f ff84 ff84 0084 c4c4 2cc0     ...............,
   23ed3:	000e 1f00 4820 4444 4444 2048 001f 4208     .... HDDDDH ...B
   23ee3:	2aa2 8024 003f 00ff 003f 91ff 9191 009f     .*$.?...?.......
   23ef3:	c4c4 e2c0 2022 29ef 2929 ef29 2929 2929     ...." .)))).))))
   23f03:	00ef 22e2 2222 6022 4442 6559 fd05 1121     ...""""`BDYe..!.
   23f13:	4429 0004 e200 2222 00e0 84ff f388 fa82     )D....""........
   23f23:	8b8a 8098 00ff 0ce0 4c44 e022 80fc 819f     ........DL".....
   23f33:	08fc 8888 c8bf 0088 0e2c aa22 e0a2 5212     ........,."....R
   23f43:	5854 7150 9850 9294 0012 220e 222e 002e     TXPqP......"."..
   23f53:	3f08 04c0 8884 bf90 88c0 0084 020e 2a22     .?............"*
   23f63:	2022 1f00 4820 4444 4444 2048 001f 4208     " .. HDDDDH ...B
   23f73:	2aa2 8024 3f08 00c0 544c c665 4844 0040     .*$..?..LTe.DH@.
   23f83:	020e 226a 202c 3f08 07c0 3f00 6281 300c     ..j", .?...?.b.0
   23f93:	0006 820e 224e 002e 3f08 00c0 88ff 898f     ....N"...?......
   23fa3:	8a89 00fa 060e e280 6022 3f08 00c0 3a0b     ........"`.?...:
   23fb3:	0aca 320a 000b 000e 22e2 e022 b1ff 918e     ...2....."".....
   23fc3:	ffa0 9502 d5ba 001f 00e8 228c 6022 44a2     ...........""`.D
   23fd3:	00bf 8784 84fc ff84 0000 c242 222e 202e     ..........B..". 
   23fe3:	409f 9710 b494 9097 8091 00ff 80e0 8800     .@..............
   23ff3:	e0a2 4990 8400 ff84 8484 ff84 0084 022c     ...I..........,.
   24003:	00c0 000e 4990 2200 ff22 2222 22ff 0022     .....I."".""."".
   24013:	022c 0048 00e0 1f00 4820 4444 4444 2048     ,.H..... HDDDDH 
   24023:	001f 4208 2aa2 8024 1f00 4820 4444 4444     ...B.*$... HDDDD
   24033:	2048 001f 4208 2aa2 8024 4990 0800 4e49     H ...B.*$..I..IN
   24043:	4848 4948 0008 2668 24a2 204c 4990 0000     HHHI..h&.$L .I..
   24053:	08ff ff08 0808 0010 022c 2ee2 e022 1f00     ........,..."...
   24063:	4820 4444 4444 2048 001f 4208 2aa2 8024      HDDDDH ...B.*$.
   24073:	4990 3f00 a0a0 fca3 2023 003f 0e2c 0088     .I.?....# ?.,...
   24083:	e00a 1f00 4820 4444 4444 2048 001f 4208     .... HDDDDH ...B
   24093:	2aa2 8024 4990 0800 2b18 08c8 300b 0008     .*$..I...+...0..
   240a3:	022c 0048 60e2 003e 20ff 494e f848 4948     ,.H..`>.. NIH.HI
   240b3:	004e e000 a422 204a ff0c 0c10 2f20 ff21     N...".J .... /!.
   240c3:	4f41 0040 000e 0e00 6022 ff18 1820 1804     AO@....."`.. ...
   240d3:	2ee1 2821 0030 020e 8024 2084 1f00 4820     ..!(0...$.. .. H
   240e3:	4444 4444 2048 001f 4208 2aa2 8024 a221     DDDDH ...B.*$.!.
   240f3:	2a67 0031 85bd fc85 0007 e000 0000 c022     g*1...........".
   24103:	5f90 0000 80ff 919f 809f 00ff 402e 00e0     ._...........@..
   24113:	e022 0601 803f 0c63 0374 88ff 00f7 ca02     "...?.c.t.......
   24123:	e022 80e8 5f90 0000 08fb ff08 0808 00fb     "...._..........
   24133:	402e 2ee2 e022 5f90 0000 487f f84b 4e49     .@..".._...HK.IN
   24143:	0060 422e 2cc2 2042 ff00 afa0 a8a8 a8ab     `..B.,B ........
   24153:	efa8 0000 0268 0848 0042 1f00 4820 4444     ....h.H.B... HDD
   24163:	4444 2048 001f 4208 2aa2 8024 fc00 9292     DDH ...B.*$.....
   24173:	f392 9292 02f2 000e 220e 222e 002e 80ff     ........."."....
   24183:	f788 0700 fc04 2424 0027 88e0 220e e022     ......$$'...."".
   24193:	1f00 4820 4444 4444 2048 001f 4208 2aa2     .. HDDDDH ...B.*
   241a3:	8024 80ff f788 2000 49ff 4949 0049 88e0     $...... .IIII...
   241b3:	e000 0000 fd22 3f20 4808 484f 484f 0008     ....". ?.HOHOH..
   241c3:	8624 8024 e0e2 f927 3c23 4808 4e49 4848     $.$...'.#<.HINHH
   241d3:	0008 8e24 a226 604c 1f00 4820 4444 4444     ..$.&.L`.. HDDDD
   241e3:	2048 001f 4208 2aa2 8024 da36 6212 1310     H ...B.*$.6..b..
   241f3:	11fc 1016 0010 8244 6ac0 602a 84bc fc85     ......D..j*`....
   24203:	0007 84ff 8484 00ff 2288 e2c0 e022 1f00     .........".."...
   24213:	4820 4444 4444 2048 001f 4208 2aa2 8024      HDDDDH ...B.*$.
   24223:	da36 6212 3800 60a0 2020 0038 8844 4404     6..b.8.`  8.D..D
   24233:	4044 1f00 4820 4444 4444 2048 001f 4208     D@.. HDDDDH ...B
   24243:	2aa2 8024 1f00 4820 4444 4444 2048 001f     .*$... HDDDDH ..
   24253:	4208 2aa2 8024 da36 6212 9e00 9292 00f3     .B.*$.6..b......
   24263:	00ff 8844 2200 e0c0 4444 447f 2944 2929     ..D.."..DD.DD)))
   24273:	49ff 0049 8844 0080 00e0 7f44 4444 2400     .II.D.....D.DD.$
   24283:	fe25 2425 0004 8a4c 8024 2084 4444 447f     %.%$..L.$.. DD.D
   24293:	2f20 8848 2f49 0020 8844 220c 6022 4444      /H.I/ .D..""`DD
   242a3:	447f 3c20 e122 3c22 0020 8844 4822 2042     .D <"."< .D."HB 
   242b3:	4908 ff49 4949 ff08 9880 00e7 2e22 2e22     .II.II......".".
   242c3:	8044 2b0a fa2a 2a2f ff0a 9880 00e7 a200     D..+*./*........
   242d3:	0ee0 8044 ff10 0010 92ff 9292 ff92 0000     ..D.............
   242e3:	824c 22e2 202e ff10 0010 80ff 929e 809e     L..". ..........
   242f3:	00ff 804c 00e0 e002 ff10 0010 7f00 7f40     ..L...........@.
   24303:	ff80 0080 804c 0e68 e024 ff10 0010 2a12     ....L.h.$......*
   24313:	8b4a 2a4a 0013 804c 0e00 c004 1210 5b56     J.J*..L.......V[
   24323:	f252 5b52 1254 0010 acaa 8e88 8088 ff80     R.R[T...........
   24333:	9292 80ff 8080 80ff 0080 484c 02e0 00e0     ..........LH....
   24343:	1f00 4820 4444 4444 2048 001f 4208 2aa2     .. HDDDDH ...B.*
   24353:	8024 1f00 4820 4444 4444 2048 001f 4208     $... HDDDDH ...B
   24363:	2aa2 8024 4f40 ea4a 4e4a f253 4252 0040     .*$.@OJ.JNS.RB@.
   24373:	aa4c 28a2 6042 494d e949 5949 e949 4949     L..(B`MII.IYI.II
   24383:	004d 0200 002e 0000 4140 e040 5047 e249     M.......@A@.GPI.
   24393:	4144 0040 2482 22ea 8026 5f40 55f5 5755     DA@..$."&.@_.UUW
   243a3:	5555 5df5 0040 442e 8444 6022 2c23 24ff     UU.]@..DD."`#,.$
   243b3:	4422 447f 7f44 0044 e000 002c 000e 1f00     "D.DD.D...,.....
   243c3:	4820 4444 4444 2048 001f 4208 2aa2 8024      HDDDDH ...B.*$.
   243d3:	2c23 24ff 9f22 fc92 1112 001f e000 000e     #,.$"...........
   243e3:	e022 2c23 24ff 6912 898f 29c9 0010 e000     ".#,.$.i...)....
   243f3:	0208 002c 4f42 4474 4007 7f40 4040 0000     ..,.BOtD.@@.@@..
   24403:	440c 2ec2 2022 4f42 4878 104f c928 4c4a     .D.." BOxHO.(.JL
   24413:	0040 440c a2c4 6022 80ff 8888 aa93 aaca     @..D.."`........
   24423:	8893 0088 22c2 aaaa 20a2 1f00 4820 4444     ....."... .. HDD
   24433:	4444 2048 001f 4208 2aa2 8024 1f00 4820     DDH ...B.*$... H
   24443:	4444 4444 2048 001f 4208 2aa2 8024 1f00     DDDDH ...B.*$...
   24453:	4820 4444 4444 2048 001f 4208 2aa2 8024      HDDDDH ...B.*$.
   24463:	447f 7f44 c424 7f44 4444 0004 4cc4 0e00     .DD.$.D.DD...L..
   24473:	0000 fa00 abaa a8aa a8a8 f8ab 0000 ac88     ................
   24483:	8888 80e8 447f 7f44 ff00 9192 9190 009e     .....DD.........
   24493:	4cc4 2468 2084 447f 7f44 2611 21f8 203e     .Lh$. .DD..&.!> 
   244a3:	003f 4cc4 4802 e002 447f 7f44 7f00 5252     ?..L.H...DD...RR
   244b3:	9e92 0000 4cc4 0068 0000 407f 027f 3e02     .....Lh....@...>
   244c3:	ff22 3e22 0002 a288 8044 2084 203f 013f     ".">....D.. ? ?.
   244d3:	0006 813f 1866 0003 8288 e224 6022 203f     ..?.f.....$."`? 
   244e3:	043f 350d 09c5 1909 000c 8088 22e2 002e     ?..5........."..
   244f3:	007f 00ff 007f 2427 24fc 0027 c4c4 e2c0     ......'$.$'.....
   24503:	e022 2b69 392d ef29 2929 2929 0069 4022     ".i+-9).))))i."@
   24513:	002e 2042 007f 00ff 007f 92ff ff92 0000     ..B ............
   24523:	c4c4 e2c2 202e 003f 00ff 083f e010 243f     ..... ?...?...?$
   24533:	0024 c4c4 00c0 80e8 003f 00ff 123f d522     $.......?...?.".
   24543:	5449 0062 c4c4 04c0 004a 1f00 4820 4444     ITb.....J... HDD
   24553:	4444 2048 001f 4208 2aa2 8024 88ff a9a8     DDH ...B.*$.....
   24563:	bfaa c9ca ff88 0000 a2ea 222e 00ae 1f00     ..........."....
   24573:	4820 4444 4444 2048 001f 4208 2aa2 8024      HDDDDH ...B.*$.
   24583:	c929 494f 0049 2222 4444 0088 e200 2220     ).OII.""DD.... "
   24593:	8044 cf29 0049 803f 0040 8080 00ff 200e     D.).I.?.@...... 
   245a3:	00e0 e002 cf29 0049 8988 a89e 88cf 000f     ....).I.........
   245b3:	200e 2c80 e002 1179 12ff 2012 e43f 2724     . .,..y.... ?.$'
   245c3:	0020 e000 022c 002c 3f08 00c0 ff80 9292      ...,.,..?......
   245d3:	ff92 0080 000e 444c 404e 2010 817d 1711     ......LDN@. }...
   245e3:	31d1 a429 002c 2222 222e 2022 3f08 14c0     .1).,.""."" .?..
   245f3:	44e4 fc47 4447 0044 020e 002c e0e2 3f08     .DG.GDD...,....?
   24603:	4ac1 6e59 4800 7f48 0088 240e 2a84 a0aa     .JYn.HH....$.*..
   24613:	3f08 00c0 5253 7e52 9292 0093 000e 22e2     .?..SRR~......."
   24623:	e022 3f08 00c0 2910 8f49 2949 0010 000e     "..?...)I.I)....
   24633:	2e22 2022 3f10 a565 2525 a57f 2525 0020     "." .?e.%%..%% .
   24643:	220e e222 2022 1f00 4820 4444 4444 2048     .""." .. HDDDDH 
   24653:	001f 4208 2aa2 8024 3f08 00c0 417f cf49     ...B.*$..?...AI.
   24663:	5252 0042 060e 0c80 6022 3f08 10c0 e009     RRB....."`.?....
   24673:	5e41 4041 0060 080e 8024 2084 3f08 71c0     A^A@`...$.. .?.q
   24683:	4949 52cf 4252 0072 000e e200 6022 7f00     II.RRBr....."`..
   24693:	5253 9392 ff00 9880 00e7 e2c0 0e2e 0088     SR..............
   246a3:	7f02 44d3 047f 4340 407c 007f 822c 48e2     ...D..@C|@..,..H
   246b3:	c022 5222 9293 2252 ff00 9880 00e7 222e     "."R..R"......."
   246c3:	0ec2 0088 2b10 8a4a 2b4a ff10 9880 00e7     .....+J.J+......
   246d3:	220e 0e2e 0088 e418 8407 1ae7 f30c 3f20     ."............ ?
   246e3:	0020 8224 24e0 2084 92ff 00ff a13f f8a6      .$..$. ....?...
   246f3:	2126 003f e0e0 00e0 e002 ff00 ff92 e218     &!?.............
   24703:	8f02 e282 0018 2e68 0e00 0000 91ff ff8a     ......h.........
   24713:	1008 3ee1 2821 0030 2ee0 8024 2084 6691     ...>!(0...$.. .f
   24723:	009f 4241 7f4c 4448 0043 c222 2e22 2022     ..ABL.HDC."."." 
   24733:	5289 c03f 3209 3fe0 2220 0021 c022 2e00     .R?..2.? "!."...
   24743:	0000 c020 404f 0070 08fb 08ff 00fb e200     .. .O@p.........
   24753:	e220 e0e2 4242 5564 c948 5448 4264 0042      ...BBdUH.HTdBB.
   24763:	0c2c a222 6068 3f20 22e2 1023 8860 6284     ,.".h` ?."#.`..b
   24773:	0010 0268 88e0 0042 001c 08ff 1030 c027     ..h...B.....0.'.
   24783:	2740 0010 082c 8064 000e 001c 04ff 3828     @'..,.d.......(8
   24793:	e126 3826 0020 0c2c 8024 2084 4990 0000     &.&8 .,.$.. .I..
   247a3:	8ab2 ff82 8a82 00b2 002c 0e00 0000 4990     ........,......I
   247b3:	0000 447f 7f44 4444 007f 002c 2ee2 e022     ...DD.DD..,...".
   247c3:	4990 ff00 9f80 9191 809f 00ff 0e2c 0000     .I..........,...
   247d3:	e002 4990 0000 497f 7e49 8889 0000 0a2c     ...I...II~....,.
   247e3:	22a2 c084 4990 1000 c82f 4848 404f 007f     ."...I../.HHO@..
   247f3:	002c 8888 e0a2 4990 2000 20ff 003f 203f     ,......I. . ?.? 
   24803:	003f 2c2c e002 e0e2 003e 20ff 8b00 82f2     ?.,,....>.. ....
   24813:	8a8a 00fb e000 220e e022 911c 1050 5790     .......""...P..W
   24823:	3010 9150 001c 220e 222e 002e 4960 5149     .0P...."."..`IIQ
   24833:	c266 4a7a 584b 0060 2222 48a4 0000 a0af     f.zJKX`."".H....
   24843:	a0bf 08af 84f7 16f5 0030 e0c0 48a2 2042     ........0....HB 
   24853:	9097 909f 2017 ff20 2424 0027 e0c0 c082     .....  .$$'.....
   24863:	c022 1f00 4820 4444 4444 2048 001f 4208     "... HDDDDH ...B
   24873:	2aa2 8024 1f00 4820 4444 4444 2048 001f     .*$... HDDDDH ..
   24883:	4208 2aa2 8024 1f00 4820 4444 4444 2048     .B.*$... HDDDDH 
   24893:	001f 4208 2aa2 8024 7f00 4848 0078 d27e     ...B.*$...HHx.~.
   248a3:	7a4a 0003 0068 8808 c0a2 494f 0079 1772     Jz..h.....OIy.r.
   248b3:	f21a 1312 0070 c022 a422 20a2 929f f392     ....p.".".. ....
   248c3:	8b00 e292 8b8a 00f0 2c02 220e 002e 90ff     .........,."....
   248d3:	00ef 909f d0bf 909f 009f 00e8 c0e0 e0c2     ................
   248e3:	1f00 4820 4444 4444 2048 001f 4208 2aa2     .. HDDDDH ...B.*
   248f3:	8024 80ff e798 e414 ff25 2425 0004 80e8     $.......%.%$....
   24903:	0e48 4008 1f00 4820 4444 4444 2048 001f     H..@.. HDDDDH ..
   24913:	4208 2aa2 8024 2a24 a6b2 be86 92c2 168a     .B.*$.$*........
   24923:	0024 aa0e aaaa 60e2 3f04 ff08 1e11 596b     $......`.?....kY
   24933:	784f 0008 2a0c 2622 e0a2 f927 3c23 1c13     Ox...*"&..'.#<..
   24943:	10f3 5691 0010 8e24 4822 2042 fd22 3f20     ...V..$."HB ". ?
   24953:	1208 8b6a 2a4a 0013 8624 0e00 c004 1f00     ..j.J*..$.......
   24963:	4820 4444 4444 2048 001f 4208 2aa2 8024      HDDDDH ...B.*$.
   24973:	4f88 0a00 8a8a a392 8ad2 000a 2a2c aaaa     .O..........,*..
   24983:	a0aa aa8a b292 00cb eb8a aa92 00cb 4c2a     ..............*L
   24993:	2a20 204a 1f00 4820 4444 4444 2048 001f      *J .. HDDDDH ..
   249a3:	4208 2aa2 8024 84bc fc85 0007 92ff ff92     .B.*$...........
   249b3:	0000 2288 e2c2 202e 1f00 4820 4444 4444     ..."... .. HDDDD
   249c3:	2048 001f 4208 2aa2 8024 1f00 4820 4444     H ...B.*$... HDD
   249d3:	4444 2048 001f 4208 2aa2 8024 84bc fc85     DDH ...B.*$.....
   249e3:	1007 49e9 6959 000f 2288 22c0 e022 1f00     ...IYi...".""...
   249f3:	4820 4444 4444 2048 001f 4208 2aa2 8024      HDDDDH ...B.*$.
   24a03:	da36 6012 2a2e 2aff 2aff 003b 8a44 8024     6..`.*.*.*;.D.$.
   24a13:	80e4 da36 6012 0d04 c535 0915 0004 8844     ..6..`..5.....D.
   24a23:	220e 002e 2a02 2b2a fe2a 4a4a 4a4a 0002     ."...**+*.JJJJ..
   24a33:	8e44 aaaa 00e0 2a2a 4aff 004a 4444 645f     D.....**.JJ.DD_d
   24a43:	0004 e848 0240 00e0 1f00 4820 4444 4444     ..H.@..... HDDDD
   24a53:	2048 001f 4208 2aa2 8024 4444 447f b202     H ...B.*$.DD.D..
   24a63:	ff8a 8a82 00b2 8844 0e00 0000 4444 447f     ......D.....DD.D
   24a73:	7f00 4949 7f49 0000 8844 222e 202e 4444     ..III...D..". DD
   24a83:	447f 3f00 ff29 2929 003f 8844 0e00 0000     .D.?).))?.D.....
   24a93:	1f00 4820 4444 4444 2048 001f 4208 2aa2     .. HDDDDH ...B.*
   24aa3:	8024 7f48 7f49 bf40 7f80 4040 007f 4c88     $.H.I.@...@@...L
   24ab3:	0eac 8008 4444 447f 4840 e354 4844 0040     ....DD.D@HT.DH@.
   24ac3:	8a44 a226 e024 7f44 0044 0007 411f 0c22     D.&.$.D.D....A".
   24ad3:	0001 824c e224 6022 4444 447f 4500 7149     ..L.$."`DD.D.EIq
   24ae3:	4541 007d 8844 220e e022 2a2a 2aff 102b     AE}.D.."".**.*+.
   24af3:	fe11 9415 0057 e400 8284 6048 0909 292b     ....W.....H`..+)
   24b03:	f829 2b29 0929 0008 c422 2e42 2022 ff08     ).)+)...".B." ..
   24b13:	8408 0047 1310 13fc 0010 824c a2c4 a022     ..G.......L...".
   24b23:	ff08 4408 0734 17fc 4424 0000 824c 0e48     ...D4...$D..L.H.
   24b33:	6022 ff10 0010 15f5 f515 1515 00f7 804c     "`............L.
   24b43:	22e2 6022 ff10 8e10 00f3 404f 887f 0088     .""`......O@....
   24b53:	824c aac2 a0aa ff10 0010 497f c949 4949     L..........II.II
   24b63:	007f 804c 22e2 e022 5212 5755 55fd 5475     ..L..""..RUW.UuT
   24b73:	1097 0010 0c00 e244 00c0 1f00 4820 4444     ......D..... HDD
   24b83:	4444 2048 001f 4208 2aa2 8024 ff08 0008     DDH ...B.*$.....
   24b93:	2312 49d5 6355 0002 804c 220e 002e ff10     .#.IUc..L.."....
   24ba3:	0010 485f c2c5 4845 005f 804c 22ea e02a     .._H..EH_.L.."*.
   24bb3:	ff08 0008 9511 1f55 5535 0091 804c 0e00     ......U.5U..L...
   24bc3:	0000 ff08 0808 4971 d24f 4252 0070 884c     ......qIO.RBp.L.
   24bd3:	c200 e022 2222 24ff 4971 df49 4252 0072     .."."".$qII.RBr.
   24be3:	e002 0c00 6022 ff08 0008 2534 e42e 2625     ...."`....4%..%&
   24bf3:	0034 804c ac2a 2084 ff08 0008 5555 55ff     4.L.*.. ....UU.U
   24c03:	7d55 0010 8448 e444 4044 ff22 6124 0d92     U}..H.D.D@".$a..
   24c13:	9465 6404 0097 002e 2a00 0048 4a42 ee4a     e..d.....*H.BJJ.
   24c23:	5a4b ee4a 4a4a 0042 4844 aaea 00a6 4848     KZJ.JJB.DH....HH
   24c33:	ea4b 4a4a ea4a 484b 0048 ea22 aaaa 20e2     K.JJJ.KHH.".... 
   24c43:	4b52 e440 4544 e54e 4444 0040 2a2c 22a2     RK@.DEN.DD@.,*."
   24c53:	20aa 4a48 4aea 547a 5a54 52f2 0056 acaa     . HJ.JzTTZ.RV...
   24c63:	8e88 a0aa 4740 4fe0 4242 414f 42e1 0042     ....@G.OBBOA.BB.
   24c73:	2c2e e244 6022 4742 e048 4447 ef44 4444     .,D."`BGH.GDD.DD
   24c83:	0047 000e 8e88 8088 4848 ed4a 5a49 e94c     G.......HHJ.IZL.
   24c93:	4848 0048 a28a 8444 0042 4949 4deb 5949     HHH...D.B.II.MIY
   24ca3:	4a49 49ee 0048 4822 e200 6022 1f00 4820     IJ.IH."H.."`.. H
   24cb3:	4444 4444 2048 001f 4208 2aa2 8024 4941     DDDDH ...B.*$.AI
   24cc3:	ff49 4949 ff49 4949 0041 4822 0e00 0000     I.III.IIA."H....
   24cd3:	5244 41e8 4848 4f48 48e8 0048 8024 2e22     DR.AHHHO.HH.$.".
   24ce3:	2022 1f00 4820 4444 4444 2048 001f 4208     " .. HDDDDH ...B
   24cf3:	2aa2 8024 5f40 55f5 5555 5555 5ff5 0041     .*$.@_.UUUUU._A.
   24d03:	222e 8440 204a 564d 40e4 4848 4f48 48e8     ."@.J MV.@HHHO.H
   24d13:	0048 a0aa 2e22 2022 1f00 4820 4444 4444     H..."." .. HDDDD
   24d23:	2048 001f 4208 2aa2 8024 2c23 24ff 7c02     H ...B.*$.#,.$.|
   24d33:	4447 7c47 0000 e000 8024 60e2 2c23 22ff     GDG|....$..`#,."
   24d43:	2211 8b4a 224a 0013 e000 0e00 c004 2621     ."J.J"........!&
   24d53:	24ff 1022 54e2 5449 0062 e000 0400 004a     .$"..TITb.....J.
   24d63:	2621 24ff df30 5252 415e 007f e000 220e     !&.$0.RR^A....."
   24d73:	6022 2c23 22ff 2f08 7fa0 0906 0010 e000     "`#,."./........
   24d83:	2ec0 4008 2c23 22ff 8b21 e292 8b8a 00f0     ...@#,."!.......
   24d93:	e000 220e 002e bda5 a5e5 85bd ff00 9880     ..."............
   24da3:	00e7 22e2 0e2e 0088 bd80 a4a4 bda4 0080     ..."............
   24db3:	007f 00ff 622a 404c e082 1f00 4820 4444     ....*bL@.... HDD
   24dc3:	4444 2048 001f 4208 2aa2 8024 4f88 9f00     DDH ...B.*$..O..
   24dd3:	fc92 fe90 9f92 0000 2a2c aaaa 20aa ff00     ........,*... ..
   24de3:	9090 90bf 90b3 8a8a 0095 2c68 e200 60aa     ..........h,...`
   24df3:	9f84 8fe8 2484 fe25 2425 0004 4c0c 8024     .....$%.%$...L$.
   24e03:	2084 4f44 4474 8447 85fc ff86 0084 440c     . DOtDG........D
   24e13:	80c4 002e 9f84 8fe8 24a4 24ff 3c25 0004     .........$.$%<..
   24e23:	4c0c 002c 6008 909f d0bf 909f 229f 4444     .L,..`......."DD
   24e33:	0088 c0e0 e2c2 8044 4a48 6452 4acb 624c     ......D.HJRd.JLb
   24e43:	4853 0048 8a00 482a 0000 1f00 4820 4444     SHH...*H.... HDD
   24e53:	4444 2048 001f 4208 2aa2 8024 744c 5fc4     DDH ...B.*$.Lt._
   24e63:	0045 427e 4242 007e 8e88 4802 6008 e45c     E.~BBB~....H.`\.
   24e73:	454f 4a12 7f42 928a 0022 e088 2e02 0000     OE.JB...".......
   24e83:	e45c 454f 0c00 4475 855f 0084 e088 0248     \.OE..uD_.....H.
   24e93:	c0e0 744c 5fc4 0045 9985 85e1 00fd 8e88     ..Lt._E.........
   24ea3:	e200 e022 fa02 aaaa abaa aaaa faaa 0002     ..".............
   24eb3:	aae8 ccc8 e0a8 1f00 4820 4444 4444 2048     ........ HDDDDH 
   24ec3:	001f 4208 2aa2 8024 447f 7f44 1010 10ff     ...B.*$..DD.....
   24ed3:	519f 0012 4cc4 242c 60c2 4a7f 7f4a 1008     .Q...L,$.`.JJ...
   24ee3:	24e4 2025 003f 4cc4 8800 c022 417f 7f41     .$% ?..L.."..AA.
   24ef3:	ff80 9292 ff92 0080 0000 444c 008e 203f     ..........LD..? 
   24f03:	3f20 bf80 a4a4 bfa4 0080 8888 aa2a 20aa      ?..........*.. 
   24f13:	447f 7f44 e414 ff24 2424 0024 4cc4 8024     .DD...$.$$$..L$.
   24f23:	2084 447f 7f44 2910 9249 2452 0010 4cc4     . .DD..)I.R$...L
   24f33:	2202 8044 407f 007f 5f90 2320 23fc 0020     ."D..@..._ #.# .
   24f43:	8088 a22c a022 447f 7f44 2a12 8a4b 136a     ..,."..DD..*K.j.
   24f53:	0008 4cc4 e000 004c 447f 7f44 1708 24e4     ...L..L..DD....$
   24f63:	2027 003f 4cc4 8808 c0a2 447f 7f44 2420     ' ?..L.....DD. $
   24f73:	f12a 2422 0020 4cc4 a426 604c 407f 807f     *."$ ..L&.L`.@..
   24f83:	9989 89ef 9189 0088 c2c4 e222 2022 0100     .........."." ..
   24f93:	adfb a9a9 aeaa 00fb 0000 6c44 4e44 4044     ..........DlDND@
   24fa3:	223e 22ff 043e 4444 447f 0044 e422 00e0     >".">.DD.DD."...
   24fb3:	00e0 223e 22ff 443e 4444 645f 0004 e422     ..>".">DDD_d..".
   24fc3:	02c6 00e0 203f 003f 407f 5457 4057 007f     ....? ?..@WTW@..
   24fd3:	8088 88e0 e082 003f 00ff 803f a4bf bfa4     ......?...?.....
   24fe3:	0080 8888 aaa2 20aa eb08 2b2a ea2e 2a2b     ....... ..*+..+*
   24ff3:	eb2a 0008 0e0e e000 002e 29e9 2e2a ea2a     *..........)*.*.
   25003:	282b 2023 00ef a422 0048 e0a2 1f00 4820     +(# ..".H..... H
   25013:	4444 4444 2048 001f 4208 2aa2 8024 013f     DDDDH ...B.*$.?.
   25023:	01ff 281f 5acb 0b6a 0008 2400 c280 60aa     ...(.Zj....$...`
   25033:	003f 00ff 003f b12a 3160 002a 8888 2482     ?...?.*.`1*....$
   25043:	2084 203f 20ff 023f 5f92 5f12 0092 e880     . ? . ?.._._....
   25053:	48a2 000e cf29 4949 8800 88ff ff88 0088     .H..).II........
   25063:	220e c002 000e 1f00 4820 4444 4444 2048     ."...... HDDDDH 
   25073:	001f 4208 2aa2 8024 c929 494f 0049 91ff     ...B.*$.).OII...
   25083:	9191 009f e200 e220 2022 1f00 4820 4444     ...... ." .. HDD
   25093:	4444 2048 001f 4208 2aa2 8024 1f00 4820     DDH ...B.*$... H
   250a3:	4444 4444 2048 001f 4208 2aa2 8024 1f00     DDDDH ...B.*$...
   250b3:	4820 4444 4444 2048 001f 4208 2aa2 8024      HDDDDH ...B.*$.
   250c3:	cf29 4949 4000 d05f 405f 0000 220e 8006     ).II.@_._@..."..
   250d3:	60e2 cf29 0049 0038 fe01 0001 0038 200e     .`).I.8.....8.. 
   250e3:	8024 2084 cf29 4949 0200 4a92 ff02 0002     $.. ).II...J....
   250f3:	220e 0000 000e f20a 3f22 0222 929e 00f3     ."......"?".....
   25103:	00ff 8024 2284 e0c0 5651 927f ff11 9292     ..$.."..QV......
   25113:	9292 009e e080 220e 2022 3f08 54c0 464d     ......."" .?.TMF
   25123:	45ff 544c 0004 480e e000 4084 7c00 5455     .ELT...H...@.|UT
   25133:	0494 5454 7c55 0000 c88a 8888 80e8 3f08     ..TTU|.........?
   25143:	00c0 557d fd55 5555 007d 000e c404 6046     ..}UU.UU}.....F`
   25153:	3f08 09c0 aeab 4f5a aaaa 000b 800e 0ec0     .?....ZO........
   25163:	c004 3f08 00c0 547f 57d4 7c54 0001 020e     ...?...T.WT|....
   25173:	40e4 20ca fc02 aea0 abaa aaaa aeaa 0020     .@. .......... .
   25183:	aa2a aaae 20aa 4f24 4490 7f44 0444 4f48     *.... $O.DD.D.HO
   25193:	0048 000e 000e 002e 7f04 44d5 007f 8678     H..........D..x.
   251a3:	0661 0078 022c 24e0 2084 1008 4b2e aaaa     a.x.,..$. ...K..
   251b3:	4baa 102e 0008 ac8a 8e88 8088 1511 2527     .K............'%
   251c3:	9157 2350 1720 0010 e222 0ce2 002e 2f10     W.P# ..."....../
   251d3:	49c8 102f c27e 4a52 007b 220c 8860 c0a2     .I/.~.RJ{.."`...
   251e3:	1f00 4820 4444 4444 2048 001f 4208 2aa2     .. HDDDDH ...B.*
   251f3:	8024 ff00 ff92 2404 ff24 2424 0004 2e2c     $......$$.$$..,.
   25203:	a226 604c 1f00 4820 4444 4444 2048 001f     &.L`.. HDDDDH ..
   25213:	4208 2aa2 8024 ff00 ff92 1310 13fc 5190     .B.*$..........Q
   25223:	0016 2e68 2448 2084 ff00 ff92 0808 2aff     ..h.H$. .......*
   25233:	292a 0008 2e68 e000 0000 ff00 ff92 df22     *)..h.........".
   25243:	7f44 4f49 0040 2e68 2a0c 6022 ff00 9292     D.IO@.h..*"`....
   25253:	00ff 0879 08ff 0079 0268 e2e0 e0e2 b1ff     ..y...y.h.......
   25263:	918e ffa0 0f00 29f9 002f 00e8 228c 6022     .......)/....""`
   25273:	1110 10fe 001f aaab abaa 0000 0068 aae2     ............h...
   25283:	60aa 4fe0 0460 4f44 c170 424f 0044 200e     .`.O`.DOp.OBD.. 
   25293:	220e 200c 7f00 5544 d555 557d 5557 0045     .". ..DUU.}UWUE.
   252a3:	00e0 0242 00e0 7f12 4240 c14c 415e 4c42     ..B.....@BL.^ABL
   252b3:	0040 0268 0848 0042 001c 10ff 4f60 4f49     @.h.H.B.....`OIO
   252c3:	7f40 0040 082c 0040 002e 0038 08ff 0030     @.@.,.@...8...0.
   252d3:	91ff 9191 00ff 082c 2242 2022 1f00 4820     ......,.B"" .. H
   252e3:	4444 4444 2048 001f 4208 2aa2 8024 4990     DDDDH ...B.*$..I
   252f3:	ff00 a4a0 bfa4 a4a4 00a0 0e2c aaaa a0aa     ..........,.....
   25303:	4990 5110 f752 525a 5434 0010 002c aa08     .I.QR.ZR4T..,...
   25313:	00ae 4990 5e00 5050 50ff 5e52 0000 2268     ...I.^PP.PR^..h"
   25323:	e848 2042 4990 0040 524a ca6b 526a 004a     H.B .I@.JRk.jRJ.
   25333:	002c 8a08 00ae 1f00 4820 4444 4444 2048     ,....... HDDDDH 
   25343:	001f 4208 2aa2 8024 4990 1f00 ff00 ff08     ...B.*$..I......
   25353:	0404 0008 2e2c 4c2c e022 4990 1f00 1010     ....,.,L"..I....
   25363:	50f7 5f50 0000 022c 8424 2022 4891 00fe     .PP_..,.$." .H..
   25373:	00ff 909f 90ff 009f 2ce0 8000 80e8 4990     .........,.....I
   25383:	0000 3444 fc07 3407 0044 002c 002c 60e2     ..D4...4D.,.,..`
   25393:	4990 3f10 10d0 fc13 5013 0030 0e2c 8024     .I.?.....P0.,.$.
   253a3:	2084 4990 3f10 12c0 ff92 fe92 0010 0e2c     . .I.?........,.
   253b3:	4802 0000 4990 1000 d03f 5457 1774 0010     .H...I..?.WTt...
   253c3:	062c e280 60aa 4990 1500 6925 53d1 6951     ,....`.I..%i.SQi
   253d3:	0005 042c 4ec4 4044 4990 0000 3111 46ca     ..,..ND@.I...1.F
   253e3:	724a 0003 082c 220e e022 4990 4800 6156     Jr..,..""..I.HVa
   253f3:	61c0 4856 0040 022c 8424 0022 4990 0000     .aVH@.,.$."..I..
   25403:	3427 64ac 342c 0024 062c 0080 0000 1f00     '4.d,4$.,.......
   25413:	4820 4444 4444 2048 001f 4208 2aa2 8024      HDDDDH ...B.*$.
   25423:	4990 2200 7fa2 2222 a27f 0022 022c 0048     .I."..""..".,.H.
   25433:	00e0 4990 c400 0437 04ff c437 0004 062c     ...I..7...7...,.
   25443:	e080 0086 003c 01ff 564a c061 5661 0048     ....<...JVa.aVH.
   25453:	e000 4822 2042 4770 4545 c445 455e 4d54     .."HB pGEEE.^ETM
   25463:	0074 022c 24c2 2084 5764 6454 c85f 4878     t.,..$. dWTd_.xH
   25473:	584b 0060 8808 aaca 60a2 ff00 a8a8 afa8     KX`......`......
   25483:	aaaa baaa 0000 0e68 aaaa 00ae a422 326f     ......h.....".o2
   25493:	2a05 ff2a 2a2a 0023 e000 0e00 c004 a0af     .**.**#.........
   254a3:	a0bf 02af 9f84 88e8 008f e0c0 0e80 e022     ..............".
   254b3:	cf42 0274 2201 f22f 2222 0023 000e e200     B.t.."/.""#.....
   254c3:	e022 9097 909f 0097 9f00 0c62 0073 e0c0     ".........b.s...
   254d3:	8e84 6022 95ff 9595 04f0 9497 f695 0000     .."`............
   254e3:	02e0 4824 2042 80ff f788 fe00 9392 fe92     ..$HB ..........
   254f3:	0000 88e0 ae2a 20aa 88ff 00f7 5550 93f9     ....*.. ....PU..
   25503:	fd11 0010 80e8 2e22 2022 f927 3c23 2200     ......"." '.#<."
   25513:	222f 21fe 00a6 8e24 8204 6048 fd22 3f20     /".!..$...H`". ?
   25523:	2500 fd25 2525 0020 8624 220e 002e f927     .%%.%% .$.."..'.
   25533:	3c23 524a ca6b 526a 004a 8624 8a08 00ac     #<JRk.jRJ.$.....
   25543:	fd22 3e21 7f00 4949 8989 0009 8424 e268     ".!>..II....$.h.
   25553:	e022 e13e 003e 2310 9252 2352 0010 6068     ".>.>..#R.R#..h`
   25563:	220e 002e f927 3c23 1f08 d730 7554 0017     ."..'.#<..0.Tu..
   25573:	8e24 0c2c 6022 2000 6a2e 2baa 4a4a 60ce     $.,."`. .j.+JJ.`
   25583:	0000 acaa 8c8e a0aa da36 6212 5948 4f69     ........6..bHYiO
   25593:	5149 0048 8844 2e22 2022 84bc 04fd 90ff     IQH.D."." ......
   255a3:	fc93 9093 00ff 248a 22ea e02a 1f00 4820     .......$."*... H
   255b3:	4444 4444 2048 001f 4208 2aa2 8024 1f00     DDDDH ...B.*$...
   255c3:	4820 4444 4444 2048 001f 4208 2aa2 8024      HDDDDH ...B.*$.
   255d3:	1f00 4820 4444 4444 2048 001f 4208 2aa2     .. HDDDDH ...B.*
   255e3:	8024 1f00 4820 4444 4444 2048 001f 4208     $... HDDDDH ...B
   255f3:	2aa2 8024 1504 d635 5655 545f 4665 0004     .*$...5.UV_TeF..
   25603:	4a44 e84a 2042 8b02 eb8a a8a8 a3aa 3bea     DJJ.B .........;
   25613:	0000 8a2a 2ae0 e08a 5444 54fe 0344 f08c     ..*..*..DT.TD...
   25623:	8480 00fc 0e2c a222 4068 ff88 0088 4908     ....,.".h@.....I
   25633:	fb49 4949 0008 804c 2e22 2022 4444 447f     I.II..L."." DD.D
   25643:	2824 ea3f 2a2a 002f 8844 e800 e08a 7f44     $(?.**/.D.....D.
   25653:	0044 243f e027 a13e 0066 ac4c a204 6048     D.?$'.>.f.L...H`
   25663:	7f44 8844 8ef9 88ff 90ff 00ef a44c e082     D.D.........L...
   25673:	00e8 7f44 0044 003f 08ff 08ff 0010 824c     ..D.D.?.......L.
   25683:	c4e2 60c2 4444 447f 2848 f80f 280f 0048     ...`DD.DH(...(H.
   25693:	c844 002c 60e2 1f00 4820 4444 4444 2048     D.,..`.. HDDDDH 
   256a3:	001f 4208 2aa2 8024 7f44 0044 9889 08ef     ...B.*$.D.D.....
   256b3:	ff49 0089 824c 4248 2022 7f44 0044 407f     I...L.HB" D.D..@
   256c3:	d15f 405f 007f 804c 00e0 e002 7f44 0444     _._@..L.....D.D.
   256d3:	5848 c86b 7053 0058 8a4c 8024 60e2 7f44     HXk.SpX.L.$..`D.
   256e3:	0044 5510 ff55 7d55 0010 402e 4e44 4044     D..UU.U}...@DND@
   256f3:	1f00 4820 4444 4444 2048 001f 4208 2aa2     .. HDDDDH ...B.*
   25703:	8024 4444 447f 7f00 5754 7d54 0002 8a44     $.DD.D..TWT}..D.
   25713:	44ac 2084 7f44 0244 4a0f 42f3 7a4f 0003     .D. D.D..J.BOz..
   25723:	824c e2c2 e0c2 7f44 0044 a492 00ff a492     L.....D.D.......
   25733:	00ff 804c e002 e002 1f00 4820 4444 4444     ..L....... HDDDD
   25743:	2048 001f 4208 2aa2 8024 0808 08ff 0900     H ...B.*$.......
   25753:	087a 29ff 002a 8844 2402 0080 ff08 0008     z..)*.D..$......
   25763:	fa00 abaa faaa 0000 804c 8e88 8088 ff08     ........L.......
   25773:	0008 6410 6544 c496 00a0 804c ae88 8088     ...dDe....L.....
   25783:	ff10 0911 f51f 5f55 1575 001f 0288 00c0     ......U_u.......
   25793:	e002 ff08 0008 427f da52 5a57 0043 864c     .......BR.WZC.L.
   257a3:	0280 00e0 0808 08ff 7f00 d754 7d54 0002     ..........T.T}..
   257b3:	8a44 442e 2084 1010 10ff 8f10 9faa caaa     D..D. ..........
   257c3:	000f c844 8e8e e08a 4242 42ef 4142 4c42     ..D.....BB.BBABL
   257d3:	44e7 0046 c422 2442 2084 5f40 f750 5050     .DF.".B$. @_P.PP
   257e3:	f45c 5754 0050 2a0e ea22 20aa 1f00 4820     \.TWP..*".. .. H
   257f3:	4444 4444 2048 001f 4208 2aa2 8024 eb49     DDDDH ...B.*$.I.
   25803:	495d e949 ff40 9880 00e7 220e 0e2e 0088     ]II.@......"....
   25813:	4544 4ae8 6253 4a52 44e9 0044 a222 262a     DE.JSbRJ.DD.".*&
   25823:	20a2 4442 e458 5f42 e442 4458 0042 aa2a     . BDX.B_B.XDB.*.
   25833:	aaae 20aa 1f00 4820 4444 4444 2048 001f     ... .. HDDDDH ..
   25843:	4208 2aa2 8024 4544 f555 5d57 f555 455f     .B.*$.DEU.W]U._E
   25853:	0044 4804 22e2 002e ff26 0224 2f28 fe28     D..H."..&.$.(/(.
   25863:	a021 0060 040e 8848 60c2 2c23 22ff 434c     !.`...H..`#,."LC
   25873:	407f 437f 004c e000 e222 20e2 1f00 4820     .@.CL...".. .. H
   25883:	4444 4444 2048 001f 4208 2aa2 8024 2c23     DDDDH ...B.*$.#,
   25893:	24ff 384a f80f 180f 0068 e000 8024 e0c2     .$J8....h...$...
   258a3:	2c23 24ff f203 9a96 f292 0003 e000 22e2     #,.$..........."
   258b3:	e022 2621 24ff df20 5f50 5f50 0040 e000     ".!&.$ .P_P_@...
   258c3:	888e 80ae 2c23 24ff ef99 5f00 ff40 0088     ....#,.$..._@...
   258d3:	e800 422c a0aa 2c23 24ff 300b 2aef 202f     ..,B..#,.$.0.*/ 
   258e3:	003f e080 8800 c0a2 a2bf a2fc 00bf 2628     ?.............(&
   258f3:	ff20 0020 aaea 02e0 002e a2bf a4fc 08bf      . .............
   25903:	107f 22ff 003e aaea c2e0 e022 1f00 4820     ...">....."... H
   25913:	4444 4444 2048 001f 4208 2aa2 8024 9f84     DDDDH ...B.*$...
   25923:	8fe8 24a2 ff28 2428 0022 4c0c 8e08 0088     ...$(.($"..L....
   25933:	9f84 88e8 808f 92ff ff92 0000 440c e2c2     .............D..
   25943:	202e 9f84 8fe8 2280 ff22 2222 0022 2e0e     . .....""."""...
   25953:	2e02 2022 4c02 487f 204f 212e 2fe0 0020     .." .L.HO .!./ .
   25963:	e200 2ee2 202e 9f84 8fe8 8a00 a392 0ad2     ..... ..........
   25973:	0000 4c0c 2e22 2022 be80 a0a0 e0be a0be     ...L"." ........
   25983:	bea2 0080 0c2c a622 6008 2720 23f8 9220     ....,."..` '.# .
   25993:	ffa4 a492 00ff e2e0 2e60 e002 5555 55ff     ........`...UU.U
   259a3:	7d55 ff51 9880 00e7 442a 2e4a 0088 1f00     U}Q.....*DJ.....
   259b3:	4820 4444 4444 2048 001f 4208 2aa2 8024      HDDDDH ...B.*$.
   259c3:	e45c 454f 3f02 a66b 3f22 0002 e088 0a2c     \.OE.?k."?....,.
   259d3:	002e e45c 454f 2910 8f49 2949 0010 e088     ..\.OE.)I.I)....
   259e3:	2e22 2022 1f00 4820 4444 4444 2048 001f     "." .. HDDDDH ..
   259f3:	4208 2aa2 8024 2a29 00ff 2aff 002a 007f     .B.*$.)*...**...
   25a03:	00ff 8024 00e0 e082 7808 f40f 5554 f404     ..$......x..TU..
   25a13:	9057 0030 a202 4448 0022 407f 007f a989     W.0...HD"..@....
   25a23:	f9ab a9ab 0089 8288 8024 00e0 447f 7f44     ........$....DD.
   25a33:	bf80 a4a4 bfa4 0080 4cc4 aa2a 20aa 447f     .........L*.. .D
   25a43:	7f44 9988 cfa9 b191 0098 4cc4 2e22 2022     D..........L"." 
   25a53:	407f 7f40 af20 eba8 afa8 0020 8a88 4822     .@@. ..... ..."H
   25a63:	2004 407f 007f ff21 7f22 8f48 0088 8088     . .@..!.".H.....
   25a73:	0e2e 000e 203f 3f20 5840 f454 5655 0058     ....?  ?@XT.UVX.
   25a83:	8888 8a08 80e8 0203 83fa aaa8 83aa 02fa     ................
   25a93:	0000 4cc4 ae88 8088 447f 107f 7d21 1381     ...L.....D..!}..
   25aa3:	25f9 004d c0c4 0e00 0000 447f 7f44 4850     .%M........DD.PH
   25ab3:	e255 4944 0042 4cc4 248a 2084 447f 7f44     U.DIB..L.$. .DD.
   25ac3:	d600 b29a 929f 00d2 4cc4 8808 80e8 487f     .........L.....H
   25ad3:	487f 007f 407f 807f 00ff 8888 8086 e0e4     .H...@..........
   25ae3:	223e 22ff 003e 3f20 24e4 0027 e422 48e2     >".">. ?.$'."..H
   25af3:	c022 223e 22ff 003e 427f 427e 007e e422     ".>".">..B~B~.".
   25b03:	c2e0 e022 1f00 4820 4444 4444 2048 001f     .."... HDDDDH ..
   25b13:	4208 2aa2 8024 203f 20ff 553f 5d56 57f5     .B.*$.? . ?UV].W
   25b23:	0055 e880 8480 002e e202 222f e122 242e     U........./""..$
   25b33:	e427 0007 e422 2442 2084 003f 00ff 843f     '...".B$. ?...?.
   25b43:	fda5 bda5 0085 c4c4 e2c0 e022 1f00 4820     .........."... H
   25b53:	4444 4444 2048 001f 4208 2aa2 8024 003f     DDDDH ...B.*$.?.
   25b63:	00ff 113f ca28 2849 0011 c4c4 e2c2 a0a6     ..?.(.I(........
   25b73:	203f 21ff 103f 09ef ef89 0010 e000 8024     ? .!?.........$.
   25b83:	60c2 c000 555f f555 5555 c05f 0001 e200     .`.._UU.UU_.....
   25b93:	8444 204a 80fe 809f 03fc 91fc 9c90 00f3     D.J ............
   25ba3:	042c 0420 00a0 1f00 4820 4444 4444 2048     ,. ..... HDDDDH 
   25bb3:	001f 4208 2aa2 8024 cf29 4949 ff00 9f80     ...B.*$.).II....
   25bc3:	9f91 0080 220e 220e 2022 1f00 4820 4444     ....."."" .. HDD
   25bd3:	4444 2048 001f 4208 2aa2 8024 1f00 4820     DDH ...B.*$... H
   25be3:	4444 4444 2048 001f 4208 2aa2 8024 1f00     DDDDH ...B.*$...
   25bf3:	4820 4444 4444 2048 001f 4208 2aa2 8024      HDDDDH ...B.*$.
   25c03:	1f00 4820 4444 4444 2048 001f 4208 2aa2     .. HDDDDH ...B.*
   25c13:	8024 2212 2aeb fe2a 2a2a 222b 0002 ea00     $..".**.**+"....
   25c23:	aaaa 00e0 2272 22ff 7218 ff22 2222 0000     ....r".".r".""..
   25c33:	e422 2e22 2022 c720 6545 3f45 49c9 4169     "."."  .EeE?.IiA
   25c43:	0040 4422 028e 002c 3f08 40c0 547f 407f     @."D..,..?.@.T.@
   25c53:	487f 0077 040e e0c8 00e8 3f08 00c0 5448     .Hw........?..HT
   25c63:	ce65 5564 0048 000e c8aa 808e 3f08 1fc0     e.dUH........?..
   25c73:	cf28 526a 4f6a 0048 0c0e 880e 00ae 3f08     (.jRjOH........?
   25c83:	00c0 92fe ff92 9292 00fe 000e 8eac a08c     ................
   25c93:	3f08 14c0 545f 947f 149f 0004 2a0e eaaa     .?.._T.......*..
   25ca3:	20aa 3f08 00c0 5e40 d352 5e52 0040 000e     . .?..@^R.R^@...
   25cb3:	2e48 4008 1f00 4820 4444 4444 2048 001f     H..@.. HDDDDH ..
   25cc3:	4208 2aa2 8024 3f08 14c0 0865 10f3 4629     .B.*$..?..e...)F
   25cd3:	0004 0a0e 8824 2042 3f08 00c0 4a62 cb4a     ....$.B .?..bJJ.
   25ce3:	4a4a 0062 000e 2e48 4008 603f 20bf 823f     JJb...H..@?`. ?.
   25cf3:	bf8c 84c0 0082 c8c4 0e88 0000 7f00 4f40     ..............@O
   25d03:	4a48 aa7f a9a8 008c 68e0 c822 60ea 7f02     HJ.......h"..`..
   25d13:	44d2 047f 08ff 08ff 0008 822c e4e0 60e2     .D........,....`
   25d23:	7f02 44d2 047f 213f 21ff 003f 822c 00e0     ...D..?!.!?.,...
   25d33:	00e0 7f02 44d3 047f 447f 447c 007c 822c     .....D...D|D|.,.
   25d43:	c2e0 e022 407f 807f 91fe 2a69 2afc 0029     .."..@....i*.*).
   25d53:	c4e2 4268 2022 07fc 54ac 54ac 05ac 02fd     ..hB" ...T.T....
   25d63:	0000 aa0e a2aa 0026 2212 4ad2 1023 d27e     ......&..".J#.~.
   25d73:	7a4a 0003 4a08 8800 c0a2 ff00 ff92 9514     Jz...J..........
   25d83:	4f64 95a4 0004 2e68 2e48 c000 ff00 ff92     dO....h.H.......
   25d93:	1221 00ff 12ff 0021 2e68 8024 60e2 ff00     !.....!.h.$..`..
   25da3:	ff92 2c20 e235 2124 0022 2e68 240a 2084     .. ,5.$!".h..$. 
   25db3:	ff10 1f10 0300 141f 55ff 005b 0868 aca4     .........U[.h...
   25dc3:	200e d53f 755f 401f 7e41 4040 007f 4422     . ?._u.@A~@@.."D
   25dd3:	8024 c022 44a2 00bf 49f8 0359 49f9 0058     $."..D...IY..IX.
   25de3:	c042 2e22 2022 6691 009f a425 a7fc fca4     B."." .f..%.....
   25df3:	0025 c022 2ee2 e022 44a2 00bf 752a 24ac     %."..."..D..*u.$
   25e03:	5625 0028 c242 8824 2042 d424 5a4f 0a6a     %V(.B.$.B $.OZj.
   25e13:	8afa e8af 0018 ea00 aaaa 00e0 1f00 4820     .............. H
   25e23:	4444 4444 2048 001f 4208 2aa2 8024 525e     DDDDH ...B.*$.^R
   25e33:	52d3 205e ff20 2020 003f e0c2 c0c2 e022     .R^  .  ?.....".
   25e43:	7f12 4442 c878 4a4f 4a4a 0048 0068 e800     ..BDx.OJJJH.h...
   25e53:	0088 7f12 4840 c949 497f 4849 0040 2268     ....@HI..IIH@.h"
   25e63:	e222 2022 7f12 4840 4d4a 49d8 484a 0048     "." ..@HJM.IJHH.
   25e73:	0268 a226 2024 232c 2fe0 1020 e82f 202f     h.&.$ ,#./ ././ 
   25e83:	003f 4844 8880 c0a2 a929 aa7f 0c2a 84f7     ?.DH....)...*...
   25e93:	16e5 0030 8024 4822 2042 69a9 6a3f 00aa     ..0.$."HB .i?j..
   25ea3:	427f 427e 007e 8024 e200 e022 4a29 39ad     .B~B~.$...".)J.9
   25eb3:	2be9 3929 4aad 0029 4802 080e 0042 0a69     .+)9.J)..H..B.i.
   25ec3:	29ff 0c44 20f3 3c23 0020 e080 48a2 2042     .)D.. #< ....HB 
   25ed3:	0038 08ff 4834 6a5f 4aca 004f 082c e840     8...4H_j.JO.,.@.
   25ee3:	e08a 0038 08ff ff30 a8a8 80af 00ff 082c     ..8...0.......,.
   25ef3:	884e e082 001c 10ff 8a61 ee99 7f48 0088     N.......a...H...
   25f03:	0c2c 8424 a0aa 001c 10ff ef99 5f00 7f40     ,.$.........._@.
   25f13:	0088 0a2c 4448 a0aa 1f00 4820 4444 4444     ..,.HD.... HDDDD
   25f23:	2048 001f 4208 2aa2 8024 4990 1200 5452     H ...B.*$..I..RT
   25f33:	5df4 d476 0010 082c ae88 8088 4990 1800     .]v...,......I..
   25f43:	5450 55f4 5056 0018 082c ae88 8088 4990     PT.UVP..,......I
   25f53:	be80 aaab aaff beaa 0080 0a2c 842c 2042     ..........,.,.B 
   25f63:	4990 fe00 9292 92ff fe92 0000 2a2c eaaa     .I..........,*..
   25f73:	20aa 4990 0400 577c 55fd 7d55 0004 002c     . .I..|W.UU}..,.
   25f83:	2200 002e 4990 ef00 a8a8 a8ab efa8 0000     ."...I..........
   25f93:	0a2c 8424 202a 4990 4900 ff49 088a 49ff     ,.$.* .I.II....I
   25fa3:	002a 002c 242e e084 4990 4800 ff49 0889     *.,..$...I.HI...
   25fb3:	007f 00ff 082c 080e e0a2 4990 3f10 1fc0     ....,......I.?..
   25fc3:	1f08 3fe0 0020 0e2c 240c 2084 4990 1400     ...? .,..$. .I..
   25fd3:	5424 9494 2655 0014 0e2c aaaa e0aa 4990     $T..U&..,......I
   25fe3:	1000 d23e 5e53 1273 001e 022c 8024 60e2     ..>.S^s...,.$..`
   25ff3:	4990 1400 d525 494f 6555 0004 042c e444     .I..%.OIUe..,.D.
   26003:	4044 4990 2500 a979 292f 4929 0021 022c     D@.I.%y./))I!.,.
   26013:	8424 2022 003c 02ff 222f e22f a13f 0066     $." <.../"/.?.f.
   26023:	e800 a402 e084 003e 20ff 91ff ff92 9192     ......>.. ......
   26033:	00ff e000 2ee2 e022 003c 20ff 7f18 57d4     ......".<.. ...W
   26043:	7d54 0002 e000 442e 2084 1f00 4820 4444     T}.....D. .. HDD
   26053:	4444 2048 001f 4208 2aa2 8024 5f60 5750     DDH ...B.*$.`_PW
   26063:	d454 545c 5057 0060 2a0e eaaa 00a2 4864     T.\TWP`..*....dH
   26073:	6a5f ca4a 4a7a 584f 0060 ea00 aaaa 00e0     _jJ.zJOX`.......
   26083:	4868 6457 c447 4c74 584f 0060 a224 c6e4     hHWdG.tLOX`.$...
   26093:	2084 5060 685f da4c 6a48 505e 0060 aa02     . `P_hL.Hj^P`...
   260a3:	a8aa c0aa ff00 aaa9 aaaf a9ab b9ab 0001     ................
   260b3:	0468 a64a 8024 ff00 aaaa aaab aaaf baaa     h.J.$...........
   260c3:	0003 4a68 48e4 204a e722 352a 2400 fe25     ..hJ.HJ ".*5.$%.
   260d3:	2424 0004 020e 226a 604c cf42 0a74 2100     $$....j"L`B.t..!
   260e3:	8a49 4492 0021 000e 2402 0048 67a1 053a     I..D!....$H..g:.
   260f3:	d130 fd16 9514 0056 020e 2448 2084 9097     0.....V...H$. ..
   26103:	909f 1a21 00ff 14ff 0022 e280 8024 60e2     ..!....."...$..`
   26113:	4462 5a4f ca6a 6a5f 4a4a 0068 ea00 eaaa     bDOZj._jJJh.....
   26123:	20aa 527c 5ad6 0176 fe00 8480 00fc aa2a     . |R.Zv.......*.
   26133:	aaae 20aa 8808 92b3 fa8a aaaa c88b 0008     ... ............
   26143:	ea22 aaaa 20e2 1f00 4820 4444 4444 2048     ".... .. HDDDDH 
   26153:	001f 4208 2aa2 8024 88ff 00f7 557c ffd4     ...B.*$.....|U..
   26163:	5454 007c 80e8 8e88 8088 2929 a1b1 bd85     TT|.......))....
   26173:	a1c1 4931 0009 0424 4220 2004 7652 53da     ..1I..$. B. Rv.S
   26183:	466a 5662 564a 0062 8e24 aaaa 00e0 1f00     jFbVJVb.$.......
   26193:	4820 4444 4444 2048 001f 4208 2aa2 8024      HDDDDH ...B.*$.
   261a3:	5554 45e5 7555 f405 9794 00f4 440c c244     TU.EUu.......DD.
   261b3:	002e a492 80ff a492 11ff 11ff 001f e002     ................
   261c3:	e002 00e0 a492 92ff ffa4 a714 e784 0018     ................
   261d3:	e002 482e 002e 92aa 00eb 92aa 00eb 007f     ...H............
   261e3:	00ff a0a4 a0a4 e082 1f00 4820 4444 4444     .......... HDDDD
   261f3:	2048 001f 4208 2aa2 8024 1f00 4820 4444     H ...B.*$... HDD
   26203:	4444 2048 001f 4208 2aa2 8024 da36 6012     DDH ...B.*$.6..`
   26213:	4b24 2292 4b92 0024 8844 220e 002e 84bc     $K.".K$.D.."....
   26223:	fc85 6447 c75c 645c 0044 2288 8ec8 0088     ..Gd\.\dD.."....
   26233:	1f00 4820 4444 4444 2048 001f 4208 2aa2     .. HDDDDH ...B.*
   26243:	8024 1f00 4820 4444 4444 2048 001f 4208     $... HDDDDH ...B
   26253:	2aa2 8024 7f44 8844 004f ff24 ff24 0024     .*$.D.D.O.$.$.$.
   26263:	824c a2c4 202a 4444 447f a400 e5bd bda5     L...* DD.D......
   26273:	0004 8844 e200 002e 7f44 4444 7200 5352     ..D.....D.DD.rRS
   26283:	7454 0000 884c ae0a 80aa 7f44 4444 ef00     Tt..L.....D.DD..
   26293:	aaaa eaaa 000f 884c 880e e08a 4444 447f     ......L.....DD.D
   262a3:	6a12 7b4a aa8e 0012 8844 2e00 0000 4444     .jJ{....D.....DD
   262b3:	447f 2420 9454 2655 0020 c844 aa0e 00ae     .D $T.U& .D.....
   262c3:	4444 447f 5510 557f 7d55 0010 8a44 e248     DD.D.U.UU}..D.H.
   262d3:	002e ff22 0024 a9a4 e7b0 a9b0 00a4 002e     ..".$...........
   262e3:	2e48 8084 0808 08ff 5514 f358 555d 0014     H........UX.]U..
   262f3:	8844 a426 204a ff08 0008 84ff 9494 94ff     D.&.J ..........
   26303:	0094 864c aa82 a0ea ff20 0420 4d45 e555     ..L..... . .EMU.
   26313:	4f54 0044 804c 4ec4 002e ff22 0024 5a4b     TOD.L..N..".$.KZ
   26323:	cb6a 5f68 0048 002e 4cc4 002e ff08 0008     j.h_H....L......
   26333:	509f f417 5017 009f 804c 88e0 e082 ff08     .P...P..L.......
   26343:	0008 88ff be8b 888b 00ff 804c aae2 e0a2     ..........L.....
   26353:	5450 52ff 0652 527a 909f 0010 ea00 aaaa     PT.RR.zR........
   26363:	00e0 1f00 4820 4444 4444 2048 001f 4208     .... HDDDDH ...B
   26373:	2aa2 8024 2222 24ff cb24 e710 5120 008a     .*$."".$$... Q..
   26383:	e002 4882 2084 ff08 0008 4964 c171 457d     ...H. ....dIq.}E
   26393:	0064 804c 2e22 2022 5446 5555 f555 5555     d.L."." FTUUU.UU
   263a3:	5455 0046 6222 e2e2 2062 1f00 4820 4444     UTF."b..b .. HDD
   263b3:	4444 2048 001f 4208 2aa2 8024 ff80 ff94     DDH ...B.*$.....
   263c3:	6881 c848 484f 0068 8e4c 0200 00e0 4444     .hH.OHh.L.....DD
   263d3:	45ef 4440 444f 4de4 0044 e08a 2a2c 204a     .E@DOD.MD...,*J 
   263e3:	4444 e55f 4948 ea4d 4d4a 0041 e08a 4e04     DD_.HIM.JMA....N
   263f3:	4044 4544 45ef 4044 4a4f 53ea 0052 e0c0     D@DE.ED@OJ.SR...
   26403:	c0c2 000e 5457 ff54 5554 e057 404f 005f     ....WTT.TUW.O@_.
   26413:	8e24 2084 e082 1f00 4820 4444 4444 2048     $.. .... HDDDDH 
   26423:	001f 4208 2aa2 8024 fd40 f545 f555 1044     ...B.*$.@.E.U.D.
   26433:	10ff 001f 242a 242a e082 1f00 4820 4444     ....*$*$.... HDD
   26443:	4444 2048 001f 4208 2aa2 8024 5f40 55f5     DDH ...B.*$.@_.U
   26453:	7d57 5555 5ff5 0040 4c44 e444 4044 594f     W}UU._@.DLD.D@OY
   26463:	ef49 4442 e859 4848 004f 2ee2 0800 e022     I.BDY.HHO.....".
   26473:	4544 ed48 6554 ec56 4548 0044 0e48 a222     DEH.TeV.HED.H.".
   26483:	c060 4a42 e453 5348 e448 534a 0042 242a     `.BJS.HSH.JSB.*$
   26493:	8480 20a2 484e ea4a 5b4a ea4a 484a 004e     ... NHJ.J[J.JHN.
   264a3:	c422 aa2e 20a2 1f00 4820 4444 4444 2048     ".... .. HDDDDH 
   264b3:	001f 4208 2aa2 8024 4141 fd45 5555 f755     ...B.*$.AAE.UUU.
   264c3:	4159 0041 a202 e442 202a 1f00 4820 4444     YAA...B.* .. HDD
   264d3:	4444 2048 001f 4208 2aa2 8024 2c23 24ff     DDH ...B.*$.#,.$
   264e3:	5543 fd57 5755 0045 e000 4048 002e 2c23     CUW.UWE...H@..#,
   264f3:	24ff 2522 fd26 2524 0020 e400 228c 8026     .$"%&.$% ...."&.
   26503:	2c23 22ff 5559 f555 5557 0059 e000 2e00     #,."YUU.WUY.....
   26513:	0000 2c23 24ff 5242 ff4a 524a 0042 e000     ..#,.$BRJ.JRB...
   26523:	8e24 2084 2c23 24ff 7a22 4b4a 7a4a 0000     $.. #,.$"zJKJz..
   26533:	e000 ae2a 20aa 2c23 24ff e403 f22a 242a     ..*.. #,.$..*.*$
   26543:	00e2 e000 8808 00ac 2c23 24ff 2a12 8f4a     ........#,.$.*J.
   26553:	2a4a 0012 e000 2e48 4008 2c23 24ff 7f02     J*....H..@#,.$..
   26563:	d654 7d55 0002 e000 442e 2084 fda5 bda5     T.U}.....D. ....
   26573:	0885 e21c 3e21 0020 22e2 2ce0 6008 ff00     ....!> ..".,.`..
   26583:	afa8 aaba aaef efba 00a8 0e68 e888 00ae     ..........h.....
   26593:	9f84 8fe8 2282 22fe fe22 0022 4c0c 8024     .....".""."..L$.
   265a3:	6008 1f00 4820 4444 4444 2048 001f 4208     .`.. HDDDDH ...B
   265b3:	2aa2 8024 9f84 88e8 808f 1575 15f5 0077     .*$.......u...w.
   265c3:	440c e2c0 6022 9f84 8fe8 5492 705b 949b     .D.."`.....T[p..
   265d3:	0012 4c0c 8024 00e0 9f84 8fe8 3f90 57d0     ...L$........?.W
   265e3:	1574 0017 8a08 0c48 6022 9f84 8fe8 ff00     t.....H."`......
   265f3:	a7a4 fda4 0002 4c0c 442e 2084 909f d2bf     .......L.D. ....
   26603:	909f 209f 20ff 003f eae2 e8e2 e002 1f00     ... . ?.........
   26613:	4820 4444 4444 2048 001f 4208 2aa2 8024      HDDDDH ...B.*$.
   26623:	7117 f116 0857 e918 2c2a 0020 22e2 c2e0     .q..W...*, .."..
   26633:	6022 4f88 3e00 2a2a aaeb 3eaa 0000 2a2c     "`.O.>**...>..,*
   26643:	eaaa 20aa 407f 007f 5553 f359 5559 0053     ... .@..SUY.YUS.
   26653:	8088 4e44 4044 407f 087f 4b49 4efa 1b4a     ..DND@.@..IK.NJ.
   26663:	0068 8888 aa0e 00ae 92fe 92ff 89fe ff92     h...............
   26673:	a492 00ff e000 2e00 e002 1f00 4820 4444     ............ HDD
   26683:	4444 2048 001f 4208 2aa2 8024 487f 227f     DDH ...B.*$..H."
   26693:	7924 3aa6 2b6a 0018 8288 c4a2 20c2 487f     $y.:j+....... .H
   266a3:	487f 0a7f 2a2b 2ffa 002a 8888 0880 002e     .H..+*./*.......
   266b3:	1f00 4820 4444 4444 2048 001f 4208 2aa2     .. HDDDDH ...B.*
   266c3:	8024 90f7 929f 04f2 ff84 ff84 0084 e4e2     $...............
   266d3:	c042 000e 90f7 f29f 2624 fc25 2625 0020     B.......$&%.%& .
   266e3:	c4e2 4822 2042 223e 22ff 803e 929f 92fc     .."HB >".">.....
   266f3:	009f e422 e0e0 e002 223e 22ff 523e 424a     ..".....>".">RJB
   26703:	4a7f 0052 e422 00c6 00e0 1f00 4820 4444     .JR."....... HDD
   26713:	4444 2048 001f 4208 2aa2 8024 223e 22ff     DDH ...B.*$.>"."
   26723:	043e 243f 24ff 003f e422 e8e8 e08a 407f     >.?$.$?."......@
   26733:	007f c97f 7f49 c949 007f c0c4 4e44 4044     ....I.I.....DND@
   26743:	1f00 4820 4444 4444 2048 001f 4208 2aa2     .. HDDDDH ...B.*
   26753:	8024 7f04 2424 e422 2328 6428 0002 84ce     $...$$".(#(d....
   26763:	a226 202c e202 2624 f32a 262a e224 0002     &., ..$&*.*&$...
   26773:	ae2a aeae 20aa 007f 00ff 007f 555d 55d5     *.... ......]U.U
   26783:	005d c4c4 44c0 406c ea00 2c2a f92a 2c2a     ]....Dl@..*,*.*,
   26793:	ea2a 0000 8888 888e 8088 003f 00ff 003f     *.........?...?.
   267a3:	94ff 9f95 00f5 8a88 80a4 e0e2 003f 00ff     ............?...
   267b3:	8a3f bf84 8ac4 003f c4c4 aae2 e022 cf29     ?.....?.....".).
   267c3:	8449 84ff 84ff 007f 00ff 200e e0e0 e082     I.......... ....
   267d3:	1f00 4820 4444 4444 2048 001f 4208 2aa2     .. HDDDDH ...B.*
   267e3:	8024 1f00 4820 4444 4444 2048 001f 4208     $... HDDDDH ...B
   267f3:	2aa2 8024 cf29 4949 4804 755f 55d5 005f     .*$.).II.H_u.U_.
   26803:	220e e000 e002 1f00 4820 4444 4444 2048     ."...... HDDDDH 
   26813:	001f 4208 2aa2 8024 cf29 0049 283f e02f     ...B.*$.).I.?(/.
   26823:	a23f 006c 2a0e 24c8 e084 cf29 4949 8bf8     ?.l..*.$..).II..
   26833:	88ff 90ff 00ef 220e e082 00e8 cf29 4949     ......."....).II
   26843:	9980 cfa9 b189 0088 220e 2e02 2022 cf29     .........".." ).
   26853:	0049 f407 9f94 f494 0007 200e 0ec0 c004     I.......... ....
   26863:	cf29 4949 4400 5754 947c 0094 220e e202     ).II.DTW|...."..
   26873:	202c cf29 0049 4a90 9a81 c9ac 000f 200e     , ).I..J....... 
   26883:	04e0 c0a2 2272 24ff 2300 27fc b52a 006a     ....r".$.#.'*.j.
   26893:	e200 0e48 60a2 1179 12ff e514 ff25 2525     ..H..`y.....%.%%
   268a3:	0004 e000 220e 002e 5651 927f 0391 8afa     ....."..QV......
   268b3:	fa8a 0003 e080 220e e022 c422 6a5b 2a4a     ......."".".[jJ*
   268c3:	48cb 4f68 0040 c400 c244 002e cd2a 6958     .HhO@...D...*.Xi
   268d3:	204e 4fc8 4968 004e 8424 2420 2084 3f08     N .OhIN.$. $. .?
   268e3:	52c0 54ff 4403 427a 007c aa0e 88c8 a0ca     .R.T.DzB|.......
   268f3:	3f08 01c0 ff41 5555 ff55 0041 000e a2e6     .?..A.UUU.A.....
   26903:	60e2 3f08 26c1 22ff 7e21 4ad2 007b 800e     .`.?.&."!~.J{...
   26913:	88e0 c0a2 3f08 00c0 909f d4bf 909f 009f     .....?..........
   26923:	000e eae2 e0e2 3f08 01c0 a9f8 f9aa a9a8     .......?........
   26933:	00f8 0c0e 2a0e c060 3f08 12c0 4a6f aa5f     .....*`..?..oJ_.
   26943:	cf9a 0022 080e 88e8 80ae 1f00 4820 4444     .."......... HDD
   26953:	4444 2048 001f 4208 2aa2 8024 555d 957f     DDH ...B.*$.]U..
   26963:	9d95 ff00 9880 00e7 e4e2 0e2e 0088 3f08     ...............?
   26973:	00c0 aaff abae acaa 00ea 2c0e ae2a 20aa     ...........,*.. 
   26983:	4f24 0490 5555 c565 5764 0054 000e 4cc4     $O..UUe.dWT....L
   26993:	002e cf24 4810 e255 404c 9f90 0090 040e     ..$..HU.L@......
   269a3:	84c4 002e 7f04 44d5 047f 223f 22ff 003f     .......D..?"."?.
   269b3:	0268 e2e0 e0e2 7f02 44d3 147f cb2a 2a4a     h........D..*.J*
   269c3:	0013 822c 0ee0 c004 7f04 cc55 7f44 7e00     ..,.......U.D..~
   269d3:	4ad2 007b 0868 082e c0a2 2a2a 684c beaa     .J{.h.....**Lh..
   269e3:	68a8 2a4c 002a 0c2c a622 6008 2517 9157     .hL**.,."..`.%W.
   269f3:	2156 0016 88ff 00f7 e8e4 6068 80e8 af8a     V!........h`....
   26a03:	4f5a 0baa ff80 9f92 0000 0e0c 2e4c 204e     ZO..........L.N 
   26a13:	1f00 4820 4444 4444 2048 001f 4208 2aa2     .. HDDDDH ...B.*
   26a23:	8024 ff00 ff92 f700 9f94 f495 0007 2e68     $.............h.
   26a33:	800e e00a ff00 ff92 710c ff09 7109 000c     .........q...q..
   26a43:	2e68 2e22 2022 ff00 ff92 6210 6243 cf92     h."." .....bCb..
   26a53:	0022 2e68 0800 002e 1f00 4820 4444 4444     ".h....... HDDDD
   26a63:	2048 001f 4208 2aa2 8024 d53f 755f 001f     H ...B.*$.?._u..
   26a73:	888f 8888 00f8 2422 c240 e022 6492 805f     ......"$@."..d_.
   26a83:	121f f51f 5355 0058 c622 c082 60e2 44a2     ....USX."....`.D
   26a93:	00bf 547c 0497 5457 007c c042 8024 e0e2     ..|T..WT|.B.$...
   26aa3:	6492 009f 5e40 d352 5e52 0040 c222 2e48     .d..@^R.R^@.".H.
   26ab3:	2084 d53f 755f 221f ff22 3e22 0002 02e0     . ?._u."".">....
   26ac3:	80e4 2084 1f00 4820 4444 4444 2048 001f     ... .. HDDDDH ..
   26ad3:	4208 2aa2 8024 7f00 4544 d456 557d 4457     .B.*$...DEV.}UWD
   26ae3:	0045 8268 44aa a0aa 7f00 5f40 c444 5457     E.h..D....@_D.WT
   26af3:	545d 0057 0ce0 2448 2084 7f00 5f40 f555     ]TW...H$. ..@_U.
   26b03:	555f 5f55 0040 0468 e4c4 0044 7f12 5240     _UU_@.h...D...@R
   26b13:	5652 52db 5c54 0056 2a68 eaaa 20aa 1f00     RV.RT\V.h*... ..
   26b23:	4820 4444 4444 2048 001f 4208 2aa2 8024      HDDDDH ...B.*$.
   26b33:	e02f 202f 6a12 6f4a cf9a 00a2 c4a2 ae08     /./ .jJo........
   26b43:	0088 f844 5252 035c f844 5252 005c aa2a     ..D.RR\.D.RR\.*.
   26b53:	aaae 20aa 409f 9d16 9d95 ada5 80a6 00ff     ... .@..........
   26b63:	2ae0 a244 e002 69a9 6a3f 7faa 4949 897e     .*D....i?j..II~.
   26b73:	0088 8024 22aa 4028 4504 d555 7f55 d555     ..$.."(@.EU.U.U.
   26b83:	4555 0004 c8aa 842e a04a 0038 08ff 0030     UE......J.8...0.
   26b93:	aaef aaaa 00ef 082c e840 e08a 0038 08ff     ......,.@...8...
   26ba3:	0030 547f 54d7 007d 082c e462 204c 003c     0..T.T}.,.b.L <.
   26bb3:	10ff 6924 22b6 6bba 0028 082c a4a2 20a2     ..$i.".k(.,.... 
   26bc3:	4990 fa00 aaaa aaab faaa 0000 2a68 88c8     .I..........h*..
   26bd3:	20ca 1f00 4820 4444 4444 2048 001f 4208     . .. HDDDDH ...B
   26be3:	2aa2 8024 4990 7f01 ff49 ff49 7f49 0001     .*$..I..I.I.I...
   26bf3:	2268 0040 2042 4990 ff00 ff92 ff00 ff92     h"@.B .I........
   26c03:	0000 2c68 2c2e 002e 4990 1000 c824 4875     ..h,.,...I..$.uH
   26c13:	4470 007c 0e2c 2a0e 6068 4990 4800 6a5f     pD|.,..*h`.I.H_j
   26c23:	4aca 5f4a 0048 002c 88e8 00ae 4990 2720     .JJ_H.,......I '
   26c33:	7fa0 7f20 27a0 0020 2a68 2eae 20aa 4990     .. ..' .h*... .I
   26c43:	6e00 4f49 4fc0 4948 006f 022c 0ec0 6022     .nIO.OHIo.,..."`
   26c53:	1f00 4820 4444 4444 2048 001f 4208 2aa2     .. HDDDDH ...B.*
   26c63:	8024 1f00 4820 4444 4444 2048 001f 4208     $... HDDDDH ...B
   26c73:	2aa2 8024 003c 10ff ff04 f2aa a7aa 002c     .*$.<.........,.
   26c83:	e000 aa0e 00ae 003c 00ff cb28 e710 5120     ......<...(... Q
   26c93:	008a e000 48a2 2084 0038 10ff 4a62 cb4a     .....H. 8...bJJ.
   26ca3:	4a4a 0062 e000 2e48 4008 003c 10ff 92aa     JJb...H..@<.....
   26cb3:	00eb 92aa 00eb e000 a0a4 a0a4 5464 5555     ............dTUU
   26cc3:	ff55 5555 545f 0064 422c 662e 2062 4f88     U.UU_Td.,B.fb .O
   26cd3:	6000 555f d555 5d55 0061 222c 22e2 e022     .`_UU.U]a.,"."".
   26ce3:	1f00 4820 4444 4444 2048 001f 4208 2aa2     .. HDDDDH ...B.*
   26cf3:	8024 1f00 4820 4444 4444 2048 001f 4208     $... HDDDDH ...B
   26d03:	2aa2 8024 e722 3229 2514 49d5 6555 0004     .*$.".)2.%.IUe..
   26d13:	080e 220e 002e a422 326f d005 ba96 9792     ..."..".o2......
   26d23:	00d2 e000 8800 808e 9017 909f 2c17 abaa     .............,..
   26d33:	fbaa 002c e0c0 2ac0 204a 1f00 4820 4444     ..,....*J .. HDD
   26d43:	4444 2048 001f 4208 2aa2 8024 1f00 4820     DDH ...B.*$... H
   26d53:	4444 4444 2048 001f 4208 2aa2 8024 5f90     DDDDH ...B.*$.._
   26d63:	0400 b28b fa8a aaaa 00cb 402e 88e8 e08a     ...........@....
   26d73:	2a2e 2aff 2aff a27f a2be 00fe 8024 e2e8     .*.*.*......$...
   26d83:	e022 929f 00f3 92ff 00ff 92ff 00ff c222     ".............".
   26d93:	e4c2 e082 929f f392 5e40 d352 5e52 0040     ........@^R.R^@.
   26da3:	2c02 2e48 4008 1f00 4820 4444 4444 2048     .,H..@.. HDDDDH 
   26db3:	001f 4208 2aa2 8024 90ff 15ef a794 91d0     ...B.*$.........
   26dc3:	2156 0016 e4e8 082e 6068 f927 3c23 5a12     V!......h`'.#<.Z
   26dd3:	f356 5a56 0012 8e24 8e08 0088 e13e 803e     V.VZ..$.....>.>.
   26de3:	92ff 80ff 415e 007e 6468 e0c4 6068 f927     ....^A~.hd..h`'.
   26df3:	3c23 e544 1d47 e545 0044 8e24 e280 002e     #<D.G.E.D.$.....
   26e03:	f927 3c23 ef41 1f49 ef49 0041 8e24 4822     '.#<A.I.I.A.$."H
   26e13:	2042 fd13 3611 809f 949f 949f 00bf 8424     B ...6........$.
   26e23:	aae2 e0aa f927 3c23 5554 c565 5764 0054     ....'.#<TUe.dWT.
   26e33:	8624 4c0c 002e fc23 3e21 ff05 4425 417e     $..L..#.!>..%D~A
   26e43:	007e 6068 0aae 6048 f927 7c23 fb20 a9a9     ~.h`..H`'.#| ...
   26e53:	f9ab 0001 8e24 240e 60e2 f927 3c23 ff00     ....$..$.`'.#<..
   26e63:	fda9 88a9 00ff 8624 442c e0c2 f927 3c23     ......$.,D..'.#<
   26e73:	af4a ea3a ac3b 004a 8e24 2a0c 00a6 f927     J.:.;.J.$..*..'.
   26e83:	3c23 5f60 d555 415d 0070 8e24 220e 002e     #<`_U.]Ap.$.."..
   26e93:	1f00 4820 4444 4444 2048 001f 4208 2aa2     .. HDDDDH ...B.*
   26ea3:	8024 1f00 4820 4444 4444 2048 001f 4208     $... HDDDDH ...B
   26eb3:	2aa2 8024 1f00 4820 4444 4444 2048 001f     .*$... HDDDDH ..
   26ec3:	4208 2aa2 8024 1f00 4820 4444 4444 2048     .B.*$... HDDDDH 
   26ed3:	001f 4208 2aa2 8024 da36 6212 2010 74cd     ...B.*$.6..b. .t
   26ee3:	545f 007f 8844 8800 c0aa 1f00 4820 4444     _T..D....... HDD
   26ef3:	4444 2048 001f 4208 2aa2 8024 1f00 4820     DDH ...B.*$... H
   26f03:	4444 4444 2048 001f 4208 2aa2 8024 84bc     DDDDH ...B.*$...
   26f13:	07fd 5710 ff54 7c55 0013 2c8a 8e2c e008     ...WT.U|...,,...
   26f23:	1f00 4820 4444 4444 2048 001f 4208 2aa2     .. HDDDDH ...B.*
   26f33:	8024 4848 55fe 5158 f08a 8b81 00f9 ac8a     $.HH.UXQ........
   26f43:	8c8e 8022 7f44 1044 5053 1157 1ff1 0050     ..".D.D.SPW...P.
   26f53:	422e e4e2 200c ff88 0088 4948 00ff 49ff     .B... ....HI...I
   26f63:	0049 804c c082 00e0 7f48 0548 ff04 4124     I.L.....H.H...$A
   26f73:	417e 007e 8c4c 0a0e 6048 4444 447f 3f10     ~A~.L...H`DD.D.?
   26f83:	a565 257f 0025 8844 220e 20e2 4444 447f     e..%%.D..". DD.D
   26f93:	6900 c848 494f 0069 8844 422c 20e2 4444     .iH.OIi.D.,B. DD
   26fa3:	447f 3502 57d4 655c 0006 8844 ae24 2084     .D.5.W\e..D.$.. 
   26fb3:	ff08 0008 af8a eaba afaa 008a 804c aa0e     ............L...
   26fc3:	00ae 5454 55ff 2110 2830 fe22 0020 2aaa     ..TT.U.!0(". ..*
   26fd3:	aaae 20a2 ff22 0124 ff41 5555 ff55 0041     ... ".$.A.UUU.A.
   26fe3:	002e a2e6 60e2 1f00 4820 4444 4444 2048     .....`.. HDDDDH 
   26ff3:	001f 4208 2aa2 8024 ff10 0011 a1bd e3bd     ...B.*$.........
   27003:	a1bd 00bd 0288 8024 2084 4a4b 4afa 004b     ......$.. KJ.JK.
   27013:	4a4b 4afa 004b 22e2 e2e0 e022 ff08 0108     KJ.JK.."..".....
   27023:	aefb abaa faaa 0003 804c c4c4 c0a2 ff10     ........L.......
   27033:	7f11 8054 f70c f584 0016 4e80 2480 2084     ..T........N.$. 
   27043:	ff10 2010 807f a42e e4af 0024 804c ace0     ... ......$.L...
   27053:	a08c 4a48 52fe 6805 ea51 7940 000c c8aa     ..HJ.R.hQ.@y....
   27063:	88ae a0c2 1f00 4820 4444 4444 2048 001f     ...... HDDDDH ..
   27073:	4208 2aa2 8024 1f00 4820 4444 4444 2048     .B.*$... HDDDDH 
   27083:	001f 4208 2aa2 8024 4a4a 54ff 4154 5c52     ...B.*$.JJ.TTAR\
   27093:	52f0 005e aaaa cac8 a0aa 4505 fc46 5454     .R^........EF.TT
   270a3:	fc54 4546 0005 0c24 a622 2004 5750 f554     T.FE..$.".. PWT.
   270b3:	7d57 f557 5754 0050 440e 444e 002e 4544     W}W.TWP..DND..DE
   270c3:	45ef 4044 4a4f 4aea 004f e0c0 eac0 e0aa     .ED@OJ.JO.......
   270d3:	f547 f55f 0047 4444 447f 0044 e444 0040     G._.G.DD.DD.D.@.
   270e3:	00e0 4f40 ea4a 4a4a eb5c 5b48 0048 0e68     ..@OJ.JJ\.H[H.h.
   270f3:	02ae 60c2 484f 4aeb 4a4a 484b 48ff 005b     ...`OH.JJJKH.H[.
   27103:	a2e0 a0c2 202c 4b5e 4aea 4246 4a5e 4bea     ...., ^K.JFB^J.K
   27113:	0046 aa0e aaaa 00ae ef41 1555 ef55 ff41     F.......A.U.U.A.
   27123:	9880 00e7 4822 2e42 0088 5d41 55f5 7f55     ...."HB...A].UU.
   27133:	5555 5df5 0041 a222 0448 202a 4243 f25f     UU.]A.".H.* CB_.
   27143:	5e52 fa5a 425f 0043 e800 aa88 00e0 5554     R^Z._BC.......TU
   27153:	f55f 4044 e04e 405f 004e e048 2cc0 200c     _.D@N._@N.H..,. 
   27163:	5f40 f555 5f55 f555 5f55 0040 4822 0e00     @_U.U_U.U_@."H..
   27173:	606a 4f44 e150 4e45 e555 4d4b 0043 020e     j`DOP.ENU.KMC...
   27183:	442a 00a2 6752 e448 5555 d57f 5f55 0044     *D..RgH.UU..U_D.
   27193:	040e e444 4044 ab9a 9ad2 d3aa 009a 88ff     ..D.D@..........
   271a3:	00f7 aa0e 00ae 80e8 5244 40e8 484f 4a4b     ........DR.@OHKJ
   271b3:	54eb 0054 8624 e280 a0a4 4a4c ec4a 5948     .TT.$.....LJJ.HY
   271c3:	ea4e 4a4b 004c aa2a cac8 20aa 5559 f555     N.KJL.*.... YUU.
   271d3:	7451 f455 545f 0058 0e2c 2a22 e0a2 5f40     QtU._TX.,."*..@_
   271e3:	f555 5555 f555 5157 0041 e468 4ee4 e044     U.UUU.WQA.h..ND.
   271f3:	2c23 22ff 4b49 4afa 4bfa 0048 e000 aa0e     #,."IK.J.KH.....
   27203:	00ae 5149 54fa 124a 544a 51fa 0049 8800     ..IQ.TJ.JT.QI...
   27213:	8a88 00c0 2c23 24ff 290f f82f a127 0066     ....#,.$.)/.'.f.
   27223:	e000 2444 e084 2c23 24ff 4e0a 4d73 7e43     ..D$..#,.$.NsMC~
   27233:	0049 e000 e28a c0c0 2c23 24ff 2a3e be6b     I.......#,.$>*k.
   27243:	2a2b 003e e400 444c 40e4 1f00 4820 4444     +*>...LD.@.. HDD
   27253:	4444 2048 001f 4208 2aa2 8024 b886 ff84     DDH ...B.*$.....
   27263:	b884 7e84 4ad2 007b 4844 0888 c0a2 2c23     ...~.J{.DH....#,
   27273:	24ff 88ff feab 88ab 00ff e400 8880 e082     .$..............
   27283:	2c23 22ff 6545 c55d 655d 0044 e000 220e     #,."Ee].]eD...."
   27293:	002e 2c23 24ff af4a ea3a ac3b 006a e000     ..#,.$J.:.;.j...
   272a3:	2a0c 60a2 2c23 24ff cb22 e710 5120 008a     .*.`#,.$"... Q..
   272b3:	e000 4882 2084 ff26 0124 496e c04f 494f     ...H. &.$.nIO.OI
   272c3:	006f 000e 8024 60e2 ff2f 022c 6f59 5500     o...$..`/.,.Yo.U
   272d3:	55ff 007d 020e 4248 20a2 1f00 4820 4444     .U}...HB. .. HDD
   272e3:	4444 2048 001f 4208 2aa2 8024 aabf aaff     DDH ...B.*$.....
   272f3:	00be 2474 24ff 0024 c42a aa22 a0aa a2bf     ..t$.$$.*.".....
   27303:	a4fc d03f fe11 9415 0057 aaea 82e4 6048     ..?.....W.....H`
   27313:	5552 57f2 0058 80fe 809f 00fe c8aa 2cca     RU.WX..........,
   27323:	200e 8282 abbe eaaa abaa 82be 0082 a244     . ............D.
   27333:	e0c0 4084 b29f 92d2 009f b29f 92d2 009f     ...@............
   27343:	22e2 e2e0 e022 9f84 8fe8 7f49 088a 49fe     ."..".....I....I
   27353:	002b 8a08 022e 6048 554d 54e5 444f e018     +.....H`MU.TOD..
   27363:	202f 0038 c2c4 2ce0 200c 4a48 524a 4eea     / 8....,. HJJR.N
   27373:	da72 4a6a 0058 aa0e aaaa 00ae 1f00 4820     r.jJX......... H
   27383:	4444 4444 2048 001f 4208 2aa2 8024 e45c     DDDDH ...B.*$.\.
   27393:	454f 5e00 d352 5e52 0040 e088 2e48 4008     OE.^R.R^@...H..@
   273a3:	5505 5557 03f9 55fd 5555 0005 4422 848e     .UWU...UUU.."D..
   273b3:	2042 7117 f116 0057 487f 8f48 0088 22e2     B .q..W..HH...."
   273c3:	80e4 000e 1f00 4820 4444 4444 2048 001f     ...... HDDDDH ..
   273d3:	4208 2aa2 8024 a722 356c 3fe4 35e4 a76c     .B.*$.".l5.?.5l.
   273e3:	0022 800e 000e 00ae a238 3b62 ea2a 3b2a     ".......8.b;*.*;
   273f3:	a262 0038 aa8a aec8 8088 92ff ff92 aa09     b.8.............
   27403:	5aaf aa4f 00ab 2ee2 c000 c0e4 447f 007f     .ZO..........D..
   27413:	1f00 f515 5555 005f c0c4 4e44 4044 447f     ....UU_...DND@.D
   27423:	017f 497f 49ff 49ff 007f c0c4 0024 2004     ...I.I.I....$.. 
   27433:	447f 7f44 cb28 e710 5120 008a 4cc4 48a2     .DD.(... Q...L.H
   27443:	2084 1f00 4820 4444 4444 2048 001f 4208     . .. HDDDDH ...B
   27453:	2aa2 8024 223e 22ff 223e a46c 443f 0024     .*$.>".">"l.?D$.
   27463:	e422 8868 80e8 88ff 88ff 24ff a679 6b3a     ".h........$y.:k
   27473:	0028 8a88 4caa 20a2 e80e a8a9 0aec afe8     (....L. ........
   27483:	e8a8 000e 4c44 8e44 8088 407f 7f40 3e02     ....DLD....@@..>
   27493:	ab6a 3e2a 0002 8888 ae2a 20aa ea02 3f2a     j.*>....*.. ..*?
   274a3:	ea2a 2524 ef24 0004 ae2a 00aa 00ae 003f     *.$%$...*.....?.
   274b3:	00ff 413f 55ff ff55 0041 8888 6a8e 602e     ..?A.UU.A....j.`
   274c3:	1f00 4820 4444 4444 2048 001f 4208 2aa2     .. HDDDDH ...B.*
   274d3:	8024 007f 00ff aabf affa abfa 00ba c4c4     $...............
   274e3:	a4c2 204a df00 5550 d555 7e50 d651 0030     ..J ..PUU.P~Q.0.
   274f3:	0c68 244c e084 003f 00ff a2ff 0aeb aaea     h.L$..?.........
   27503:	00e2 c4c4 88c0 c0aa f509 5557 d155 5844     ..........WUU.DX
   27513:	c84f 000c e200 2440 2084 0978 0afe 917b     O.....@$. x...{.
   27523:	ff8a 8a91 00ff a4a2 2e80 e002 1f00 4820     .............. H
   27533:	4444 4444 2048 001f 4208 2aa2 8024 88ff     DDDDH ...B.*$...
   27543:	aaeb eeab aaab 88eb 00ff a2e2 aaa2 e0a2     ................
   27553:	80ff a9e8 baee abea 80e8 00ff a2e2 a22a     ..............*.
   27563:	e022 0a03 8aea e093 9293 0aea 0003 c4a2     "...............
   27573:	a2a0 a0c4 4949 6053 fc05 2161 8853 0009     ....IIS`..a!S...
   27583:	e84a 4a40 40e8 80fe 809f 88ff faab 88ab     J.@J.@..........
   27593:	00ff 0e2c c400 e0c2 1f00 4820 4444 4444     ..,....... HDDDD
   275a3:	2048 001f 4208 2aa2 8024 cf29 4949 4d00     H ...B.*$.).II.M
   275b3:	4be9 e949 004d 220e 4802 e022 1f00 4820     .KI.M..".H"... H
   275c3:	4444 4444 2048 001f 4208 2aa2 8024 cf29     DDDDH ...B.*$.).
   275d3:	4949 2900 f924 a027 0060 220e 260e e084     II.)$.'.`..".&..
   275e3:	1f00 4820 4444 4444 2048 001f 4208 2aa2     .. HDDDDH ...B.*
   275f3:	8024 1f00 4820 4444 4444 2048 001f 4208     $... HDDDDH ...B
   27603:	2aa2 8024 cf29 4949 6200 6253 af92 00c2     .*$.).II.bSb....
   27613:	220e 0800 002e cf29 0049 2d24 65b4 3928     ."....).I.$-.e(9
   27623:	002c 200e 0e2c 200e cf29 0049 52bf 921f     ,.. ,.. ).I..R..
   27633:	929f 00ff 200e c0e2 e0e0 1f00 4820 4444     ..... ...... HDD
   27643:	4444 2048 001f 4208 2aa2 8024 cf29 0049     DDH ...B.*$.).I.
   27653:	aa0c aaab fbaa 000c 200e a402 20c2 d631     ......... ... 1.
   27663:	5752 f952 5256 5257 0012 4e44 4440 40e4     RWR.VRWR..DN@D.@
   27673:	a899 48cf 887f a03f a0e7 00bf 4a2c 24aa     ...H..?.....,J.$
   27683:	2084 5651 92ff 2a11 8f4a 2a4a 0012 e080     . QV...*J.J*....
   27693:	2e48 4008 c222 6a4a 3f4a 4aca 426a 0042     H..@".JjJ?.JjBB.
   276a3:	aa22 aaae 20a2 c424 654f 2045 48cf 4868     ".... $.OeE .HhH
   276b3:	004f e08a e200 e022 c220 664a 2e42 46c2     O.....". .JfB..F
   276c3:	436a 0040 aa0a aaaa 00ae ce20 4a6a 2b4a     jC@....... .jJJ+
   276d3:	4aca 4e6a 0040 aaea aaaa e0aa cd23 6545     .JjN@.......#.Ee
   276e3:	2f45 45c5 4565 0041 4822 e200 6022 3f08     E/.EeEA."H.."`.?
   276f3:	04c0 5644 fc55 5755 0045 080e 8eac a004     ..DVU.UWE.......
   27703:	3f08 00c0 a1ff a5bd abb5 00b5 060e 8480     .?..............
   27713:	002e 3f08 3fc0 2b02 50eb 6b52 004b 0c0e     ...?.?.+.PRkK...
   27723:	e0a4 e0a4 3f08 10c0 4a62 a257 cc84 0026     .....?..bJW...&.
   27733:	0a0e 88ac a0ca 3f08 68c4 6a5f 5fca 4a4a     .......?.h_j._JJ
   27743:	0060 000e aeea 20aa 7f04 44d5 917f 90fe     `...... ...D....
   27753:	91ff 009f 022c 22e2 e022 2420 5a57 bfb6     ....,.."". $WZ..
   27763:	5ab2 2457 0020 ea00 aaae 00e0 1f00 4820     .ZW$ ......... H
   27773:	4444 4444 2048 001f 4208 2aa2 8024 91ff     DDDDH ...B.*$...
   27783:	ff8a 5444 ff55 5554 0046 2ee0 e248 20c4     ..DTU.TUF...H.. 
   27793:	91ff ff8a ff00 bfa4 a0a4 00ff 2ee0 aa0e     ................
   277a3:	e0aa 1f00 4820 4444 4444 2048 001f 4208     .... HDDDDH ...B
   277b3:	2aa2 8024 ff00 ff92 2a22 6baa 2a2a 0032     .*$....."*.k**2.
   277c3:	2e68 2e68 6008 ff00 ff92 ff00 a5a4 a5bf     h.h..`..........
   277d3:	00e5 2c2c 0e68 e022 1f00 4820 4444 4444     ..,,h."... HDDDD
   277e3:	2048 001f 4208 2aa2 8024 d53f 755f 001f     H ...B.*$.?._u..
   277f3:	447f 447c 007c 2422 c240 e022 6492 559f     .D|D|."$@."..d.U
   27803:	55ff 8557 85f9 00fd c202 8424 2022 1f00     .UW.......$." ..
   27813:	4820 4444 4444 2048 001f 4208 2aa2 8024      HDDDDH ...B.*$.
   27823:	6492 009f 2aeb ee2b 2a2b 00eb c002 c0e0     .d...*+.+*......
   27833:	e0c2 1f00 4820 4444 4444 2048 001f 4208     .... HDDDDH ...B
   27843:	2aa2 8024 4fe0 6040 fb0c baaa fb8a 000c     .*$..O@`........
   27853:	220e 880e 00ae 2740 bd80 fda5 fda7 bda5     ."....@'........
   27863:	0080 22e0 e848 2042 7447 d555 7455 0047     ..."H.B GtU.UtG.
   27873:	88ff 00f7 c4e0 e0c2 80e8 1f00 4820 4444     ............ HDD
   27883:	4444 2048 001f 4208 2aa2 8024 7f00 7d40     DDH ...B.*$...@}
   27893:	4555 45ff 7c55 0040 0268 44a6 20a2 7f00     UE.EU|@.h..D. ..
   278a3:	5f40 d575 555f 5e55 0041 24e2 e280 e0aa     @_u._UU^A..$....
   278b3:	507f 5555 55ff 507d 88ff 00f7 e2e0 e022     .PUU.U}P......".
   278c3:	80e8 4949 0153 cb29 6151 4953 0069 4844     ..IIS.).QaSIi.DH
   278d3:	080e 4044 4f88 4c00 5a6b 5acf 4c6b 0000     ..D@.O.LkZ.ZkL..
   278e3:	222c eaa2 20a2 3f20 27e4 2518 40df 455f     ,"...  ?.'.%.@_E
   278f3:	0048 2e68 c082 a0e2 1f00 4820 4444 4444     H.h....... HDDDD
   27903:	2048 001f 4208 2aa2 8024 001c 18ff 7440     H ...B.*$.....@t
   27913:	d554 7456 0040 0c2c ae28 8088 1f00 4820     T.Vt@.,.(..... H
   27923:	4444 4444 2048 001f 4208 2aa2 8024 106b     DDDDH ...B.*$.k.
   27933:	10e7 0269 f108 212e 0030 0c2c 4822 6008     ..i....!0.,."H.`
   27943:	1f00 4820 4444 4444 2048 001f 4208 2aa2     .. HDDDDH ...B.*
   27953:	8024 4990 4200 4ae4 5212 e44a 0042 0068     $..I.B.J.RJ.B.h.
   27963:	aaea 00ae 4990 4d00 e949 494b 49e9 004d     .....I.MI.KI.IM.
   27973:	0268 e048 2084 4990 0800 52fb f256 2b2a     h.H.. .I...RV.*+
   27983:	0058 002c aaea 00ae 4990 1000 5527 9595     X.,......I..'U..
   27993:	2755 0010 042c 446c 40e4 4990 4520 39a5     U'..,.lD.@.I E.9
   279a3:	a5a1 41bd 0020 2e2c 2e2e 202e 1f00 4820     ...A .,.... .. H
   279b3:	4444 4444 2048 001f 4208 2aa2 8024 4990     DDDDH ...B.*$..I
   279c3:	4600 5575 55d5 7555 0046 002c 2e02 0000     .FuU.UUuF.,.....
   279d3:	4990 4400 d754 7d55 55d5 0044 0468 2ea2     .I.DT.U}.UD.h...
   279e3:	2022 4990 5504 55d5 557f 55d5 0004 222c     " .I.U.U.U.U..,"
   279f3:	8424 2022 4990 a500 3369 31fd a569 0000     $." .I..i3.1i...
   27a03:	0268 44a4 00a2 9320 0240 aaff baaa ebae     h..D.. .@.......
   27a13:	0006 00e0 aaea 00ae 4990 0800 92b7 fa8a     .........I......
   27a23:	afaa 00c8 002c 88e8 00ae 4990 a800 aadb     ....,......I....
   27a33:	92d7 cbaa 0008 0268 eaaa 20ac 003c 00ff     ......h.... <...
   27a43:	909f d4bf 909f 009f e000 eae2 e0e2 003c     ..............<.
   27a53:	10ff 2338 ea2a 232a 0038 e000 aa2e 20ae     ..8#*.*#8...... 
   27a63:	5498 5594 5917 3688 3ee1 0020 ae88 2400     .T.U.Y.6.> ....$
   27a73:	2084 5568 5d69 d545 454d 516d 0068 440e     . hUi]E.MEmQh..D
   27a83:	444e 004e fd03 a9a9 17b9 e935 3529 0025     NDN.......5.)5%.
   27a93:	4422 848e 2042 ff00 ada9 acaa aca9 bdaa     "D..B ..........
   27aa3:	0001 2668 84a4 a026 a422 326f 1205 ca29     ..h&..&.".o2..).
   27ab3:	2849 0013 e000 a202 a0a2 9097 909f fa17     I(..............
   27ac3:	ffaa faaa 0002 e0c0 8ea4 2084 f927 3c23     ........... '.#<
   27ad3:	5f40 f75a 525a 005f 8e24 8e0e e082 f927     @_Z.ZR_.$.....'.
   27ae3:	7c23 b9a1 bbe1 a5a1 00bd 8624 4822 2042     #|........$."HB 
   27af3:	f927 3c23 fa02 abaa faaa 0002 8e24 2e2c     '.#<........$.,.
   27b03:	20aa 1f00 4820 4444 4444 2048 001f 4208     . .. HDDDDH ...B
   27b13:	2aa2 8024 fd22 3f20 3e02 ab6a 3e2a 0002     .*$.". ?.>j.*>..
   27b23:	8624 ae2a 20aa f927 7c23 4b2c cf7a 6b5a     $.*.. '.#|,Kz.Zk
   27b33:	004c 8624 0e0c 004c fd22 3f20 5545 7fd5     L.$...L.". ?EU..
   27b43:	55d5 0045 8624 8024 2084 6c2a 2db9 204a     .UE.$.$.. *l.-J 
   27b53:	4949 92ff 0012 24aa 0040 60c2 2724 abaa     II.....$@..`$'..
   27b63:	a6f2 e2bf 2b22 0030 800e e8ea 00ae 1f00     ...."+0.........
   27b73:	4820 4444 4444 2048 001f 4208 2aa2 8024      HDDDDH ...B.*$.
   27b83:	1f00 4820 4444 4444 2048 001f 4208 2aa2     .. HDDDDH ...B.*
   27b93:	8024 da36 6012 fa03 aaab faab 0003 8244     $.6..`........D.
   27ba3:	e2e2 e0e2 da36 6012 7d01 d754 7d54 0002     ....6..`.}T.T}..
   27bb3:	8244 2e48 2084 84bc 07fd 95a9 07e5 55e5     D.H.. .........U
   27bc3:	0029 2c8a 4822 2042 4444 447f 5515 f65e     )..,"HB DD.D.U^.
   27bd3:	555e 0015 c844 aa0e 00ae 7f44 0044 5a5e     ^U..D.....D.D.^Z
   27be3:	ff56 5a56 005e 804c 8e24 2084 7f48 4848     V.VZ^.L.$.. H.HH
   27bf3:	fa02 abaa faaa 0002 884c 2e2c 20aa 4444     ........L.,.. DD
   27c03:	447f aef9 afaa faaa 0000 8844 ae2a 20aa     .D........D.*.. 
   27c13:	1f00 4820 4444 4444 2048 001f 4208 2aa2     .. HDDDDH ...B.*
   27c23:	8024 7f44 0044 927f f408 f487 0017 8448     $.D.D.........H.
   27c33:	02e8 6048 7f44 0244 2a3e aa6b 3e2a 0002     ..H`D.D.>*k.*>..
   27c43:	824c eaaa 20aa 4444 447f 7d01 d754 7d54     L.... DD.D.}T.T}
   27c53:	0000 8a44 2e48 2084 7f44 4444 5d01 ff55     ..D.H.. D.DD.]U.
   27c63:	9d95 0001 884c 4ce0 e042 1f00 4820 4444     ....L..LB... HDD
   27c73:	4444 2048 001f 4208 2aa2 8024 ff88 0088     DDH ...B.*$.....
   27c83:	d544 7d57 d555 0045 844c 2282 20e2 7f44     D.W}U.E.L..". D.
   27c93:	0044 a0ff eaaf aaaa 00ef 864c ea80 e0aa     D.........L.....
   27ca3:	5211 f55c 5655 ea11 3a24 0021 2206 2226     .R\.UV..$:!.."&"
   27cb3:	0026 7f44 0044 6d0a a9aa e9be 000a 804c     &.D.D..m......L.
   27cc3:	ac84 6008 4f88 1500 f55f 555f 5ff5 0015     ...`.O.._._U._..
   27cd3:	222c 22e2 206e fe0a aaab adaa 01ab 5555     ,"."n ........UU
   27ce3:	00a8 ea88 a2a2 602a ff10 0010 aabb aaab     ......*`........
   27cf3:	aaab 00bb 804c 8ee8 e08a ff08 0008 95f4     ....L...........
   27d03:	97f4 94f4 00f4 804c 2e2e 20aa 4a09 f84f     ......L.... .JO.
   27d13:	4a4f 101d 50f7 005e 8224 2ce0 2004 ff22     OJ...P^.$..,. ".
   27d23:	4024 457d d76d 456d 007d 002e 6ae0 e042     $@}Em.mE}....jB.
   27d33:	ff08 0008 6a4c ce5b 6a5a 004c 804c 8a24     ....Lj[.ZjL.L.$.
   27d43:	00ac 2222 24ff 6a4c cf5a 6a5a 004c e002     .."".$LjZ.ZjL...
   27d53:	4802 c0aa ff22 0024 95ff 959f 9f95 00f5     .H..".$.........
   27d63:	062e e282 a084 5f44 e045 4a4b ff4a 5a4a     ......D_E.KJJ.JZ
   27d73:	004b 00ae 8ee8 e08a 4742 e258 4a4b ea5f     K.......BGX.KJ_.
   27d83:	4b4a 0042 000e 88e8 00ae 484f f04f 405f     JKB.......OHO._@
   27d93:	e84f 504f 005f e4e2 c2e2 e0e4 4e4a ea5a     O.OP_.......JNZ.
   27da3:	4a4e ef40 4a48 004d aaea 0eae 8044 555f     NJ@.HJM.....D._U
   27db3:	ff55 4040 f55f 5f55 0040 42e2 8006 002e     U.@@_.U_@..B....
   27dc3:	5058 f55f 5555 f555 505f 0058 ac8a 8c88     XP_.UUU._PX.....
   27dd3:	80aa 5557 f555 405d f557 5555 005d 4a4a     ..WUU.]@W.UU].JJ
   27de3:	4ae0 e04a 5a52 5af7 4053 5457 54fd 0057     .JJ.RZ.ZS@WT.TW.
   27df3:	e002 a402 a084 2621 24ff fe43 5253 fe53     ......!&.$C.SRS.
   27e03:	0042 e000 22ea a0aa 2c23 24ff fd43 f745     B...."..#,.$C.E.
   27e13:	f555 0045 e000 8e24 2084 5348 62fa 0b52     U.E...$.. HS.bR.
   27e23:	6252 53fa 0048 aa0e aaae 00ae 2c23 24ff     Rb.SH.......#,.$
   27e33:	fb02 abaa fbaa 0000 e000 2e2e 202e 2c23     ............. #,
   27e43:	24ff fd02 fda6 fda4 0000 e400 228c c060     .$..........."`.
   27e53:	ff23 0022 94f4 9df7 95f5 00f5 000e 002c     #."...........,.
   27e63:	e022 2c23 12ff c03f aabf aaff 00be e000     ".#,..?.........
   27e73:	2ae8 20c4 2c23 24ff 6a4a cf5a 6a5a 004a     .*. #,.$JjZ.ZjJ.
   27e83:	e000 2e48 4008 2c23 24ff e43f c827 517f     ..H..@#,.$?.'..Q
   27e93:	005f e400 c2a2 60a2 2c23 29ff 5f4a 2c68     _......`#,.)J_h,
   27ea3:	2cff 0002 e000 002e 00e0 aabe a3f2 aafa     .,..............
   27eb3:	10be 20ef 0030 ae2a 2caa 200c 1f00 4820     ... 0.*..,. .. H
   27ec3:	4444 4444 2048 001f 4208 2aa2 8024 9f84     DDDDH ...B.*$...
   27ed3:	8fe8 5744 fd55 5755 0044 4c0c 000e 002e     ..DWU.UWD..L....
   27ee3:	7f44 4f48 2b08 2afa 2bfa 0008 4c0c aa0e     D.HO.+.*.+...L..
   27ef3:	00ae 1f00 4820 4444 4444 2048 001f 4208     .... HDDDDH ...B
   27f03:	2aa2 8024 9f84 8fe8 7e80 7a53 9396 0016     .*$......~Sz....
   27f13:	4c0c ea00 00ae 1f00 4820 4444 4444 2048     .L...... HDDDDH 
   27f23:	001f 4208 2aa2 8024 9f84 8fe8 5964 d141     ...B.*$.....dYA.
   27f33:	5951 0064 4c0c 2e22 2022 aaba faa3 aaa2     QYd..L"." ......
   27f43:	00ba 88ff 00f7 aa08 00ae 80e8 e45c 454f     ............\.OE
   27f53:	fb00 abaa fbaa 0000 e088 2e2e 202e 1f00     ............. ..
   27f63:	4820 4444 4444 2048 001f 4208 2aa2 8024      HDDDDH ...B.*$.
   27f73:	1f00 4820 4444 4444 2048 001f 4208 2aa2     .. HDDDDH ...B.*
   27f83:	8024 7117 f116 0057 928b 8ae2 00fb 22e2     $..q..W........"
   27f93:	e2e0 e022 7312 fd15 5755 5df5 9755 0030     .."..s..UW.]U.0.
   27fa3:	442c 444c 004e 1f00 4820 4444 4444 2048     ,DLDN... HDDDDH 
   27fb3:	001f 4208 2aa2 8024 447f 007f 595f ff55     ...B.*$..D.._YU.
   27fc3:	5955 005f c0c4 8e24 2084 a9fb aba9 01f9     UY_...$.. ......
   27fd3:	7e00 4ad2 007b 4ee2 0824 c0a2 1f00 4820     .~.J{..N$..... H
   27fe3:	4444 4444 2048 001f 4208 2aa2 8024 1f00     DDDDH ...B.*$...
   27ff3:	4820 4444 4444 2048 001f 4208 2aa2 8024      HDDDDH ...B.*$.
   28003:	447f 187f 10ff bf88 a4a4 00bf c0c4 2ae0     .D.............*
   28013:	a0aa 88fb f98f 2a01 fa2b 2f2a 000a c4e2     .......*+.*/....
   28023:	0840 002e 223e 22ff fc4b 104b 10ff 001f     @...>"."K.K.....
   28033:	e422 a4e8 e082 223e 22ff 003e aaef aaaa     ".....>".">.....
   28043:	00ef e422 e8e0 e0aa 003f 00ff 013f d77d     ..".....?...?.}.
   28053:	7d55 0001 8a88 8ea4 2084 80fe fe8f f800     U}....... ......
   28063:	aa87 87aa 00f8 8424 ea20 00ae baff fbaa     ......$. .......
   28073:	100c c720 2740 0010 aee8 c002 000e cf29     .. .@'........).
   28083:	0049 5744 fd55 5755 0044 200e 440e 004e     I.DWU.UWD.. .DN.
   28093:	1f00 4820 4444 4444 2048 001f 4208 2aa2     .. HDDDDH ...B.*
   280a3:	8024 cf29 0049 e948 5d4b e949 0049 200e     $.).I.H.K]I.I.. 
   280b3:	e280 e022 cf29 0049 4f41 5fe9 4fe9 0041     ..".).I.AO._.OA.
   280c3:	200e 4822 2042 cf29 0049 90ff 9c97 94f5     . "HB ).I.......
   280d3:	0097 200e 24e0 2084 cf29 0049 c824 4875     ... .$. ).I.$.uH
   280e3:	4470 007c 200e 2a4c 4068 1f00 4820 4444     pD|.. L*h@.. HDD
   280f3:	4444 2048 001f 4208 2aa2 8024 cf29 0049     DDH ...B.*$.).I.
   28103:	7a4b ca4a 7a4a 004b 200e 22e2 e022 cf29     KzJ.JzK.. ."".).
   28113:	0049 cb08 e310 cb10 0008 200e 4822 2042     I.......... "HB 
   28123:	1f00 4820 4444 4444 2048 001f 4208 2aa2     .. HDDDDH ...B.*
   28133:	8024 5651 94ff 5413 f158 525e 0016 e080     $.QV...TX.^R....
   28143:	ae2a 20aa 5651 92ff 401f f55f 5f55 0040     *.. QV...@_.U_@.
   28153:	e000 e2e2 202e 1f00 4820 4444 4444 2048     ..... .. HDDDDH 
   28163:	001f 4208 2aa2 8024 1f00 4820 4444 4444     ...B.*$... HDDDD
   28173:	2048 001f 4208 2aa2 8024 d030 755f 1f55     H ...B.*$.0._uU.
   28183:	d535 705f 0050 2a22 224a 2022 c120 755d     5._pP."*J""  .]u
   28193:	3555 55d5 615d 0040 220a 4448 002a c622     U5.U]a@.."HD*.".
   281a3:	6a5a 3e4a 4aca 426a 0042 ea00 aaaa 00e0     ZjJ>.JjBB.......
   281b3:	c82e 6a4a 3a4a 4aca 486a 004e ac2a ca88     ..JjJ:.JjHN.*...
   281c3:	60aa c020 6a4f 3a4a 4aca 406f 0040 ea02     .` .OjJ:.Jo@@...
   281d3:	caa8 a0a6 3f08 50c0 aa92 0bca aaca 00d2     .....?.P........
   281e3:	000e 2e48 4008 567d 57fc 007c d27e 7a4a     ..H..@}V.W|.~.Jz
   281f3:	0003 8e88 8880 c0a2 3f08 01c0 d4aa 29f9     .........?.....)
   28203:	a2d4 00f9 000e 24aa 0044 7f04 4dd6 047f     .......$D....M..
   28213:	2a12 2acf 0012 0a2c c2e0 c0e0 7f02 44d3     .*.*..,........D
   28223:	047f aaff b5af 00e5 822c c8e2 60c2 924b     ........,....`K.
   28233:	9322 2248 22fe fe22 0022 2ee2 c002 6008     ".H".""."......`
   28243:	7252 ed94 00a3 a4bf a4a4 00bf a244 aac2     Rr..........D...
   28253:	a0aa 91ff ff8a fb00 abaa fbaa 0000 2ee0     ................
   28263:	2e2e 202e 92ff 00ff 2aeb ee2b 2a2b 00eb     ... .....*+.+*..
   28273:	e0e0 c0e0 e0c2 ff00 ff92 ff00 afa0 aafa     ................
   28283:	00af 2e68 0e48 e0aa d53f 755f 001f 223f     ..h.H...?._u..?"
   28293:	22ff 003f 2422 e240 e0e2 d53f 755f 101f     ."?."$@...?._u..
   282a3:	3fe0 2424 0020 2422 0e40 0088 d53f 755f     .?$$ ."$@...?._u
   282b3:	001f 623f 22a2 003f 2422 e240 e022 1f00     ..?b."?."$@."...
   282c3:	4820 4444 4444 2048 001f 4208 2aa2 8024      HDDDDH ...B.*$.
   282d3:	1f00 4820 4444 4444 2048 001f 4208 2aa2     .. HDDDDH ...B.*
   282e3:	8024 1f00 4820 4444 4444 2048 001f 4208     $... HDDDDH ...B
   282f3:	2aa2 8024 d53f 755f 001f 487f 48ff 006f     .*$.?._u...H.Ho.
   28303:	4422 8206 6048 e417 2027 083f d53f d53f     "D..H`..' ?.?.?.
   28313:	0015 a288 e2c0 20e2 6492 805f 2e29 6bda     ....... .d_.)..k
   28323:	6252 0000 c822 ae8e 80ae b1ff 918e ffa0     Rb.."...........
   28333:	fba9 faac 0001 00e8 2a8c 60aa d53f 755f     .........*.`?._u
   28343:	081f 4949 49ff 0049 02e0 22e2 20e2 1f00     ..II.II....". ..
   28353:	4820 4444 4444 2048 001f 4208 2aa2 8024      HDDDDH ...B.*$.
   28363:	4fe0 6040 5200 fa56 5452 0056 200e ae2e     .O@`.RV.RTV.. ..
   28373:	20ae 5f40 7555 dd55 7555 5d55 0043 4604     . @_UuU.UuU]C..F
   28383:	84a2 204a 7f00 5555 d57f 4855 487f 004f     ..J ..UU..UH.HO.
   28393:	2c68 6046 6068 7f12 7f48 4b4a 48c4 4972     h,F`h`..H.JK.HrI
   283a3:	0044 6868 022e 0024 7f12 4f40 da6a 5a4f     D.hh..$...@Oj.OZ
   283b3:	4f6a 0040 8868 e888 8088 547f fd57 7d57     jO@.h......TW.W}
   283c3:	4057 88ff 00f7 e4e0 e0e4 80e8 7f00 ff55     W@............U.
   283d3:	5f55 7e04 4ad2 007b 486a 8842 c0a2 547f     U_.~.J{.jHB....T
   283e3:	d57f 547f 005d 88ff 00f7 c4e2 60ca 80e8     ...T]........`..
   283f3:	7f00 5e52 d475 5e70 7555 004b 4468 aaca     ..R^u.p^UuK.hD..
   28403:	60a2 5f10 d575 5f75 ff10 9880 00e7 4e44     .`._u.u_......DN
   28413:	4e44 0088 409f be03 aaab beab 8083 00ff     DN...@..........
   28423:	4ae0 4ae0 e0e2 1f00 4820 4444 4444 2048     .J.J.... HDDDDH 
   28433:	001f 4208 2aa2 8024 0038 08ff 4131 55ff     ...B.*$.8...1A.U
   28443:	ff55 0041 082c 6a4e 602a 0038 10ff 526a     U.A.,.Nj*`8...jR
   28453:	4fe2 5262 004a 0c2c ae2a 20aa 001c 10ff     .ObRJ.,.*.. ....
   28463:	fb20 abaa fbaa 0000 0c2c 2e2e 202e 0038      .......,.... 8.
   28473:	08ff 0631 aafa aaaf 00fa 082c aa42 a0ea     ..1.......,.B...
   28483:	0038 08ff 0030 aaff aafa 00ff 082c e840     8...0.......,.@.
   28493:	e08a 0038 08ff eb30 ef2a 2a2a 00eb 082c     ..8...0.*.**..,.
   284a3:	0c4e e002 4990 8200 aafe aaaa ffaa 0082     N....I..........
   284b3:	0a2c 0aca a0ca 4990 9a00 d2ab aa9a 93ca     ,......I........
   284c3:	009a 0068 aaea 00ae 4990 5c00 5550 52fa     ..h......I.\PU.R
   284d3:	5155 001d 0a68 aeac a004 4990 8300 aabb     UQ..h......I....
   284e3:	aaaa baab 0083 0e68 6c4c e042 9120 0146     ......h.LlB. .F.
   284f3:	fb05 afa9 fba9 0005 0068 8024 60e2 4990     ........h.$..`.I
   28503:	1574 15f4 1074 21ee 003e 2c68 420e 6048     t...t..!>.h,.BH`
   28513:	4990 7f00 7dd5 fb02 f282 000b 2c68 242c     .I...}......h,,$
   28523:	208c 4990 7444 57d5 4175 90ff 00ef 8a68     . .IDt.WuA....h.
   28533:	00e0 00e8 4990 b12a 3160 1e2a 3ee1 0020     .....I*.`1*..> .
   28543:	0668 2484 2084 4990 d200 caaa ea8e aaaa     h..$. .I........
   28553:	00c2 0068 aaea 00ae 4990 eb00 3a2a 2aef     ..h......I..*:.*
   28563:	eb2a 0008 0a68 eaaa 20ac 003c 21ff 555a     *...h.... <..!ZU
   28573:	52fc 5b36 0096 e000 aa0e 00ae 007e 00ff     .R6[........~...
   28583:	23da 57d0 57fc 0050 e000 2a2c 20aa 003c     .#.W.WP...,*. <.
   28593:	20ff 621b b044 c282 0033 e000 a2ea e0aa     . .bD...3.......
   285a3:	547f 7dd6 0002 fc05 aaa8 00fe a2aa eaaa     .T.}............
   285b3:	20aa 1f00 4820 4444 4444 2048 001f 4208     . .. HDDDDH ...B
   285c3:	2aa2 8024 2722 35ea f900 abae fbaa 0003     .*$."'.5........
   285d3:	000e a484 e0a2 9097 109f aabf a3f2 aafa     ................
   285e3:	00be e080 ae2a 20aa 9097 909f 0017 aafa     ....*.. ........
   285f3:	aaab 00fa e0c0 c282 a0ea a0af a1bf 6b4c     ..............Lk
   28603:	cf5a 6b5a 004c e0c0 0e0c 004c a0af a0bf     Z.ZkL.....L.....
   28613:	09af ad6a cfb8 000a e0c0 ae84 6008 5f90     ..j..........`._
   28623:	7e00 d454 407e 42dc 005e 402e c8aa c0aa     .~T.~@.B^..@....
   28633:	5411 ff54 7c54 7e11 4ad2 007b 8ee4 e884     .TT.T|.~.J{.....
   28643:	c0a2 1f00 4820 4444 4444 2048 001f 4208     .... HDDDDH ...B
   28653:	2aa2 8024 aafe bca8 0cea f422 7448 0042     .*$.......".HtB.
   28663:	0e2c 622a 6068 f927 3f20 ff00 be80 beeb     ,.*bh`'. ?......
   28673:	0080 8424 c268 c0e0 f927 3c23 2e09 cb3a     ..$.h...'.#<..:.
   28683:	5272 0060 8624 ae8e 80ae e994 81b5 3de5     rR`.$..........=
   28693:	fe08 9611 0050 2e2e 462c e084 d4aa 12fa     ....P...,F......
   286a3:	d5ad 20fa 20ff 003f aa0a a444 e082 f5a9     ... . ?...D.....
   286b3:	e507 2955 fe08 9611 0050 8424 2420 e084     ..U)....P.$. $..
   286c3:	1f00 4820 4444 4444 2048 001f 4208 2aa2     .. HDDDDH ...B.*
   286d3:	8024 1f00 4820 4444 4444 2048 001f 4208     $... HDDDDH ...B
   286e3:	2aa2 8024 da36 0012 7c50 d755 7d54 0052     .*$.6...P|U.T}R.
   286f3:	8844 e248 2084 2a2a 4aff 2b08 2afa 2bfa     D.H.. **.J.+.*.+
   28703:	0008 e848 aa0e 00ae 7f44 0044 5645 f55d     ..H.....D.D.EV].
   28713:	565d 0045 804c 4e46 4046 1f00 4820 4444     ]VE.L.FNF@.. HDD
   28723:	4444 2048 001f 4208 2aa2 8024 4444 447f     DDH ...B.*$.DD.D
   28733:	eb9a 829a eb9a 009a 8844 aa0e 00ae 7f44     ........D.....D.
   28743:	4444 e00f 555f 9f95 0030 884c c4c6 404e     DD.._U..0.L...N@
   28753:	7f44 1844 7754 755d b595 00d8 844c a482     D.D.Tw]u....L...
   28763:	204a 8888 88ff 5369 c945 5345 0069 8844     J ....iSE.ESi.D.
   28773:	220e 002e 5745 57fd 57fd 2945 ff15 0002     ."..EW.W.WE)....
   28783:	4c4e 404e 000e ff22 0024 5b54 d074 5b72     NLN@..".$.T[t.r[
   28793:	0054 002e a20e 00ae ff08 0008 be89 fa8a     T...............
   287a3:	aaaa 0088 824c 8a8a e08a ff08 4108 55ff     ....L........A.U
   287b3:	49ff 08ff 000f 8e4c e46a e082 ff08 0808     .I....L.j.......
   287c3:	2e22 2ffa 2efa 0022 884c ae2a 20aa ff08     "../..".L.*.. ..
   287d3:	0008 f55f 105f 2ae9 002c 804c 4c4e 6022     .._._..*,.L.NL"`
   287e3:	ff22 0024 aaba faa3 aaa2 00ba 002e 8a08     ".$.............
   287f3:	00ac 8a8a 96f4 bb4a 96ea 12e4 0032 ea2a     ......J.....2.*.
   28803:	aaae 20ea 1f00 4820 4444 4444 2048 001f     ... .. HDDDDH ..
   28813:	4208 2aa2 8024 ff10 4410 45a9 f3a9 fd85     .B.*$....D.E....
   28823:	0021 804c 0e2c 200c ff22 bf24 ffa9 ee20     !.L.,.. ".$... .
   28833:	3e21 0020 4c2e 064e 00c2 1f00 4820 4444     !> ..LN..... HDD
   28843:	4444 2048 001f 4208 2aa2 8024 f547 f55f     DDH ...B.*$.G._.
   28853:	2947 ff49 4909 0021 e444 0e40 0000 f547     G)I..I!.D.@...G.
   28863:	f55f 0047 253f 25fc 0036 e444 a446 2084     _.G.?%.%6.D.F.. 
   28873:	5557 55ff 4057 5c42 48eb 004e e424 2420     WU.UW@B\.HN.$. $
   28883:	2084 5741 f555 555f f55f 5755 0041 4022     . AWU._U_.UWA."@
   28893:	002e 2042 4b45 40f4 4e42 5f42 4aea 0042     ..B EK.@BNB_.JB.
   288a3:	020e 2e4c 20aa 5449 54e5 4049 5b44 4fe8     ..L.. IT.TI@D[.O
   288b3:	0048 2a2a 2444 2084 4046 e24f 4144 f55f     H.**D$. F@O.DA_.
   288c3:	5f55 0041 8424 4424 40e4 fe23 0023 8aff     U_A.$.$D.@#.#...
   288d3:	00fa 9497 00f7 e0e2 80e8 a0a4 2c23 2aff     ............#,.*
   288e3:	5a57 56fe 533a 0016 e000 aaea 00ae ff26     WZ.V:S........&.
   288f3:	0024 545e fe54 d554 005e 000e 888c 80ae     $.^TT.T.^.......
   28903:	2c23 22ff abb9 abfa abfa 00b8 e000 482a     #,."..........*H
   28913:	204a 1f00 4820 4444 4444 2048 001f 4208     J .. HDDDDH ...B
   28923:	2aa2 8024 2c23 24ff 7d23 55d5 54fd 0054     .*$.#,.$#}.U.TT.
   28933:	e000 8024 c0aa 2c23 24ff a8ff a5b7 b5bd     ..$...#,.$......
   28943:	00ef e400 e480 e044 4464 547c ff54 5454     ......D.dD|TT.TT
   28953:	447c 0066 c222 aa2e 20a2 1f00 4820 4444     |Df.".... .. HDD
   28963:	4444 2048 001f 4208 2aa2 8024 a2bf a4fc     DDH ...B.*$.....
   28973:	00bf 555f 55ff 00df aaea e0e0 e0e2 a2bf     .._U.U..........
   28983:	a4fc 22bf 80bf a2bf 00bf aaea e0e0 e0e0     ..."............
   28993:	a2bf a2fc 00bf 92f2 9493 00f4 aaea aae8     ................
   289a3:	a0ea 525f 527c 105f ca2a 2a4f 0012 aaea     .._R|R_.*.O*....
   289b3:	82e4 40e8 9f84 8fe8 fe54 4554 4278 007e     ...@....T.TExB~.
   289c3:	4c0c c8aa a0ca 1f00 4820 4444 4444 2048     .L...... HDDDDH 
   289d3:	001f 4208 2aa2 8024 1f00 4820 4444 4444     ...B.*$... HDDDD
   289e3:	2048 001f 4208 2aa2 8024 7f44 4f48 abfa     H ...B.*$.D.HO..
   289f3:	aafa faab 0002 4c0c 442e a084 1f00 4820     .......L.D.... H
   28a03:	4444 4444 2048 001f 4208 2aa2 8024 9f84     DDDDH ...B.*$...
   28a13:	8fe8 4f60 ea6a 4f6a 0060 4c0c aa2a 20aa     ..`Oj.jO`..L*.. 
   28a23:	9f84 88e8 aaff aaab baab 0083 440c e8e8     .............D..
   28a33:	e0ea ff00 bf92 af92 00b0 007f 00ff 2c68     ..............h,
   28a43:	202c e0a2 1f00 4820 4444 4444 2048 001f     , .... HDDDDH ..
   28a53:	4208 2aa2 8024 1f00 4820 4444 4444 2048     .B.*$... HDDDDH 
   28a63:	001f 4208 2aa2 8024 aafa aaff 21fa d625     ...B.*$......!%.
   28a73:	524a 0063 e848 2a42 0048 497f 7f49 9555     JRc.H.B*H..II.U.
   28a83:	ff05 5505 007c 2ee2 640a 204a fa01 aaaf     ...U|....dJ ....
   28a93:	fbaa 7e00 4ad2 007b 4ccc 082e c0a2 1f00     ...~.J{..L......
   28aa3:	4820 4444 4444 2048 001f 4208 2aa2 8024      HDDDDH ...B.*$.
   28ab3:	90f7 f29f b900 a6a4 e4a5 000d c4e2 e280     ................
   28ac3:	8026 223e 22ff 003e aafa aaff 00fa e422     &.>".">.......".
   28ad3:	48e2 40e8 203f 20ff aabf aafa aafa 00b8     .H.@? . ........
   28ae3:	e880 aeac a08c 003f 00ff d0af 06fb d2aa     ......?.........
   28af3:	00fb c4c4 eac0 e0aa 80ff aaab 8ecb aacb     ................
   28b03:	80ab 00ff e2e2 e2ea e0e2 1f00 4820 4444     ............ HDD
   28b13:	4444 2048 001f 4208 2aa2 8024 cf29 0049     DDH ...B.*$.).I.
   28b23:	5f50 7f54 9f94 0010 200e aeaa a0aa cf29     P_T...... ....).
   28b33:	0049 553d ff05 5505 007c 200e 442a 204a     I.=U...U|.. *DJ 
   28b43:	cf29 0049 4a7e cb4a 4a4a 007e 200e aeaa     ).I.~JJ.JJ~.. ..
   28b53:	a0aa 1f00 4820 4444 4444 2048 001f 4208     .... HDDDDH ...B
   28b63:	2aa2 8024 cf29 0049 7444 7d57 b595 00c5     .*$.).I.DtW}....
   28b73:	200e 2a2c a044 cf29 0049 5c40 d655 5d55     . ,*D.).I.@\U.U]
   28b83:	0042 200e e448 2084 cf29 0049 b927 2066     B.. H.. ).I.'.f 
   28b93:	b967 0026 200e 606a 606a cf29 0049 545f     g.&.. j`j`).I._T
   28ba3:	54fd 55ff 0077 200e 84a4 00a2 cf29 0049     .T.Uw.. ....).I.
   28bb3:	a0ff eaaf aaaa 00ef 200e eae0 e0aa 5a57     ......... ....WZ
   28bc3:	9afe 0713 3f00 2c42 0001 aaea 8ee4 6022     .....?B,......"`
   28bd3:	5854 9a7f 0396 0a76 28f3 0044 aa22 a8aa     TX....v..(D."...
   28be3:	c0aa c424 456f 2940 4acd 4d6a 0041 e08a     ..$.oE@).JjMA...
   28bf3:	4e04 0044 c524 556f 2044 45c4 556f 0044     .ND.$.oUD .EoUD.
   28c03:	e0c0 c0c0 c0e0 c422 526a c42a 4062 003f     ......".jR*.b@?.
   28c13:	00ff aa0e 00ae e082 3f08 20c0 807f 5555     .........?. ..UU
   28c23:	55ff 0055 020e 6040 6060 3f08 5ec0 d352     .UU...@```.?.^R.
   28c33:	105e 10ff 00d0 040e a4ae e0c2 3f08 20c0     ^............?. 
   28c43:	2acf aabe cabe 002f 080e a88c 80ae 3f08     .*..../........?
   28c53:	70c0 efaa f21a eaaf 0018 0a0e 88ac a0ca     .p..............
   28c63:	7915 55d1 137d db21 fb95 0021 4844 080e     .y.U}.!...!.DH..
   28c73:	4044 1f00 4820 4444 4444 2048 001f 4208     D@.. HDDDDH ...B
   28c83:	2aa2 8024 d53f 755f 201f 2525 25fd 0025     .*$.?._u. %%.%%.
   28c93:	2422 e240 e022 d53f 755f 901f b09f 90df     "$@.".?._u......
   28ca3:	009f 4422 c0e0 e0c2 1f00 4820 4444 4444     .."D...... HDDDD
   28cb3:	2048 001f 4208 2aa2 8024 d53f 157f 80ff     H ...B.*$.?.....
   28cc3:	a8af 80af 00ff 4422 88e0 e082 d53f 755f     ......"D....?._u
   28cd3:	809f 00ff 007f 00ff 4622 2084 e082 d53f     ........"F. ..?.
   28ce3:	755f 001f 497f 8949 0089 4422 0e2c e022     _u...II..."D,.".
   28cf3:	d53f 755f 121f cb2a 2a4a 0012 4422 a206     ?._u..*.J*.."D..
   28d03:	604c 1f00 4820 4444 4444 2048 001f 4208     L`.. HDDDDH ...B
   28d13:	2aa2 8024 1f00 4820 4444 4444 2048 001f     .*$... HDDDDH ..
   28d23:	4208 2aa2 8024 1f00 4820 4444 4444 2048     .B.*$... HDDDDH 
   28d33:	001f 4208 2aa2 8024 6f30 ada5 a5b5 2df5     ...B.*$.0o.....-
   28d43:	2f25 0030 2a82 4444 20a2 44a2 00bf 5f50     %/0..*DD. .D..P_
   28d53:	d575 5f75 0050 c042 c022 60e2 b1ff 918e     u.u_P.B."..`....
   28d63:	ffa0 9f4a 4f6a 0078 00e8 aa8c 60aa 1f00     ..J.jOx......`..
   28d73:	4820 4444 4444 2048 001f 4208 2aa2 8024      HDDDDH ...B.*$.
   28d83:	3340 ff20 ff2a 7f20 9f50 0090 ace0 ac8c     @3 .*. .P.......
   28d93:	000e 7f00 5340 d47c 5455 537c 0040 0a68     ....@S|.UT|S@.h.
   28da3:	eaaa 00aa 7f00 7d40 d557 557d 7d57 0040     ......@}W.}UW}@.
   28db3:	46e0 44c4 40c6 7f12 5545 d65d 567d 555d     .F.D.@..EU].}V]U
   28dc3:	0045 2268 eaaa 00a2 7f12 7551 df55 7555     E.h"......QuU.Uu
   28dd3:	5155 0041 246a 2ea2 2022 7f12 5f40 5d55     UQA.j$.." ..@_U]
   28de3:	55c0 5555 005d 0e2c 0244 a0a4 2a09 6bad     .UUU].,.D....*.k
   28df3:	3a2e 6e2b 2baa 0008 2e00 eaaa 20ae eb78     .:+n.+....... x.
   28e03:	7a5a eb5a 0078 88ff 00f7 aa0e 00ae 80e8     ZzZ.x...........
   28e13:	003c 08ff 4710 5575 74d5 0047 0c2c 442e     <....GuU.tG.,..D
   28e23:	e0c2 4990 8800 8eb9 aafa 8aaa 0008 2468     ...I..........h$
   28e33:	acac 00ae 4b90 aa01 5a4e 10ab 21ee 003e     .....K..NZ...!>.
   28e43:	0868 88ae 6068 4990 5800 56f2 525b f154     h...h`.I.X.V[RT.
   28e53:	0058 022c e8ca a0c2 01d8 4258 47fa 425a     X.,.......XB.GZB
   28e63:	43fa 005a 022c 44a4 20a2 8910 0240 affa     .CZ.,..D. ..@...
   28e73:	aafa faaf 0002 0a68 88ac a0ca 8910 e440     ......h.......@.
   28e83:	3a2f 2fea ea3a 0008 0068 aeea 20aa 4990     /:./:...h.... .I
   28e93:	ee00 2a28 2afa 282a 00ee 0a68 e8ca 80ca     ..(*.**(..h.....
   28ea3:	1f00 4820 4444 4444 2048 001f 4208 2aa2     .. HDDDDH ...B.*
   28eb3:	8024 4990 2510 69d5 e555 5955 0065 0268     $..I.%.iU.UYe.h.
   28ec3:	2e40 2004 4990 ff00 ef90 d528 6d54 0048     @.. .I....(.TmH.
   28ed3:	0e68 6a80 a0ae 4990 aa00 a4d2 a9f8 a2d5     h..j...I........
   28ee3:	00fa 0068 a2aa 0044 003c 00ff 4e42 5ffa     ..h...D.<...BN._
   28ef3:	4efa 0042 e000 ae2a 20aa 5764 6a5a e457     .NB...*.. dWZjW.
   28f03:	6e55 5558 0076 8a0e 42e8 2084 5565 6c56     UnXUv....B. eUVl
   28f13:	df44 6c44 5556 0065 ac0a acaa 00aa 1f00     D.DlVUe.........
   28f23:	4820 4444 4444 2048 001f 4208 2aa2 8024      HDDDDH ...B.*$.
   28f33:	1f00 4820 4444 4444 2048 001f 4208 2aa2     .. HDDDDH ...B.*
   28f43:	8024 2422 32ef a517 91d7 2156 0016 e000     $."$.2....V!....
   28f53:	e8e4 6068 a0af a0bf 00af 20cf aa7f 007f     ..h`....... ....
   28f63:	e0c0 ac82 a08c a0af a0bf 002f 69a9 693f     ........../..i?i
   28f73:	00a9 e0c0 04a4 2024 90ff 00ef 5d7f 5fd6     ......$ .....]._
   28f83:	556e 007f 82e4 c8aa a0ca f927 3c23 ff00     nU........'.#<..
   28f93:	eb91 abbd 0081 8e24 e204 80a6 fd22 3f20     ......$.....". ?
   28fa3:	3f00 f526 a9af 001a 8624 8a2c 80e8 f927     .?&.....$.,...'.
   28fb3:	3c23 5f10 d575 5f75 0010 8e24 4e44 4044     #<._u.u_..$.DND@
   28fc3:	f926 3c22 d1a9 04fa d2ad 00f9 4268 aa00     &."<........hB..
   28fd3:	0024 1f00 4820 4444 4444 2048 001f 4208     $... HDDDDH ...B
   28fe3:	2aa2 8024 1f00 4820 4444 4444 2048 001f     .*$... HDDDDH ..
   28ff3:	4208 2aa2 8024 aea9 abfa 55a8 5fc4 5444     .B.*$......U._DT
   29003:	007f 4a2a 2a22 a02a 7f44 4444 d4aa 12fa     ..*J"**.D.DD....
   29013:	d5ad 00fa 884c aa0a 8044 5b14 fe52 5a52     ....L...D..[R.RZ
   29023:	d627 564a 0062 2a68 e8c2 204a 5c53 8811     '.JVb.h*..J S\..
   29033:	124f ff55 7d54 0010 2a88 6eca 20a6 ff10     O.U.T}...*.n. ..
   29043:	5111 6ac8 4fda 6ada 00c8 0288 c8aa a0ca     .Q.j.O.j........
   29053:	ff08 0008 7653 7f5a b69a 0093 804c aeea     ....SvZ.....L...
   29063:	e0aa 1010 11ff d745 7f55 d755 0045 0088     ......E.U.U.E...
   29073:	220e 002e 7f50 55d5 55ff 0055 007f 00ff     ."..P..U.UU.....
   29083:	a422 204a e0a2 5f40 fd44 5f56 ed56 5f54     ".J ..@_D.V_V.T_
   29093:	0040 aa8a cac8 80aa 5244 e048 5f41 f555     @.......DRH.A_U.
   290a3:	5f55 0041 8224 e2e2 e0e2 5557 40fd 1a4b     U_A.$.....WU.@K.
   290b3:	4f6a 52ea 005b c022 aeaa a0ac 5640 5752     jO.R[.".....@VRW
   290c3:	4565 f755 4642 0040 8eac 4e44 808e 2c22     eEU.BF@...DN..",
   290d3:	24ff a6bf a2fa aafa 00bf 0424 caa8 a08c     .$........$.....
   290e3:	ba83 aaab baab 7e83 4ad2 007b 4ee0 e842     .......~.J{..NB.
   290f3:	c0a2 7f44 4f48 5504 957f 957f 001f 4c0c     ..D.HO.U.......L
   29103:	e024 20e4 9f84 8fe8 941a a1da d4ba 001a     $.. ............
   29113:	4c0c ceaa a0ca fc83 9f92 4e42 5ffa 4efa     .L........BN._.N
   29123:	0042 c002 ae2a 20aa 6c4a fe58 6d58 2c4a     B...*.. JlX.XmJ,
   29133:	acf0 0062 0c2c a222 6068 8262 aaaa ea8a     ..b.,.".h`b.....
   29143:	aa8a 82aa 0062 ea00 aaaa 00e0 487f 007f     ....b........H..
   29153:	5d45 5ff5 5df5 0045 8288 4822 2042 487f     E]._.]E..."HB .H
   29163:	7f48 5f50 d575 5f75 0050 8888 4e44 4044     H.P_u.u_P...DND@
   29173:	447f 207f 28ff d02f 515f 0059 e4c4 e482     .D. .(/._QY.....
   29183:	20c2 90f7 f29f 5504 e555 5754 0004 e4e2     . .....UU.TW....
   29193:	4c0c 002e 90f7 f29f 7544 c54d 754d 0044     .L......DuM.MuD.
   291a3:	e4e2 220e 002e 1f00 4820 4444 4444 2048     ...".... HDDDDH 
   291b3:	001f 4208 2aa2 8024 223e 22ff 82ff affa     ...B.*$.>"."....
   291c3:	fbaa 0082 e422 26e2 20a6 223e 22ff 525e     ...."..&. >"."^R
   291d3:	52ff 045e 00ff e422 e868 e042 223e 22ff     .R^...".h.B.>"."
   291e3:	d537 941e 35df 0017 e422 aaea e0aa 203f     7....5..".....? 
   291f3:	3f20 6f48 cf5a 6f5a 0048 8a88 aeaa a0aa      ?HoZ.ZoH.......
   29203:	407f 007f d55f 557d d57d 005f c0c4 4446     .@.._.}U}._...FD
   29213:	406e 407f 007f aaf0 1aef aff2 00ea c0c4     n@.@............
   29223:	c8aa a08c bde0 e6b5 a1ac f0be bdb4 00e0     ................
   29233:	aa0e aaae 00ae df08 4a6a df4a 4a6a ca4a     ........jJJ.jJJ.
   29243:	0000 8ce8 4c4c e08a 003f 00ff 745f 7e5b     ....LL..?..._t[~
   29253:	b69b 0093 c4c4 eac0 e0ea 1f00 4820 4444     ............ HDD
   29263:	4444 2048 001f 4208 2aa2 8024 003f 00ff     DDH ...B.*$.?...
   29273:	ca2f aa3e cabe 002f 8888 a88c 80ae 003f     /.>.../.......?.
   29283:	00ff 5a3f 1e97 db96 003e 8888 ea80 00ae     ..?Z....>.......
   29293:	cf29 0049 5f41 55f5 5ff5 0041 200e 4822     ).I.A_.U._A.. "H
   292a3:	2042 cf29 0949 7e40 fe54 7e55 00c0 220e     B ).I.@~T.U~..."
   292b3:	8a0a 80e8 cf29 0049 6fb0 e929 6f29 00b0     ....).I..o).)o..
   292c3:	200e 8024 60e2 cf29 0049 4e22 abaa 4eaa     . $..`).I."N...N
   292d3:	0022 200e ae88 8088 1f00 4820 4444 4444     ".. ...... HDDDD
   292e3:	2048 001f 4208 2aa2 8024 cf29 0049 5262     H ...B.*$.).I.bR
   292f3:	c864 5264 0062 200e aaea e0aa 5651 927f     d.dRb.. ....QV..
   29303:	e007 555f 9f95 0030 e080 c4c6 404e 3f08     .._U..0.....N@.?
   29313:	08c0 aaee aaeb aaeb 00ee 040e e248 a084     ............H...
   29323:	643f 3fa4 7d01 d755 7d55 0001 4cc4 4e48     ?d.?.}U.U}...LHN
   29333:	4048 3e03 2a2a aa6b 2a2b 3e2a 0003 aaea     H@.>**k.+**>....
   29343:	eae0 e0aa 1f00 4820 4444 4444 2048 001f     ...... HDDDDH ..
   29353:	4208 2aa2 8024 7f02 44d3 027f 527e 52d3     .B.*$....D..~R.R
   29363:	007e 822c aae2 a0ea 7f02 44d3 047f 6aaf     ~.,........D...j
   29373:	6a3a 00af 822c eae0 e0aa 9a4b 8b2b 5b92     :j..,.....K.+..[
   29383:	7e00 4ad2 007b e44a 08ae c0a2 1f00 4820     .~.J{.J....... H
   29393:	4444 4444 2048 001f 4208 2aa2 8024 d53f     DDDDH ...B.*$.?.
   293a3:	755f 201f d565 554b 0065 2422 4242 20e4     _u. e.KUe."$BB. 
   293b3:	d53f 755f a81f fdab f9a9 0021 4422 0e08     ?._u......!."D..
   293c3:	e022 d53f 755f 8f1f bfaa 8aca 000f 2422     ".?._u........"$
   293d3:	8e4e e08a 53a9 01bd 5553 55ff 3f55 0051     N....S..SU.UU?Q.
   293e3:	4422 040e 2042 d53f 755f 051f 6555 67c4     "D..B ?._u..Ue.g
   293f3:	0054 02e0 4cec 002e 527b 728b 7b4a 7e00     T....L..{R.rJ{.~
   29403:	4ad2 007b eaea 08ae c0a2 4fa8 e515 4f15     .J{........O...O
   29413:	7ea8 4ad2 007b 440e 084e c0a2 0b68 49ff     .~.J{..DN...h..I
   29423:	7f20 5d92 7557 0011 e0c0 248e 2084 0b68      ..]Wu.....$. h.
   29433:	49ff b804 fa8f afaa 00c8 e0c0 e880 00ae     .I..............
   29443:	8bfe baee 8aaf f742 f6aa 0043 4aa2 a2e0     ......B...C..J..
   29453:	e04a 69a5 6921 00a5 d27e 7a4a 0003 c4e2     J..i!i..~.Jz....
   29463:	88c4 c0a2 7faa 7f2a 2faa 7e02 4ad2 007b     ......*../.~.J{.
   29473:	8eae 08ca c0a2 003c 10ff aab8 aafa aafa     ......<.........
   29483:	00b8 082c 8eac a08c 8910 0040 faab 03aa     ..,.......@.....
   29493:	fbaa 00a8 0068 aaca 60aa 4990 f750 f455     ....h....`.IP.U.
   294a3:	1057 21ee 003e 2c68 e04a 6068 1f00 4820     W..!>.h,J.h`.. H
   294b3:	4444 4444 2048 001f 4208 2aa2 8024 8910     DDDDH ...B.*$...
   294c3:	2a60 2bea 08ea 21f6 003e 0a68 a2ae e0c0     `*.+...!>.h.....
   294d3:	4990 2200 aa7f eabe 3faa 0002 0068 aaea     .I.".....?..h...
   294e3:	00ae 9622 024a 7b56 de52 5e52 0052 aa2a     ..".J.V{R.R^R.*.
   294f3:	aaae 20ea 9120 0046 db48 4a7a db7a 0048     ...  .F.H.zJz.H.
   29503:	0068 aa0e 00ae 9120 0046 b729 fb22 b321     h..... .F.).".!.
   29513:	0029 0868 8c24 404e 8910 2740 b6ad bfec     ).h.$.N@..@'....
   29523:	25e5 0037 0e68 aa0e e0e2 003c 00ff 4f54     .%7.h.....<...TO
   29533:	ea5a 4f5a 0054 e000 ae2c 208c 003c 00ff     Z.ZOT...,.. <...
   29543:	93a8 caaa 532a 0028 e000 ea2a 20ea 1f00     ....*S(...*.. ..
   29553:	4820 4444 4444 2048 001f 4208 2aa2 8024      HDDDDH ...B.*$.
   29563:	5567 55df 6057 fe08 9611 0050 c4e4 24e2     gU.UW`....P....$
   29573:	e084 2722 35ea 7e01 fd51 7d57 0051 000e     .."'.5.~Q.W}Q...
   29583:	e0e0 e0e2 a0af a0bf 01af afea aae9 00ef     ................
   29593:	e0c0 ae84 e04a 1f00 4820 4444 4444 2048     ....J... HDDDDH 
   295a3:	001f 4208 2aa2 8024 fd22 3f20 5f28 d575     ...B.*$.". ?(_u.
   295b3:	5f75 0028 8624 2e24 2004 4f88 2700 b6ad     u_(.$.$.. .O.'..
   295c3:	bfec 37e5 0000 2e2c ae2e 202e 1f00 4820     ...7..,.... .. H
   295d3:	4444 4444 2048 001f 4208 2aa2 8024 ff88     DDDDH ...B.*$...
   295e3:	4488 4afb 50ef 23fc 003c 402e e08a e0e0     .D.J.P.#<..@....
   295f3:	7f44 0044 234a 1ad5 d297 0025 402e 262c     D.D.J#....%..@,&
   29603:	20a2 7f44 0044 b348 caaa 532a 00a8 824c     . D.D.H...*S..L.
   29613:	ea2a 20ea 4444 5d77 d555 5d55 4477 0044     *.. DDw]U.U]wDD.
   29623:	0e24 a222 4068 ff22 0024 afe8 a9e9 afe9     $.".h@".$.......
   29633:	00e8 042e 208e a0a4 fd84 fda9 4a56 0174     ..... ......VJt.
   29643:	88ff 00f7 0ea4 a084 80e8 5244 e048 5744     ..........DRH.DW
   29653:	fd55 5755 0044 c2aa ae26 204a f547 f55f     U.UWD...&.J G._.
   29663:	1e47 df32 7252 001e e444 4842 60e2 f547     G.2.Rr..D.BH.`G.
   29673:	f557 0447 0203 12fe 0013 c4e4 e2e2 e022     W.G...........".
   29683:	1f00 4820 4444 4444 2048 001f 4208 2aa2     .. HDDDDH ...B.*
   29693:	8024 525e f253 495e f45a 5a54 0041 eae2     $.^RS.^IZ.TZA...
   296a3:	eaa0 00ae 5748 ff55 5745 fb54 5751 005d     ....HWU.EWT.QW].
   296b3:	4c2c 844e 404e 5a55 54f2 7752 525a 5af7     ,LN.N@UZ.TRwZR.Z
   296c3:	0052 c8aa aa0e a0ea 2c23 24ff 7d43 ff55     R.......#,.$C}U.
   296d3:	7e55 0041 e200 2a4e 4068 2c23 24ff 5f6a     U~A...N*h@#,.$j_
   296e3:	ca6a 5f6a 0068 e000 ae2c 208c 2c23 24ff     j.j_h...,.. #,.$
   296f3:	6f48 cf5a 6f5a 0048 e000 aeaa a0aa a2bf     HoZ.ZoH.........
   29703:	a4fc 08bf 8ab7 aafa 00ef aaea c8e2 e08a     ................
   29713:	7b05 5d55 5355 f545 d549 006c 442c 444c     .{U]USE.I.l.,DLD
   29723:	004e 744f 4147 55ff 51ff 10ff 001f e6c4     N.OtGA.U.Q......
   29733:	e2a2 e0c2 1f00 4820 4444 4444 2048 001f     ...... HDDDDH ..
   29743:	4208 2aa2 8024 9f84 8fe8 d520 5569 9565     .B.*$..... .iUe.
   29753:	0029 4c0c 4002 20e4 a492 87d9 7b55 f252     )..L.@. ....U{R.
   29763:	7b52 0050 2c4a 482a 204a 1f00 4820 4444     R{P.J,*HJ .. HDD
   29773:	4444 2048 001f 4208 2aa2 8024 1f00 4820     DDH ...B.*$... H
   29783:	4444 4444 2048 001f 4208 2aa2 8024 1f00     DDDDH ...B.*$...
   29793:	4820 4444 4444 2048 001f 4208 2aa2 8024      HDDDDH ...B.*$.
   297a3:	141f 54f3 225f 6baa 6a3e 00aa 2aea aae4     ...T_".k>j...*..
   297b3:	a0ea 243f aafc 3faa fc24 aaaa 0036 c0e2     ..?$...?$...6...
   297c3:	c0e2 60e2 243f 7f24 5e50 f455 5e55 0050     ...`?$$.P^U.U^P.
   297d3:	4cc4 aa8e 80ae fa03 abaa 06fa abfa feaa     .L..............
   297e3:	0003 aa46 aaae 00aa 447f 007f 6f48 cf5a     ..F......D..HoZ.
   297f3:	6f5a 0048 c2c4 aeaa a0aa 1f00 4820 4444     ZoH......... HDD
   29803:	4444 2048 001f 4208 2aa2 8024 90f7 f29f     DDH ...B.*$.....
   29813:	5348 fe62 5362 0048 c4e2 aa2e 20ae 88f9     HSb.bSH...... ..
   29823:	fa8f 0002 aafa aaab 00fa c4e2 c242 a0ea     ............B...
   29833:	1f00 4820 4444 4444 2048 001f 4208 2aa2     .. HDDDDH ...B.*
   29843:	8024 223e 22ff 547f ff55 7d55 0050 e422     $.>".".TU.U}P.".
   29853:	e280 002e 487f 487f aa7f f8d4 d5a9 00fa     .....H.H........
   29863:	8888 aa80 4024 1f00 4820 4444 4444 2048     ....$@.. HDDDDH 
   29873:	001f 4208 2aa2 8024 203f 20ff 557f 55f6     ...B.*$.? . .U.U
   29883:	54f7 0059 e880 acc6 200c 1f00 4820 4444     .TY...... .. HDD
   29893:	4444 2048 001f 4208 2aa2 8024 013f 01ff     DDH ...B.*$.?...
   298a3:	643f a2ba 2afa 0038 0600 ea88 80ae 1f00     ?d...*8.........
   298b3:	4820 4444 4444 2048 001f 4208 2aa2 8024      HDDDDH ...B.*$.
   298c3:	1f00 4820 4444 4444 2048 001f 4208 2aa2     .. HDDDDH ...B.*
   298d3:	8024 1f00 4820 4444 4444 2048 001f 4208     $... HDDDDH ...B
   298e3:	2aa2 8024 5a57 9a7e 0097 5458 56f5 0058     .*$.WZ~...XT.VX.
   298f3:	aaea 8ae0 80e8 5651 92ff 2915 65d5 6955     ......QV...).eUi
   29903:	0005 e080 2e24 2004 df20 7550 3f55 5fd0     ....$..  .PuU?._
   29913:	5575 0050 220e 2e6a 2022 da24 6a4b 2540     uUP.."j." $.Kj@%
   29923:	5fc5 5a6a 0041 ea88 2aa0 604a ca34 4660     ._jZA....*J`4.`F
   29933:	2a5a 6adf 4a4a 0000 2eac aaaa 20ae 751f     Z*.jJJ....... .u
   29943:	75df 201f 20ff 003f 0000 4646 8046 60e2     .u. . ?...FFF..`
   29953:	9f48 0f20 bfe0 7f2a 4800 004f 2a0e cac8     H. ...*..HO..*..
   29963:	e082 2f28 6a4a a8ac 7aae 2f4a 0028 aa2e     ..(/Jj...zJ/(...
   29973:	eaea 20ae 92ff 4aff 3aaf 2aef ac3b 004a     ... ...J.:.*;.J.
   29983:	e0e0 eaaa 20a4 92ff 4aff 3aac 29ed ad3b     ..... ...J.:.);.
   29993:	004b e0e0 8eac a004 d53f 755f 441f 5557     K.......?._u.DWU
   299a3:	55fd 0057 2422 e440 e044 d53f 755f 411f     .UW."$@.D.?._u.A
   299b3:	55ff ff55 0041 4422 4002 2004 d53f 957f     .UU.A."D.@. ?...
   299c3:	94ff a0ff 213e 003e 4422 eac8 6048 d53f     ....>!>."D..H`?.
   299d3:	755f a91f c9bf 80cf 00ff 4422 c422 e060     _u........"D".`.
   299e3:	d53f 755f 2a1f b96d 4c2a 006a 2422 2240     ?._u.*m.*Lj."$@"
   299f3:	0048 1f00 4820 4444 4444 2048 001f 4208     H... HDDDDH ...B
   29a03:	2aa2 8024 7444 57d5 4075 559f 551f 009f     .*$.Dt.Wu@.U.U..
   29a13:	e08a 4400 40e4 7f12 5754 d57d 5557 577d     ...D.@..TW}.WU}W
   29a23:	0054 2e68 c444 204e 7f12 7141 7555 75d5     T.h.D.N ..AqUu.u
   29a33:	7155 0040 2468 e002 0042 1f00 4820 4444     Uq@.h$..B... HDD
   29a43:	4444 2048 001f 4208 2aa2 8024 69a9 ea3f     DDH ...B.*$..i?.
   29a53:	ff2a be80 abea 00be 8024 4868 802e 0b68     *.......$.hH..h.
   29a63:	0aff 505f 55f7 55f7 0057 e080 e4e0 e0e4     .._P.U.UW.......
   29a73:	003c 10ff ff20 7f55 55d5 0000 082c 6060     <... .U..U..,.``
   29a83:	6060 0038 08ff 3d21 9555 3d55 0021 082c     ``8...!=U.U=!.,.
   29a93:	4e4a e04a 541a 2498 c32a 242a 9458 001a     JNJ..T.$*.*$X...
   29aa3:	ac8a 8c8e 80aa 106b 10e7 006b 106b 10e7     ......k...k.k...
   29ab3:	006b 0c2c 2c20 200c 0038 10ff ad27 ecb6     k.,. ,. 8...'...
   29ac3:	e5bf 0037 082c eae0 e0e2 8810 0843 f55f     ..7.,.......C._.
   29ad3:	ff55 5555 0055 022c 442a 20a2 4990 4a00     U.UUU.,.*D. .I.J
   29ae3:	fa52 534a 52fa 004b 0268 2ec4 20aa 4990     R.JS.RK.h.... .I
   29af3:	aab2 a4aa a4fa aaaa 00b2 082c e888 e08a     ..........,.....
   29b03:	4990 3f00 2d2a a9fa a8af 001b 6868 aea4     .I.?*-......hh..
   29b13:	200c 4990 e800 ebae abaa aeea 00e9 0468     . .I..........h.
   29b23:	44ae 208c 4990 5b11 5b65 df48 5f6a 006a     .D. .I.[e[H.j_j.
   29b33:	2268 0e48 a0ae 4b90 7f01 7b4a 7c44 7cc7     h"H....K..J{D|.|
   29b43:	0044 0e68 882e 80e8 003e 20ff fd54 4f54     D.h.....>.. T.TO
   29b53:	fc54 0056 e000 2e2c a0aa 003e 10ff aa7f     T.V...,...>.....
   29b63:	aab2 f2aa 002a e200 eac0 00ae 003e 20ff     ....*.......>.. 
   29b73:	525e d25e 525e 005e e000 aeac a08c 5764     ^R^.^R^.......dW
   29b83:	7dd5 d755 7d55 57d5 0064 442e 444c 204e     .}U.U}.Wd..DLDN 
   29b93:	fc23 3f21 aee8 aaeb aeeb 00e8 6868 e24a     #.!?........hhJ.
   29ba3:	a084 a2d1 d5fc f9a2 7e00 4ad2 007b a20a     .........~.J{...
   29bb3:	0840 c0a2 caab ceaa 1aea ceaa caaa 00eb     @...............
   29bc3:	0ee0 aeaa e002 1f00 4820 4444 4444 2048     ........ HDDDDH 
   29bd3:	001f 4208 2aa2 8024 7f44 0044 fda4 00aa     ...B.*$.D.D.....
   29be3:	faa9 00a8 844c 6aac 4068 1f00 4820 4444     ....L..jh@.. HDD
   29bf3:	4444 2048 001f 4208 2aa2 8024 7f44 0144     DDH ...B.*$.D.D.
   29c03:	d77d 117d e03f 003f 824c e2c2 a0a4 7f44     }.}.?.?.L.....D.
   29c13:	4444 4b78 da7a 4b7a 0078 884c aa2e 20ae     DDxKz.zKx.L.... 
   29c23:	fa29 b2ac 27a9 5251 a2ac 0001 aa2a aaae     )....'QR....*...
   29c33:	20aa ff22 9724 0f48 7a48 7acf 004f 4c2e     . ".$.H.Hz.zO..L
   29c43:	2e2e e0aa 7b40 75d5 424c 5652 56f3 005b     ....@{.uLBRV.V[.
   29c53:	c6c6 c242 20ea 5244 41e8 5557 555f 55ff     ..B.. DR.AWU_U.U
   29c63:	0057 0224 2e40 2004 2c23 24ff aabb fba2     W.$.@.. #,.$....
   29c73:	aaa2 00bb e000 aeea e0aa ff27 5722 57fc     ..........'."W.W
   29c83:	927d ff49 0002 2c0e aa0c 602a ff27 1f22     }.I....,..*`'.".
   29c93:	5ff5 9f75 97e2 00f2 2c0e 2e00 808e a2bf     ._u......,......
   29ca3:	a4fc 6dbf ef55 7d45 0041 aaea a4e6 e062     ...mU.E}A.....b.
   29cb3:	e4fc f5ae 21ac a8d6 35e9 0065 c8aa 888e     .....!...5e.....
   29cc3:	a042 9f84 8fe8 afb8 aafa affa 00b8 4c0c     B..............L
   29cd3:	8e88 8088 4c42 487f 124f 5a77 9a7f 00b7     ....BL.HO.wZ....
   29ce3:	e200 eae0 e0ea 92ff 00ff afb8 aafa affa     ................
   29cf3:	00b8 e0e2 8e88 8088 92ff 00ff 6ea9 fb32     .............n2.
   29d03:	6f32 00aa e8e2 482a 808e 90f3 f29f af08     2o....*H........
   29d13:	e515 af15 0008 e4e2 440e 004e 223e 22ff     .........DN.>"."
   29d23:	f55e 7f55 ff55 0044 c422 4ee2 e042 1f00     ^.U.U.D."..NB...
   29d33:	4820 4444 4444 2048 001f 4208 2aa2 8024      HDDDDH ...B.*$.
   29d43:	1f00 4820 4444 4444 2048 001f 4208 2aa2     .. HDDDDH ...B.*
   29d53:	8024 cf29 0049 5a92 13f6 5af6 0092 200e     $.).I..Z...Z... 
   29d63:	c8aa a0ca 1f00 4820 4444 4444 2048 001f     ...... HDDDDH ..
   29d73:	4208 2aa2 8024 1f00 4820 4444 4444 2048     .B.*$... HDDDDH 
   29d83:	001f 4208 2aa2 8024 cf29 4949 7f22 beaa     ...B.*$.).II"...
   29d93:	3fea 0002 220e aa0e 00ae cf29 0049 a32a     .?..."....).I.*.
   29da3:	227e a37e 002a 200e aa0e 00ae 1f00 4820     ~"~.*.. ...... H
   29db3:	4444 4444 2048 001f 4208 2aa2 8024 1f00     DDDDH ...B.*$...
   29dc3:	4820 4444 4444 2048 001f 4208 2aa2 8024      HDDDDH ...B.*$.
   29dd3:	1f00 4820 4444 4444 2048 001f 4208 2aa2     .. HDDDDH ...B.*
   29de3:	8024 1f00 4820 4444 4444 2048 001f 4208     $... HDDDDH ...B
   29df3:	2aa2 8024 e212 223f 5b3e 1e96 9b96 005e     .*$...?">[....^.
   29e03:	082c aa4e 00ae 5651 927f 6ac9 4fda 6ada     ,.N...QV...j.O.j
   29e13:	00c8 e080 c8aa a0ca 5651 91ff 6f48 cf5a     ........QV..HoZ.
   29e23:	6f5a 0048 e080 aeaa a0aa 5651 92ff 1529     ZoH.......QV..).
   29e33:	d522 d29b 0025 e080 a62c 20a2 cb20 6b5e     "...%...,..  .^k
   29e43:	2b5e 44c4 446f 0047 8e88 a488 e082 cb2a     ^+.DoDG.......*.
   29e53:	526f 2452 49da 426e 0043 e8c0 8248 80a4     oRR$.InBC...H...
   29e63:	df20 7754 355d 74df 5d54 0011 2e68 ca44      .Tw]5.tT]..h.D.
   29e73:	60a2 3f08 7fc0 7f54 7fd5 5c54 0001 2c0e     .`.?..T...T\...,
   29e83:	20a8 a0a8 577c 57fc 217e aa7f aa7f 002a     . ..|W.W~!....*.
   29e93:	0c2c aaa2 e0aa 487f 098f 9df2 95f7 94f7     ,......H........
   29ea3:	00f7 e0e0 c422 c062 d37f 7f44 2b3e 2afe     ....".b...D.>+.*
   29eb3:	2bfe 003e 2ee8 aa0e 00ae 1f00 4820 4444     .+>......... HDD
   29ec3:	4444 2048 001f 4208 2aa2 8024 b6d2 92cb     DDH ...B.*$.....
   29ed3:	82c4 c925 c911 0025 8cac e2a0 e022 1f00     ..%...%....."...
   29ee3:	4820 4444 4444 2048 001f 4208 2aa2 8024      HDDDDH ...B.*$.
   29ef3:	1f00 4820 4444 4444 2048 001f 4208 2aa2     .. HDDDDH ...B.*
   29f03:	8024 d53f 755f 001f aabb aaab 00bb 2422     $.?._u........"$
   29f13:	ea40 e0ea 1f00 4820 4444 4444 2048 001f     @..... HDDDDH ..
   29f23:	4208 2aa2 8024 d53f 755f b21f eb6a 6a2a     .B.*$.?._u..j.*j
   29f33:	00b2 4422 a206 604c d53f 755f 001f aafb     .."D..L`?._u....
   29f43:	aaab 00fb 2422 e242 e0e2 d53f 755f 021f     ...."$B...?._u..
   29f53:	aafb aafb 00fb 2422 e240 204c d53f 755f     ......"$@.L ?._u
   29f63:	011f 547d 54d7 007d 4422 8224 60e8 d53f     ..}T.T}."D$..`?.
   29f73:	157f 225f 21ff 4bd5 0071 4422 e402 002e     .._".!.Kq."D....
   29f83:	44a2 00bf aa3e ffa2 aaa2 003e c042 a8a8     .D..>.....>.B...
   29f93:	a0a8 1f00 4820 4444 4444 2048 001f 4208     .... HDDDDH ...B
   29fa3:	2aa2 8024 da4f cf6a 2e40 2a2a 21fe 00a6     .*$.O.j.@.**.!..
   29fb3:	aeea 8a08 6048 6fa2 0035 6dbf ff2b adab     ....H`.o5..m+...
   29fc3:	00ff 000e 4ee2 e042 ef22 9235 204b 1ad5     .....NB.".5.K ..
   29fd3:	d297 0035 020e 2ac4 20a2 1f00 4820 4444     ..5....*. .. HDD
   29fe3:	4444 2048 001f 4208 2aa2 8024 a2ff afa8     DDH ...B.*$.....
   29ff3:	e0aa 5247 fb4a 0040 aa02 eaaa 60aa ff05     ..GRJ.@......`..
   2a003:	a9a9 51ef 5575 75df 0055 e222 4ea4 6022     ...QuU.uU."..N"`
   2a013:	e13e 003e aaba fba2 aaa2 00ba 6068 e8e8     >.>.........h`..
   2a023:	e0e8 fc23 3e21 d3a9 02fe d6ab 00fa 4268     ..#.!>........hB
   2a033:	aa0e a0ea 1f00 4820 4444 4444 2048 001f     ...... HDDDDH ..
   2a043:	4208 2aa2 8024 1f00 4820 4444 4444 2048     .B.*$... HDDDDH 
   2a053:	001f 4208 2aa2 8024 7f44 0044 aaba fba2     ...B.*$.D.D.....
   2a063:	aaa2 00ba 804c e8e8 e0ea 5b54 5bfe 2256     ....L.....T[.[V"
   2a073:	4af7 774a 0042 2a2c eaaa 20aa 5d14 5df7     .JJwB.,*... .].]
   2a083:	e515 b58d e59f 000c 040e c4c6 002e 5655     ..............UV
   2a093:	577d 40f5 fe55 5f51 0040 4c06 066c 8006     }W.@U.Q_@..Ll...
   2a0a3:	f547 f55f 0047 ea44 ea52 0044 e444 ea40     G._.G.D.R.D.D.@.
   2a0b3:	e0aa f547 f55f 0047 aafa aaab 00fa e444     ..G._.G.......D.
   2a0c3:	c442 a0ea 1f00 4820 4444 4444 2048 001f     B..... HDDDDH ..
   2a0d3:	4208 2aa2 8024 4547 55ff 7c57 5557 45ff     .B.*$.GE.UW|WU.E
   2a0e3:	0047 e2e2 e2e0 e0e2 7f40 7ed0 4e52 7e53     G.......@..~RNS~
   2a0f3:	5cd2 0054 88e0 e88a 8088 5f40 57f4 755d     .\T.......@_.W]u
   2a103:	5f54 5df5 0053 2468 2404 2024 f559 5556     T_.]S.h$.$$ Y.VU
   2a113:	59f4 7e00 4ad2 007b ae44 0884 c0a2 2c23     .Y.~.J{.D.....#,
   2a123:	28ff 5a74 79d5 5a55 0062 e000 aeac a08c     .(tZ.yUZb.......
   2a133:	ff00 afa8 a5b6 a5e7 efb6 00a8 ac68 ac8c     ............h...
   2a143:	a0ac 9f82 8fe8 f558 1556 f457 0059 4c0c     ......X.V.W.Y..L
   2a153:	aca4 200c 7f44 4f48 ab38 fba2 aba2 0038     ... D.HO8.....8.
   2a163:	4c0c ae0e 00ae 1f00 4820 4444 4444 2048     .L...... HDDDDH 
   2a173:	001f 4208 2aa2 8024 90f7 f29f 684f cf5a     ...B.*$.....OhZ.
   2a183:	685a 004f c4e2 eae0 e0e2 90f3 f29f 6f04     ZhO............o
   2a193:	d750 575d 0070 c4e2 0e4e 002e 223e 22ff     P.]Wp...N...>"."
   2a1a3:	afb8 aafa affa 00b8 e422 8ee8 8088 1f00     ........".......
   2a1b3:	4820 4444 4444 2048 001f 4208 2aa2 8024      HDDDDH ...B.*$.
   2a1c3:	bfe0 aaaa 3bea aaea aeaa 00e0 aaea eae8     .....;..........
   2a1d3:	e0aa baff fbaa fb0c ffaa faaa 0003 aee8     ................
   2a1e3:	480e e0c2 cf29 0049 aee8 abea aeea 00e8     .H..).I.........
   2a1f3:	200e a246 a084 cf29 0049 5f50 d575 5f75     . F...).I.P_u.u_
   2a203:	0050 200e 2a4e 6068 db34 557c 7fd8 0054     P.. N*h`4.|U..T.
   2a213:	88ff 00f7 482a 204a 80e8 5a57 9a7e 0097     ....*HJ ..WZ~...
   2a223:	95fd 95e5 00fd aaea e2e2 e0e2 df30 7454     ............0.Tt
   2a233:	3f54 54d4 5f75 0050 ea22 eaea 20e2 cd29     T?.Tu_P.".... ).
   2a243:	4f6a 2a5a 4fda 4d6a 0049 4822 88ae 2042     jOZ*.OjMI."H..B 
   2a253:	df20 5d65 3f40 5fd5 5f75 0040 0e68 c444      .e]@?._u_@.h.D.
   2a263:	40e4 aa7f aa0f 00ff 4f44 4f78 0040 eaea     .@......DOxO@...
   2a273:	4a08 60aa a97b a90b 20fb d25e 405e 007f     .J.`{.... ^.^@..
   2a283:	e4e4 2284 60aa 643f 023f ae7b 047a 11fe     ...".`?d?.{.z...
   2a293:	001e 8288 c0ca 6068 92ff 00ff adb5 f7a5     ......h`........
   2a2a3:	ada5 00b5 e0e0 c0e0 e0c2 1f00 4820 4444     ............ HDD
   2a2b3:	4444 2048 001f 4208 2aa2 8024 d53f 755f     DDH ...B.*$.?._u
   2a2c3:	581f db72 7256 005a 2422 2c40 e08a d53f     .Xr.VrZ."$@,..?.
   2a2d3:	755f aa1f 2a7f aa7f 002f 4422 e80a a0ec     _u...*../."D....
   2a2e3:	d27e 7a4a 0803 f55f f55f 0055 8244 2ae0     ~.Jz.._._.U.D..*
   2a2f3:	a044 4b78 da7a 487b d27e 7a4a 0003 aa2e     D.xKz.{H~.Jz....
   2a303:	88c4 c0a2 7f12 5b40 d252 527b 5b52 0040     ......@[R.{RR[@.
   2a313:	0e68 eaaa 00ae 1f00 4820 4444 4444 2048     h....... HDDDDH 
   2a323:	001f 4208 2aa2 8024 ff20 2724 4b92 da25     ...B.*$. .$'.K%.
   2a333:	5853 0045 2e68 6a2c 60ea 36a9 31fb 01ab     SXE.h.,j.`.6.1..
   2a343:	948a a8ff 00ff c42a 22e4 e0c2 d27e d27f     ......*.."..~...
   2a353:	007e 95ff 959f 00ff e888 8686 a0a4 1f00     ~...............
   2a363:	4820 4444 4444 2048 001f 4208 2aa2 8024      HDDDDH ...B.*$.
   2a373:	4990 5558 56f5 e458 f487 0017 ac68 a0ec     .IXU.VX.....h...
   2a383:	6068 4b90 7f00 7e45 fc55 7d57 0045 68e0     h`.K..E~U.W}E..h
   2a393:	ea2a 00a2 4b90 7f00 7f50 7fd5 7452 0041     *....K..P...RtA.
   2a3a3:	68e0 24a4 a0ac ef24 0532 6a3f aab2 32ea     .h.$..$.2.?j...2
   2a3b3:	002a 020e eac0 00ae 1f00 4820 4444 4444     *......... HDDDD
   2a3c3:	2048 001f 4208 2aa2 8024 1f00 4820 4444     H ...B.*$... HDD
   2a3d3:	4444 2048 001f 4208 2aa2 8024 575d 57f5     DDH ...B.*$.]W.W
   2a3e3:	015d 9189 91fd 0089 22e2 e2e0 e022 1f00     ]........".."...
   2a3f3:	4820 4444 4444 2048 001f 4208 2aa2 8024      HDDDDH ...B.*$.
   2a403:	ba8f baac 728f 58b5 1db3 0075 eae8 6ae8     .....r.X..u....j
   2a413:	a044 a2bf a4fc 40bf 5aea 5acf 00ea aaea     D......@.Z.Z....
   2a423:	ace0 a08c 90f7 f29f 7714 7f5a b79a 0014     .........wZ.....
   2a433:	c4e2 ae0e 00ae 223e 22ff bae7 aaef a8eb     ......>"."......
   2a443:	00ef e422 eaaa e0e2 aaee aaeb 91ef ffa2     ..".............
   2a453:	a291 00ff e848 2e60 e002 7a21 faaf fbaa     ....H.`...!z....
   2a463:	d22e 6853 0048 ea22 aaae 20e2 3f08 25c0     ..ShH.".... .?.%
   2a473:	aa7f aeab 3bea 0006 020e 8eac 60aa 3f08     .....;.......`.?
   2a483:	41c0 5f75 c575 557f 0071 040e 284e 204a     .Au_u..Uq...N(J 
   2a493:	9505 2557 00f9 25fd 9557 000d 26a6 2aa0     ..W%...%W....&.*
   2a4a3:	204a 1f00 4820 4444 4444 2048 001f 4208     J .. HDDDDH ...B
   2a4b3:	2aa2 8024 1f00 4820 4444 4444 2048 001f     .*$... HDDDDH ..
   2a4c3:	4208 2aa2 8024 d53f 157f aaff eaab ff11     .B.*$.?.........
   2a4d3:	0010 4622 e482 002e d53f 755f d09f faa3     .."F....?._u....
   2a4e3:	a2d6 00fb 2422 ea40 e0aa 7806 5557 d079     ...."$@....xWUy.
   2a4f3:	5d75 7457 004c c422 4444 60e2 7f00 5e52     u]WtL.".DD.`..R^
   2a503:	da7b 7e52 5a57 0076 2468 e88a 2084 e587     {.R~WZv.h$... ..
   2a513:	a8bf aeab a8ab bcaf 00a7 e0e4 a0ae e0c8     ................
   2a523:	a9a9 fba9 4801 55ff f55f 0055 2e84 2a00     .....H.U_.U....*
   2a533:	a044 3d22 3fe0 4a49 55ff 44ff 004b 8624     D."=.?IJ.U.DK.$.
   2a543:	8606 a08c fb28 aea8 2db5 5555 aba9 0000     ....(....-UU....
   2a553:	4c2e 4444 20c6 5d51 f755 715d f75d 5d55     .LDD. Q]U.]q].U]
   2a563:	0051 ae24 8444 204a 2c23 21ff 4f96 5fea     Q.$.D.J #,.!.O._
   2a573:	5fea 0048 e000 8a8c 80e8 a2bf a2fc 00bf     ._H.............
   2a583:	253f a5fe 00b5 aaea c4e2 40ac aaba fba2     ?%.........@....
   2a593:	aaa2 a03e a0e7 00be e8e8 e2e8 20c4 223f     ..>.......... ?"
   2a5a3:	aaff 332f ff80 9f94 0080 46e8 2e4e 604c     ../3.......FN.L`
   2a5b3:	1f00 4820 4444 4444 2048 001f 4208 2aa2     .. HDDDDH ...B.*
   2a5c3:	8024 027e 22ff aafb 0a9b 91fe 0056 8206     $.~.."......V...
   2a5d3:	e2ea 6068 7dd7 d456 557f 00d7 88ff 00f7     ..h`.}V..U......
   2a5e3:	eae0 e0e2 80e8 baff fbaa aa0c f9d4 d4a9     ................
   2a5f3:	00fa aee8 a208 0044 7c20 7dd7 57d5 7d21     ......D. |.}.W!}
   2a603:	7dd5 00d4 444c 444e 4044 1f00 4820 4444     .}..LDNDD@.. HDD
   2a613:	4444 2048 001f 4208 2aa2 8024 1f00 4820     DDH ...B.*$... H
   2a623:	4444 4444 2048 001f 4208 2aa2 8024 1f00     DDDDH ...B.*$...
   2a633:	4820 4444 4444 2048 001f 4208 2aa2 8024      HDDDDH ...B.*$.
   2a643:	001c 08ff d755 7f55 d755 0055 082c c262     ....U.U.U.U.,.b.
   2a653:	a0a4 4b90 3f00 b9e4 aae4 a0ef 00ef 6ae0     ...K.?.........j
   2a663:	4a48 e082 4990 3d20 5d55 5d95 3d55 0020     HJ...I =U].]U= .
   2a673:	0e2c 4e4e 004e 8910 7551 755f 75d5 755f     ,.NNN...Qu_u.u_u
   2a683:	0051 4a68 84e4 204a 4990 4100 f55f ff55     Q.hJ..J .I.A_.U.
   2a693:	f555 005f 042c 446c 40c6 ef22 4035 555f     U._.,.lD.@".5@_U
   2a6a3:	40ff 755f 005f 020e 8424 2022 f01f 351f     .@_u_...$." ...5
   2a6b3:	30df 35df 50ff 0033 6268 c6e2 a0a4 84bc     .0.5.P3.hb......
   2a6c3:	07fd aaba faa7 aaa7 00bf 2c8a e448 e0ea     ...........,H...
   2a6d3:	1f00 4820 4444 4444 2048 001f 4208 2aa2     .. HDDDDH ...B.*
   2a6e3:	8024 ff2a 024a bb8c abed baa9 008d c08e     $.*.J...........
   2a6f3:	44aa 00a2 1f00 4820 4444 4444 2048 001f     .D.... HDDDDH ..
   2a703:	4208 2aa2 8024 7f44 4144 5f75 c575 5f75     .B.*$.D.DAu_u.u_
   2a713:	0075 844c 284e 204a fe2b abaa baaa 4baa     u.L.N(J +......K
   2a723:	5eaa 0023 aaaa cacc a0aa 4849 49ff 9208     .^#.......IH.I..
   2a733:	faa7 a297 00fa e2e4 ea22 a0ea 1f00 4820     ........"..... H
   2a743:	4444 4444 2048 001f 4208 2aa2 8024 2a3e     DDDDH ...B.*$.>*
   2a753:	aaff fbae aaae 2afe 003e aa8e aaae 80ae     .......*>.......
   2a763:	a97b a90b 44fb 5557 55fd 0057 e4e4 e4c2     {....DWU.UW.....
   2a773:	e044 d53f 755f 081f f55f f55f 0055 2422     D.?._u.._._.U."$
   2a783:	2a40 a044 d53f 157f 557f f257 ca4c 0057     @*D.?....UW.L.W.
   2a793:	4422 4a82 2024 d53f 157f 487f da7b 4b7a     "D.J$ ?....H{.zK
   2a7a3:	0078 4422 ea02 20ae 001c 48ff 5772 42fa     x."D... ...HrW.B
   2a7b3:	5af7 0072 082c aa4e a0ea 003c 10ff 6a3b     .Zr.,.N...<...;j
   2a7c3:	aabb 6abb 003b 082c e8e8 e0e8 4990 f900     ...j;.,......I..
   2a7d3:	feab fb02 faae 0002 0068 aeea a0aa f547     ........h.....G.
   2a7e3:	f55f 285f a272 eaba 0038 e444 ea88 80ae     _._(r...8.D.....
   2a7f3:	5a4f 43ee 1544 565c 54fd 0044 acaa 8c8e     OZ.CD.\V.TD.....
   2a803:	a0aa 5f40 f655 745f f557 565f 0055 246a     ..@_U._tW._VU.j$
   2a813:	0e4e 4044 9f84 8fe9 ab39 f9a1 a2af 00b7     N.D@....9.......
   2a823:	2400 848e e0ea afba affa bfaa 7e00 4ad2     .$...........~.J
   2a833:	007b 8ece 08ae c0a2 90f3 929f a2ff 05ef     {...............
   2a843:	a5ef 00ff e4e2 e2e0 e0e2 643f 00bf 553f     ..........?d..?U
   2a853:	b55f d79d 003d c0c4 04e4 002e 6a3b aabb     _...=.......;j..
   2a863:	6abb 493b 8a7f 0089 e8e8 e0ea 80e0 d53f     .j;I..........?.
   2a873:	355f 6cdf 3a4b 6bca 004c 2422 ea40 e0aa     _5.lK:.kL."$@...
   2a883:	5e43 7e6b de52 7e42 7e53 0043 ea22 aaaa     C^k~R.B~S~C."...
   2a893:	20e2 c722 5f6a 2a6a da2f 476a 0042 8e0e     . ".j_j*/.jGB...
   2a8a3:	e888 00ae a97b a90b 25fb 4d55 99a7 004d     ....{....%UM..M.
   2a8b3:	e4e4 6ac2 602a 1f00 4820 4444 4444 2048     ...j*`.. HDDDDH 
   2a8c3:	001f 4208 2aa2 8024 6492 049f baef 1fea     ...B.*$..d......
   2a8d3:	aaea 00ea ca02 aaac a0ca f8bf 7fa4 5954     ..............TY
   2a8e3:	d57c 7d58 0054 aeea 8eac a08c 751f 75df     |.X}T........u.u
   2a8f3:	001f 283f aafd 002b 4646 8246 e0ea d53f     ..?(..+.FFF...?.
   2a903:	755f c91f 755f 75df 00d5 02e0 86e4 e0c4     _u.._u.u........
   2a913:	223e 22ff affa 0ffa aafa 00f8 e422 ca2a     >"."........".*.
   2a923:	20ca 0023 002e 0a0d                          . #......

0002a92c <__EH_FRAME_BEGIN__>:
   2a92c:	0000 0000                                   ....
