
sinobit-project-template:     file format elf32-littlearm


Disassembly of section .text:

00000000 <__Vectors>:
       0:	20004000 	.word	0x20004000
       4:	00000851 	.word	0x00000851
       8:	0000088d 	.word	0x0000088d
       c:	0000088f 	.word	0x0000088f
	...
      2c:	00000891 	.word	0x00000891
	...
      38:	00000893 	.word	0x00000893
      3c:	00000895 	.word	0x00000895
      40:	00000897 	.word	0x00000897
      44:	00000897 	.word	0x00000897
      48:	000007d1 	.word	0x000007d1
      4c:	00000897 	.word	0x00000897
      50:	00000897 	.word	0x00000897
      54:	00000000 	.word	0x00000000
      58:	00000897 	.word	0x00000897
      5c:	00000897 	.word	0x00000897
      60:	00000897 	.word	0x00000897
      64:	00000579 	.word	0x00000579
      68:	00000897 	.word	0x00000897
      6c:	00000897 	.word	0x00000897
      70:	00000897 	.word	0x00000897
      74:	00000897 	.word	0x00000897
      78:	00000897 	.word	0x00000897
      7c:	00000897 	.word	0x00000897
      80:	00000897 	.word	0x00000897
      84:	00000897 	.word	0x00000897
      88:	00000897 	.word	0x00000897
      8c:	00000897 	.word	0x00000897
      90:	00000897 	.word	0x00000897
      94:	00000897 	.word	0x00000897
      98:	00000897 	.word	0x00000897
      9c:	00000897 	.word	0x00000897
      a0:	00000897 	.word	0x00000897
      a4:	00000897 	.word	0x00000897
	...

000000c0 <__do_global_dtors_aux>:
      c0:	b510      	push	{r4, lr}
      c2:	4c06      	ldr	r4, [pc, #24]	; (dc <__do_global_dtors_aux+0x1c>)
      c4:	7823      	ldrb	r3, [r4, #0]
      c6:	2b00      	cmp	r3, #0
      c8:	d107      	bne.n	da <__do_global_dtors_aux+0x1a>
      ca:	4b05      	ldr	r3, [pc, #20]	; (e0 <__do_global_dtors_aux+0x20>)
      cc:	2b00      	cmp	r3, #0
      ce:	d002      	beq.n	d6 <__do_global_dtors_aux+0x16>
      d0:	4804      	ldr	r0, [pc, #16]	; (e4 <__do_global_dtors_aux+0x24>)
      d2:	e000      	b.n	d6 <__do_global_dtors_aux+0x16>
      d4:	bf00      	nop
      d6:	2301      	movs	r3, #1
      d8:	7023      	strb	r3, [r4, #0]
      da:	bd10      	pop	{r4, pc}
      dc:	20000074 	.word	0x20000074
      e0:	00000000 	.word	0x00000000
      e4:	0002a92c 	.word	0x0002a92c

000000e8 <frame_dummy>:
      e8:	4b04      	ldr	r3, [pc, #16]	; (fc <frame_dummy+0x14>)
      ea:	b510      	push	{r4, lr}
      ec:	2b00      	cmp	r3, #0
      ee:	d003      	beq.n	f8 <frame_dummy+0x10>
      f0:	4903      	ldr	r1, [pc, #12]	; (100 <frame_dummy+0x18>)
      f2:	4804      	ldr	r0, [pc, #16]	; (104 <frame_dummy+0x1c>)
      f4:	e000      	b.n	f8 <frame_dummy+0x10>
      f6:	bf00      	nop
      f8:	bd10      	pop	{r4, pc}
      fa:	46c0      	nop			; (mov r8, r8)
      fc:	00000000 	.word	0x00000000
     100:	20000078 	.word	0x20000078
     104:	0002a92c 	.word	0x0002a92c

00000108 <_mainCRTStartup>:
     108:	4b16      	ldr	r3, [pc, #88]	; (164 <_mainCRTStartup+0x5c>)
     10a:	2b00      	cmp	r3, #0
     10c:	d100      	bne.n	110 <_mainCRTStartup+0x8>
     10e:	4b14      	ldr	r3, [pc, #80]	; (160 <_mainCRTStartup+0x58>)
     110:	469d      	mov	sp, r3
     112:	2240      	movs	r2, #64	; 0x40
     114:	0292      	lsls	r2, r2, #10
     116:	1a9a      	subs	r2, r3, r2
     118:	4692      	mov	sl, r2
     11a:	2100      	movs	r1, #0
     11c:	468b      	mov	fp, r1
     11e:	460f      	mov	r7, r1
     120:	4813      	ldr	r0, [pc, #76]	; (170 <_mainCRTStartup+0x68>)
     122:	4a14      	ldr	r2, [pc, #80]	; (174 <_mainCRTStartup+0x6c>)
     124:	1a12      	subs	r2, r2, r0
     126:	f000 fedf 	bl	ee8 <memset>
     12a:	4b0f      	ldr	r3, [pc, #60]	; (168 <_mainCRTStartup+0x60>)
     12c:	2b00      	cmp	r3, #0
     12e:	d000      	beq.n	132 <_mainCRTStartup+0x2a>
     130:	4798      	blx	r3
     132:	4b0e      	ldr	r3, [pc, #56]	; (16c <_mainCRTStartup+0x64>)
     134:	2b00      	cmp	r3, #0
     136:	d000      	beq.n	13a <_mainCRTStartup+0x32>
     138:	4798      	blx	r3
     13a:	2000      	movs	r0, #0
     13c:	2100      	movs	r1, #0
     13e:	0004      	movs	r4, r0
     140:	000d      	movs	r5, r1
     142:	480d      	ldr	r0, [pc, #52]	; (178 <_mainCRTStartup+0x70>)
     144:	2800      	cmp	r0, #0
     146:	d002      	beq.n	14e <_mainCRTStartup+0x46>
     148:	480c      	ldr	r0, [pc, #48]	; (17c <_mainCRTStartup+0x74>)
     14a:	e000      	b.n	14e <_mainCRTStartup+0x46>
     14c:	bf00      	nop
     14e:	f000 fcc9 	bl	ae4 <__libc_init_array>
     152:	0020      	movs	r0, r4
     154:	0029      	movs	r1, r5
     156:	f000 fdf1 	bl	d3c <__wrap_main>
     15a:	f000 fcad 	bl	ab8 <exit>
     15e:	46c0      	nop			; (mov r8, r8)
     160:	00080000 	.word	0x00080000
     164:	20004000 	.word	0x20004000
	...
     170:	20000074 	.word	0x20000074
     174:	20000114 	.word	0x20000114
	...

00000180 <_Z13HT1632C_Writehh>:
static unsigned char com[12] = {
  0x00, 0x04, 0x08, 0x0C, 0x10, 0x14, 0x18, 0x1C, 0x20, 0x24, 0x28, 0x2C
};

void HT1632C_Write(unsigned char Data, unsigned char cnt)      //MCU writes the data to ht1632c, and the high position is in front
{
     180:	b5f0      	push	{r4, r5, r6, r7, lr}
inline void WRon(void) { gpiobase->OUTCLR= 1<<HT_WR; }
     182:	22a0      	movs	r2, #160	; 0xa0
     184:	2680      	movs	r6, #128	; 0x80
     186:	25a1      	movs	r5, #161	; 0xa1
{
     188:	468c      	mov	ip, r1
  unsigned char i;
  for(i=0; i<cnt; i++) {
     18a:	2300      	movs	r3, #0
inline void WRon(void) { gpiobase->OUTCLR= 1<<HT_WR; }
     18c:	05d2      	lsls	r2, r2, #23
     18e:	0436      	lsls	r6, r6, #16
     190:	00ed      	lsls	r5, r5, #3
  for(i=0; i<cnt; i++) {
     192:	4563      	cmp	r3, ip
     194:	d00f      	beq.n	1b6 <_Z13HT1632C_Writehh+0x36>
     196:	2180      	movs	r1, #128	; 0x80
inline void WRon(void) { gpiobase->OUTCLR= 1<<HT_WR; }
     198:	4f07      	ldr	r7, [pc, #28]	; (1b8 <_Z13HT1632C_Writehh+0x38>)
    WRon();
    if(Data&0x80) {
     19a:	b244      	sxtb	r4, r0
inline void WRon(void) { gpiobase->OUTCLR= 1<<HT_WR; }
     19c:	51d6      	str	r6, [r2, r7]
     19e:	0389      	lsls	r1, r1, #14
    if(Data&0x80) {
     1a0:	2c00      	cmp	r4, #0
     1a2:	da06      	bge.n	1b2 <_Z13HT1632C_Writehh+0x32>
inline void DATA1(void) { gpiobase->OUTSET= 1<<HT_DATA; }
     1a4:	5151      	str	r1, [r2, r5]
      DATA1();
    } else {
      DATA0();
    }
    Data<<=1;
     1a6:	0040      	lsls	r0, r0, #1
  for(i=0; i<cnt; i++) {
     1a8:	3301      	adds	r3, #1
    Data<<=1;
     1aa:	b2c0      	uxtb	r0, r0
inline void WRoff(void) { gpiobase->OUTSET= 1<<HT_WR; }
     1ac:	5156      	str	r6, [r2, r5]
  for(i=0; i<cnt; i++) {
     1ae:	b2db      	uxtb	r3, r3
     1b0:	e7ef      	b.n	192 <_Z13HT1632C_Writehh+0x12>
inline void DATA0(void) { gpiobase->OUTCLR= 1<<HT_DATA; }
     1b2:	51d1      	str	r1, [r2, r7]
     1b4:	e7f7      	b.n	1a6 <_Z13HT1632C_Writehh+0x26>
    WRoff();
  }
}
     1b6:	bdf0      	pop	{r4, r5, r6, r7, pc}
     1b8:	0000050c 	.word	0x0000050c

000001bc <_Z17HT1632C_Write_CMDh>:

void HT1632C_Write_CMD(unsigned char cmd) //MCU writes commands to ht1632c
{
     1bc:	b570      	push	{r4, r5, r6, lr}
inline void WRdata(void) { gpiobase->DIRSET= 1<<HT_DATA; }
     1be:	23a3      	movs	r3, #163	; 0xa3
     1c0:	24a0      	movs	r4, #160	; 0xa0
     1c2:	2280      	movs	r2, #128	; 0x80
inline void CSon(void) { gpiobase->OUTCLR= 1<<HT_CS; }
     1c4:	2580      	movs	r5, #128	; 0x80
{
     1c6:	0006      	movs	r6, r0
inline void WRdata(void) { gpiobase->DIRSET= 1<<HT_DATA; }
     1c8:	05e4      	lsls	r4, r4, #23
     1ca:	0392      	lsls	r2, r2, #14
     1cc:	00db      	lsls	r3, r3, #3
     1ce:	50e2      	str	r2, [r4, r3]
inline void CSon(void) { gpiobase->OUTCLR= 1<<HT_CS; }
     1d0:	4b07      	ldr	r3, [pc, #28]	; (1f0 <_Z17HT1632C_Write_CMDh+0x34>)
     1d2:	026d      	lsls	r5, r5, #9
     1d4:	50e5      	str	r5, [r4, r3]
  WRdata();
  CSon();
  HT1632C_Write(0x80,3);
     1d6:	2103      	movs	r1, #3
     1d8:	2080      	movs	r0, #128	; 0x80
     1da:	f7ff ffd1 	bl	180 <_Z13HT1632C_Writehh>
  HT1632C_Write(cmd,9);
     1de:	0030      	movs	r0, r6
     1e0:	2109      	movs	r1, #9
     1e2:	f7ff ffcd 	bl	180 <_Z13HT1632C_Writehh>
inline void CSoff(void) { gpiobase->OUTSET= 1<<HT_CS; }
     1e6:	23a1      	movs	r3, #161	; 0xa1
     1e8:	00db      	lsls	r3, r3, #3
     1ea:	50e5      	str	r5, [r4, r3]
  CSoff();
}
     1ec:	bd70      	pop	{r4, r5, r6, pc}
     1ee:	46c0      	nop			; (mov r8, r8)
     1f0:	0000050c 	.word	0x0000050c

000001f4 <_Z17HT1632C_Write_DAThPKth>:

void HT1632C_Write_DAT(unsigned char Addr, const uint16_t data[], unsigned char num)
{
     1f4:	b5f7      	push	{r0, r1, r2, r4, r5, r6, r7, lr}
inline void WRdata(void) { gpiobase->DIRSET= 1<<HT_DATA; }
     1f6:	23a3      	movs	r3, #163	; 0xa3
{
     1f8:	9201      	str	r2, [sp, #4]
inline void WRdata(void) { gpiobase->DIRSET= 1<<HT_DATA; }
     1fa:	24a0      	movs	r4, #160	; 0xa0
     1fc:	2280      	movs	r2, #128	; 0x80
     1fe:	05e4      	lsls	r4, r4, #23
     200:	0392      	lsls	r2, r2, #14
     202:	00db      	lsls	r3, r3, #3
     204:	50e2      	str	r2, [r4, r3]
inline void CSon(void) { gpiobase->OUTCLR= 1<<HT_CS; }
     206:	2380      	movs	r3, #128	; 0x80
{
     208:	0006      	movs	r6, r0
     20a:	000f      	movs	r7, r1
inline void CSon(void) { gpiobase->OUTCLR= 1<<HT_CS; }
     20c:	4d16      	ldr	r5, [pc, #88]	; (268 <_Z17HT1632C_Write_DAThPKth+0x74>)
     20e:	025b      	lsls	r3, r3, #9
     210:	5163      	str	r3, [r4, r5]
  WRdata();
  CSon();
  HT1632C_Write(0xa0,3);
     212:	2103      	movs	r1, #3
     214:	20a0      	movs	r0, #160	; 0xa0
  HT1632C_Write(Addr<<1,7);
     216:	0076      	lsls	r6, r6, #1
  HT1632C_Write(0xa0,3);
     218:	f7ff ffb2 	bl	180 <_Z13HT1632C_Writehh>
  HT1632C_Write(Addr<<1,7);
     21c:	b2f0      	uxtb	r0, r6
     21e:	2107      	movs	r1, #7
     220:	f7ff ffae 	bl	180 <_Z13HT1632C_Writehh>

  uint16_t d= data[num];
     224:	9b01      	ldr	r3, [sp, #4]
     226:	21a1      	movs	r1, #161	; 0xa1
     228:	005b      	lsls	r3, r3, #1
     22a:	5bda      	ldrh	r2, [r3, r7]
inline void WRon(void) { gpiobase->OUTCLR= 1<<HT_WR; }
     22c:	2780      	movs	r7, #128	; 0x80
  uint16_t d= data[num];
     22e:	230c      	movs	r3, #12
     230:	0026      	movs	r6, r4
inline void WRon(void) { gpiobase->OUTCLR= 1<<HT_WR; }
     232:	043f      	lsls	r7, r7, #16
     234:	00c9      	lsls	r1, r1, #3
  for(unsigned char i=0; i<12; i++) {
    WRon();
    if(d&0x8000) {
     236:	b210      	sxth	r0, r2
inline void WRon(void) { gpiobase->OUTCLR= 1<<HT_WR; }
     238:	5167      	str	r7, [r4, r5]
    if(d&0x8000) {
     23a:	9001      	str	r0, [sp, #4]
     23c:	2080      	movs	r0, #128	; 0x80
     23e:	0380      	lsls	r0, r0, #14
     240:	4684      	mov	ip, r0
     242:	9801      	ldr	r0, [sp, #4]
     244:	2800      	cmp	r0, #0
     246:	da0c      	bge.n	262 <_Z17HT1632C_Write_DAThPKth+0x6e>
inline void DATA1(void) { gpiobase->OUTSET= 1<<HT_DATA; }
     248:	4660      	mov	r0, ip
     24a:	5060      	str	r0, [r4, r1]
     24c:	3b01      	subs	r3, #1
      DATA1();
    } else {
      DATA0();
    }
    d<<=1;
     24e:	0052      	lsls	r2, r2, #1
     250:	b2db      	uxtb	r3, r3
     252:	b292      	uxth	r2, r2
inline void WRoff(void) { gpiobase->OUTSET= 1<<HT_WR; }
     254:	5077      	str	r7, [r6, r1]
  for(unsigned char i=0; i<12; i++) {
     256:	2b00      	cmp	r3, #0
     258:	d1ed      	bne.n	236 <_Z17HT1632C_Write_DAThPKth+0x42>
inline void CSoff(void) { gpiobase->OUTSET= 1<<HT_CS; }
     25a:	2380      	movs	r3, #128	; 0x80
     25c:	025b      	lsls	r3, r3, #9
     25e:	5073      	str	r3, [r6, r1]
    WRoff();
  }
  CSoff();
}
     260:	bdf7      	pop	{r0, r1, r2, r4, r5, r6, r7, pc}
inline void DATA0(void) { gpiobase->OUTCLR= 1<<HT_DATA; }
     262:	4660      	mov	r0, ip
     264:	5160      	str	r0, [r4, r5]
     266:	e7f1      	b.n	24c <_Z17HT1632C_Write_DAThPKth+0x58>
     268:	0000050c 	.word	0x0000050c

0000026c <_Z11HT1632C_clrv>:

void HT1632C_clr(void)  //Clear function
{
     26c:	b570      	push	{r4, r5, r6, lr}
inline void WRdata(void) { gpiobase->DIRSET= 1<<HT_DATA; }
     26e:	23a3      	movs	r3, #163	; 0xa3
     270:	25a0      	movs	r5, #160	; 0xa0
     272:	2280      	movs	r2, #128	; 0x80
     274:	05ed      	lsls	r5, r5, #23
     276:	00db      	lsls	r3, r3, #3
     278:	0392      	lsls	r2, r2, #14
     27a:	50ea      	str	r2, [r5, r3]
inline void CSon(void) { gpiobase->OUTCLR= 1<<HT_CS; }
     27c:	2280      	movs	r2, #128	; 0x80
     27e:	4b0d      	ldr	r3, [pc, #52]	; (2b4 <_Z11HT1632C_clrv+0x48>)
     280:	0252      	lsls	r2, r2, #9
     282:	50ea      	str	r2, [r5, r3]
  unsigned char i;
  WRdata();
  CSon();
  HT1632C_Write(0xa0,3);
     284:	2103      	movs	r1, #3
     286:	20a0      	movs	r0, #160	; 0xa0
     288:	f7ff ff7a 	bl	180 <_Z13HT1632C_Writehh>
  HT1632C_Write(0x00,7);
     28c:	2107      	movs	r1, #7
     28e:	2000      	movs	r0, #0
     290:	f7ff ff76 	bl	180 <_Z13HT1632C_Writehh>
     294:	2430      	movs	r4, #48	; 0x30
     296:	3c01      	subs	r4, #1
  for(i=0; i<48; i++) {
    HT1632C_Write(0,8);
     298:	2108      	movs	r1, #8
     29a:	2000      	movs	r0, #0
     29c:	b2e4      	uxtb	r4, r4
     29e:	f7ff ff6f 	bl	180 <_Z13HT1632C_Writehh>
  for(i=0; i<48; i++) {
     2a2:	2c00      	cmp	r4, #0
     2a4:	d1f7      	bne.n	296 <_Z11HT1632C_clrv+0x2a>
inline void CSoff(void) { gpiobase->OUTSET= 1<<HT_CS; }
     2a6:	23a1      	movs	r3, #161	; 0xa1
     2a8:	2280      	movs	r2, #128	; 0x80
     2aa:	00db      	lsls	r3, r3, #3
     2ac:	0252      	lsls	r2, r2, #9
     2ae:	50ea      	str	r2, [r5, r3]
  }
  CSoff();
}
     2b0:	bd70      	pop	{r4, r5, r6, pc}
     2b2:	46c0      	nop			; (mov r8, r8)
     2b4:	0000050c 	.word	0x0000050c

000002b8 <_Z12HT1632C_Initv>:

void HT1632C_Init(void) //HT1632C Init Function
{
  gpiobase->OUTSET= 0x00E10000;
     2b8:	23a0      	movs	r3, #160	; 0xa0
     2ba:	22a1      	movs	r2, #161	; 0xa1
     2bc:	21e1      	movs	r1, #225	; 0xe1
  gpiobase->PIN_CNF[HT_CS]= 0x1;
     2be:	20e8      	movs	r0, #232	; 0xe8
{
     2c0:	b510      	push	{r4, lr}
  gpiobase->PIN_CNF[HT_CS]= 0x1;
     2c2:	2401      	movs	r4, #1
  gpiobase->OUTSET= 0x00E10000;
     2c4:	05db      	lsls	r3, r3, #23
     2c6:	00d2      	lsls	r2, r2, #3
     2c8:	0409      	lsls	r1, r1, #16
  gpiobase->PIN_CNF[HT_CS]= 0x1;
     2ca:	00c0      	lsls	r0, r0, #3
  gpiobase->OUTSET= 0x00E10000;
     2cc:	5099      	str	r1, [r3, r2]
  gpiobase->PIN_CNF[HT_CS]= 0x1;
     2ce:	501c      	str	r4, [r3, r0]
  gpiobase->PIN_CNF[HT_RD]= 0x1;
     2d0:	3018      	adds	r0, #24
     2d2:	501c      	str	r4, [r3, r0]
  gpiobase->PIN_CNF[HT_WR]= 0x1;
     2d4:	480d      	ldr	r0, [pc, #52]	; (30c <_Z12HT1632C_Initv+0x54>)
     2d6:	501c      	str	r4, [r3, r0]
  gpiobase->PIN_CNF[HT_DATA]= 0x1;
     2d8:	480d      	ldr	r0, [pc, #52]	; (310 <_Z12HT1632C_Initv+0x58>)
     2da:	501c      	str	r4, [r3, r0]
  gpiobase->OUTSET= 0x00E10000;
     2dc:	5099      	str	r1, [r3, r2]
  HT1632C_Write_CMD(SYS_DIS);         //Close the HT1632C internal clock
     2de:	2000      	movs	r0, #0
     2e0:	f7ff ff6c 	bl	1bc <_Z17HT1632C_Write_CMDh>
  HT1632C_Write_CMD(COM_OPTION);      //Select HT1632C work mode
     2e4:	2024      	movs	r0, #36	; 0x24
     2e6:	f7ff ff69 	bl	1bc <_Z17HT1632C_Write_CMDh>
  HT1632C_Write_CMD(RC_MASTER_MODE);  //Select internal clock
     2ea:	2018      	movs	r0, #24
     2ec:	f7ff ff66 	bl	1bc <_Z17HT1632C_Write_CMDh>
  HT1632C_Write_CMD(SYS_EN);          //Open the HT1632C internal clock
     2f0:	0020      	movs	r0, r4
     2f2:	f7ff ff63 	bl	1bc <_Z17HT1632C_Write_CMDh>
  HT1632C_Write_CMD(PWM_DUTY);        //Init the PWM Brightness
     2f6:	20af      	movs	r0, #175	; 0xaf
     2f8:	f7ff ff60 	bl	1bc <_Z17HT1632C_Write_CMDh>
  HT1632C_Write_CMD(BLINK_OFF);       //Close blink
     2fc:	2008      	movs	r0, #8
     2fe:	f7ff ff5d 	bl	1bc <_Z17HT1632C_Write_CMDh>
  HT1632C_Write_CMD(LED_ON);          // Turn on LED display
     302:	2003      	movs	r0, #3
     304:	f7ff ff5a 	bl	1bc <_Z17HT1632C_Write_CMDh>
}
     308:	bd10      	pop	{r4, pc}
     30a:	46c0      	nop			; (mov r8, r8)
     30c:	0000075c 	.word	0x0000075c
     310:	00000754 	.word	0x00000754

00000314 <_Z17HT1632C_Read_DATAh>:

uint16_t HT1632C_Read_DATA(unsigned char Addr)
{
     314:	b5f8      	push	{r3, r4, r5, r6, r7, lr}
inline void WRdata(void) { gpiobase->DIRSET= 1<<HT_DATA; }
     316:	24a0      	movs	r4, #160	; 0xa0
     318:	2780      	movs	r7, #128	; 0x80
     31a:	23a3      	movs	r3, #163	; 0xa3
     31c:	05e4      	lsls	r4, r4, #23
     31e:	03bf      	lsls	r7, r7, #14
     320:	00db      	lsls	r3, r3, #3
     322:	50e7      	str	r7, [r4, r3]
inline void CSon(void) { gpiobase->OUTCLR= 1<<HT_CS; }
     324:	2380      	movs	r3, #128	; 0x80
{
     326:	0006      	movs	r6, r0
inline void CSon(void) { gpiobase->OUTCLR= 1<<HT_CS; }
     328:	4d13      	ldr	r5, [pc, #76]	; (378 <_Z17HT1632C_Read_DATAh+0x64>)
     32a:	025b      	lsls	r3, r3, #9
     32c:	5163      	str	r3, [r4, r5]
  WRdata();
  CSon();
  HT1632C_Write(0xc0,3);
     32e:	2103      	movs	r1, #3
     330:	20c0      	movs	r0, #192	; 0xc0
  HT1632C_Write(Addr<<1,7);
     332:	0076      	lsls	r6, r6, #1
  HT1632C_Write(0xc0,3);
     334:	f7ff ff24 	bl	180 <_Z13HT1632C_Writehh>
  HT1632C_Write(Addr<<1,7);
     338:	b2f0      	uxtb	r0, r6
     33a:	2107      	movs	r1, #7
     33c:	f7ff ff20 	bl	180 <_Z13HT1632C_Writehh>
inline void RDdata(void) { gpiobase->DIRCLR= 1<<HT_DATA; }
     340:	4b0e      	ldr	r3, [pc, #56]	; (37c <_Z17HT1632C_Read_DATAh+0x68>)
inline void RDon(void) { gpiobase->OUTCLR= 1<<HT_RD; }
     342:	2280      	movs	r2, #128	; 0x80
  RDdata();
  uint16_t datum= 0;
  for(unsigned char i=0; i<12; i++) {
    RDon();
    datum<<=1;
    datum|= (gpiobase->IN & (1<<HT_DATA))>>(HT_DATA-4);
     344:	21a2      	movs	r1, #162	; 0xa2
inline void RDdata(void) { gpiobase->DIRCLR= 1<<HT_DATA; }
     346:	50e7      	str	r7, [r4, r3]
  uint16_t datum= 0;
     348:	2000      	movs	r0, #0
inline void RDdata(void) { gpiobase->DIRCLR= 1<<HT_DATA; }
     34a:	230c      	movs	r3, #12
inline void RDon(void) { gpiobase->OUTCLR= 1<<HT_RD; }
     34c:	03d2      	lsls	r2, r2, #15
    datum|= (gpiobase->IN & (1<<HT_DATA))>>(HT_DATA-4);
     34e:	00c9      	lsls	r1, r1, #3
     350:	2710      	movs	r7, #16
inline void RDon(void) { gpiobase->OUTCLR= 1<<HT_RD; }
     352:	5162      	str	r2, [r4, r5]
    datum<<=1;
     354:	0040      	lsls	r0, r0, #1
     356:	b286      	uxth	r6, r0
    datum|= (gpiobase->IN & (1<<HT_DATA))>>(HT_DATA-4);
     358:	5860      	ldr	r0, [r4, r1]
     35a:	3b01      	subs	r3, #1
     35c:	0c40      	lsrs	r0, r0, #17
     35e:	4038      	ands	r0, r7
     360:	4330      	orrs	r0, r6
inline void RDoff(void) { gpiobase->OUTSET= 1<<HT_RD; }
     362:	26a1      	movs	r6, #161	; 0xa1
     364:	b2db      	uxtb	r3, r3
     366:	00f6      	lsls	r6, r6, #3
     368:	51a2      	str	r2, [r4, r6]
  for(unsigned char i=0; i<12; i++) {
     36a:	2b00      	cmp	r3, #0
     36c:	d1f0      	bne.n	350 <_Z17HT1632C_Read_DATAh+0x3c>
inline void CSoff(void) { gpiobase->OUTSET= 1<<HT_CS; }
     36e:	2380      	movs	r3, #128	; 0x80
     370:	025b      	lsls	r3, r3, #9
     372:	51a3      	str	r3, [r4, r6]
    RDoff();
  }
  CSoff();
  return datum;
}
     374:	bdf8      	pop	{r3, r4, r5, r6, r7, pc}
     376:	46c0      	nop			; (mov r8, r8)
     378:	0000050c 	.word	0x0000050c
     37c:	0000051c 	.word	0x0000051c

00000380 <_Z21HT1632C_Write_PatternPKt>:

void HT1632C_Write_Pattern(const uint16_t pattern[])
{
     380:	b570      	push	{r4, r5, r6, lr}
     382:	0005      	movs	r5, r0
  for (int col=0; col<12; col++) {
     384:	2400      	movs	r4, #0
    HT1632C_Write_DAT(com[col],pattern,col);
     386:	4b05      	ldr	r3, [pc, #20]	; (39c <_Z21HT1632C_Write_PatternPKt+0x1c>)
     388:	b2e2      	uxtb	r2, r4
     38a:	5ce0      	ldrb	r0, [r4, r3]
     38c:	0029      	movs	r1, r5
  for (int col=0; col<12; col++) {
     38e:	3401      	adds	r4, #1
    HT1632C_Write_DAT(com[col],pattern,col);
     390:	f7ff ff30 	bl	1f4 <_Z17HT1632C_Write_DAThPKth>
  for (int col=0; col<12; col++) {
     394:	2c0c      	cmp	r4, #12
     396:	d1f6      	bne.n	386 <_Z21HT1632C_Write_PatternPKt+0x6>
  }
}
     398:	bd70      	pop	{r4, r5, r6, pc}
     39a:	46c0      	nop			; (mov r8, r8)
     39c:	0000103c 	.word	0x0000103c

000003a0 <_Z20HT1632C_Read_PatternPt>:

void HT1632C_Read_Pattern(uint16_t pattern[])
{
     3a0:	b570      	push	{r4, r5, r6, lr}
     3a2:	0005      	movs	r5, r0
  for (int col=0; col<12; col++) {
     3a4:	2400      	movs	r4, #0
    pattern[col]= HT1632C_Read_DATA(com[col]);
     3a6:	4b05      	ldr	r3, [pc, #20]	; (3bc <_Z20HT1632C_Read_PatternPt+0x1c>)
     3a8:	5ce0      	ldrb	r0, [r4, r3]
     3aa:	f7ff ffb3 	bl	314 <_Z17HT1632C_Read_DATAh>
     3ae:	0063      	lsls	r3, r4, #1
  for (int col=0; col<12; col++) {
     3b0:	3401      	adds	r4, #1
    pattern[col]= HT1632C_Read_DATA(com[col]);
     3b2:	52e8      	strh	r0, [r5, r3]
  for (int col=0; col<12; col++) {
     3b4:	2c0c      	cmp	r4, #12
     3b6:	d1f6      	bne.n	3a6 <_Z20HT1632C_Read_PatternPt+0x6>
  }
}
     3b8:	bd70      	pop	{r4, r5, r6, pc}
     3ba:	46c0      	nop			; (mov r8, r8)
     3bc:	0000103c 	.word	0x0000103c

000003c0 <_Z12printpatternPKt>:
  cereal.putreg(&NRF_RTC1->INTENCLR, "NRF_RTC1->INTENCLR\t");
  cereal.putreg(&NRF_QDEC->INTENCLR, "NRF_QDEC->INTENCLR\t");
  cereal.putreg(&NRF_LPCOMP->INTENCLR,"NRF_LPCOMP->INTENCLR\t");
}

void printpattern(const uint16_t pattern[]) {
     3c0:	b5f7      	push	{r0, r1, r2, r4, r5, r6, r7, lr}
     3c2:	0007      	movs	r7, r0
  for (int r=16; r-->4; ) {
     3c4:	2410      	movs	r4, #16
     3c6:	3c01      	subs	r4, #1
     3c8:	2c03      	cmp	r4, #3
     3ca:	d018      	beq.n	3fe <_Z12printpatternPKt+0x3e>
     3cc:	2301      	movs	r3, #1
     3ce:	40a3      	lsls	r3, r4
     3d0:	9300      	str	r3, [sp, #0]
     3d2:	003b      	movs	r3, r7
     3d4:	003d      	movs	r5, r7
     3d6:	3318      	adds	r3, #24
     3d8:	9301      	str	r3, [sp, #4]
    for (int c=0; c<12; c++) {
      cereal.puts(pattern[c]&(1<<r)? "#":".");
     3da:	882b      	ldrh	r3, [r5, #0]
     3dc:	9a00      	ldr	r2, [sp, #0]
     3de:	4908      	ldr	r1, [pc, #32]	; (400 <_Z12printpatternPKt+0x40>)
     3e0:	421a      	tst	r2, r3
     3e2:	d100      	bne.n	3e6 <_Z12printpatternPKt+0x26>
     3e4:	4907      	ldr	r1, [pc, #28]	; (404 <_Z12printpatternPKt+0x44>)
     3e6:	4e08      	ldr	r6, [pc, #32]	; (408 <_Z12printpatternPKt+0x48>)
     3e8:	3502      	adds	r5, #2
     3ea:	0030      	movs	r0, r6
     3ec:	f000 fc26 	bl	c3c <_ZN6Cereal4putsEPKc>
    for (int c=0; c<12; c++) {
     3f0:	9b01      	ldr	r3, [sp, #4]
     3f2:	429d      	cmp	r5, r3
     3f4:	d1f1      	bne.n	3da <_Z12printpatternPKt+0x1a>
    }
    cereal.crlf();
     3f6:	0030      	movs	r0, r6
     3f8:	f000 f870 	bl	4dc <_ZN6Cereal4crlfEv>
  for (int r=16; r-->4; ) {
     3fc:	e7e3      	b.n	3c6 <_Z12printpatternPKt+0x6>
  }
}
     3fe:	bdf7      	pop	{r0, r1, r2, r4, r5, r6, r7, pc}
     400:	0002a925 	.word	0x0002a925
     404:	0002a927 	.word	0x0002a927
     408:	20000090 	.word	0x20000090

0000040c <main>:

int main(void) {
  NRF_GPIO_Type *gpiobase= (NRF_GPIO_Type *)NRF_GPIO_BASE;

  cereal.baud(115200);
     40c:	21e1      	movs	r1, #225	; 0xe1
int main(void) {
     40e:	b5f8      	push	{r3, r4, r5, r6, r7, lr}
  cereal.baud(115200);
     410:	4d1e      	ldr	r5, [pc, #120]	; (48c <main+0x80>)
     412:	0249      	lsls	r1, r1, #9
     414:	0028      	movs	r0, r5
     416:	f000 fc80 	bl	d1a <_ZN4mbed10SerialBase4baudEi>
  //cereal.putreg(&gpiobase->IN, "In   ");

  //cereal.puts("Ja! Beiherhundt das oder die Flipperwaldt gersput!\r\n");
  //putIRQenables();

  unsigned int ofs=0;
     41a:	2400      	movs	r4, #0
  HT1632C_Init();
     41c:	f7ff ff4c 	bl	2b8 <_Z12HT1632C_Initv>
  HT1632C_clr();
     420:	f7ff ff24 	bl	26c <_Z11HT1632C_clrv>
 considered_harmful:
  WriteGlyph(glyph[ofs]);
     424:	2012      	movs	r0, #18
     426:	2603      	movs	r6, #3

  cereal.crlf();
  cereal.putdigits(ofs,10);
  cereal.crlf();
     428:	2700      	movs	r7, #0
  WriteGlyph(glyph[ofs]);
     42a:	4360      	muls	r0, r4
     42c:	4b18      	ldr	r3, [pc, #96]	; (490 <main+0x84>)
     42e:	4366      	muls	r6, r4
     430:	18c0      	adds	r0, r0, r3
     432:	f000 fbea 	bl	c0a <_Z10WriteGlyphPKh>
  cereal.crlf();
     436:	0028      	movs	r0, r5
     438:	f000 f850 	bl	4dc <_ZN6Cereal4crlfEv>
  cereal.putdigits(ofs,10);
     43c:	2301      	movs	r3, #1
     43e:	220a      	movs	r2, #10
     440:	0021      	movs	r1, r4
     442:	0028      	movs	r0, r5
     444:	f000 fc27 	bl	c96 <_ZN6Cereal9putdigitsEmjj>
  cereal.crlf();
     448:	0028      	movs	r0, r5
     44a:	f000 f847 	bl	4dc <_ZN6Cereal4crlfEv>
     44e:	4b11      	ldr	r3, [pc, #68]	; (494 <main+0x88>)
     450:	18f6      	adds	r6, r6, r3
  for (int b=0; b<3; cereal.puthex(charcode[ofs][b++],2));
     452:	5df1      	ldrb	r1, [r6, r7]
     454:	2202      	movs	r2, #2
     456:	0028      	movs	r0, r5
     458:	3701      	adds	r7, #1
     45a:	f000 fbfb 	bl	c54 <_ZN6Cereal6puthexEmj>
     45e:	2f03      	cmp	r7, #3
     460:	d1f7      	bne.n	452 <main+0x46>
  cereal.crlf();
     462:	0028      	movs	r0, r5
     464:	f000 f83a 	bl	4dc <_ZN6Cereal4crlfEv>
  ++ofs;
     468:	1c60      	adds	r0, r4, #1
  ofs%=8105;
     46a:	490b      	ldr	r1, [pc, #44]	; (498 <main+0x8c>)
     46c:	f000 fb10 	bl	a90 <__aeabi_uidivmod>

  HT1632C_Read_Pattern(readpattern);
     470:	4e0a      	ldr	r6, [pc, #40]	; (49c <main+0x90>)
  ofs%=8105;
     472:	000c      	movs	r4, r1
  HT1632C_Read_Pattern(readpattern);
     474:	0030      	movs	r0, r6
     476:	f7ff ff93 	bl	3a0 <_Z20HT1632C_Read_PatternPt>
  printpattern(readpattern);
     47a:	0030      	movs	r0, r6
     47c:	f7ff ffa0 	bl	3c0 <_Z12printpatternPKt>

  delay(1<<20);
     480:	2080      	movs	r0, #128	; 0x80
     482:	0340      	lsls	r0, r0, #13
     484:	f000 fbcb 	bl	c1e <_Z5delaym>

  //cereal.putreg(&gpiobase->DIR, "Dir  ");
  //cereal.putreg(&gpiobase->IN, "In   ");

  goto considered_harmful;
     488:	e7cc      	b.n	424 <main+0x18>
     48a:	46c0      	nop			; (mov r8, r8)
     48c:	20000090 	.word	0x20000090
     490:	00006f43 	.word	0x00006f43
     494:	00001048 	.word	0x00001048
     498:	00001fa9 	.word	0x00001fa9
     49c:	200000f0 	.word	0x200000f0

000004a0 <_GLOBAL__sub_I_cereal>:
}
     4a0:	b510      	push	{r4, lr}
Cereal cereal(USBTX, USBRX);
     4a2:	4c06      	ldr	r4, [pc, #24]	; (4bc <_GLOBAL__sub_I_cereal+0x1c>)
     4a4:	2219      	movs	r2, #25
     4a6:	2118      	movs	r1, #24
     4a8:	0020      	movs	r0, r4
     4aa:	f000 f80d 	bl	4c8 <_ZN6CerealC1E7PinNameS0_>
     4ae:	4a04      	ldr	r2, [pc, #16]	; (4c0 <_GLOBAL__sub_I_cereal+0x20>)
     4b0:	4904      	ldr	r1, [pc, #16]	; (4c4 <_GLOBAL__sub_I_cereal+0x24>)
     4b2:	0020      	movs	r0, r4
     4b4:	f000 fd04 	bl	ec0 <__aeabi_atexit>
}
     4b8:	bd10      	pop	{r4, pc}
     4ba:	46c0      	nop			; (mov r8, r8)
     4bc:	20000090 	.word	0x20000090
     4c0:	20000000 	.word	0x20000000
     4c4:	00000c1d 	.word	0x00000c1d

000004c8 <_ZN6CerealC1E7PinNameS0_>:
 * Licensed under the Apache License 2.0
 */

#include <cereal.h>

Cereal::Cereal(PinName tx, PinName rx) : mbed::SerialBase(tx, rx) {}
     4c8:	b510      	push	{r4, lr}
     4ca:	0004      	movs	r4, r0
     4cc:	f000 f80e 	bl	4ec <_ZN4mbed10SerialBaseC1E7PinNameS1_>
     4d0:	4b01      	ldr	r3, [pc, #4]	; (4d8 <_ZN6CerealC1E7PinNameS0_+0x10>)
     4d2:	0020      	movs	r0, r4
     4d4:	6023      	str	r3, [r4, #0]
     4d6:	bd10      	pop	{r4, pc}
     4d8:	00000f1c 	.word	0x00000f1c

000004dc <_ZN6Cereal4crlfEv>:
  puts("  ");
  puthex(*ptr,8);
  crlf();
}

void Cereal::crlf(void) {
     4dc:	b510      	push	{r4, lr}
  puts("\r\n");  
     4de:	4902      	ldr	r1, [pc, #8]	; (4e8 <_ZN6Cereal4crlfEv+0xc>)
     4e0:	f000 fbac 	bl	c3c <_ZN6Cereal4putsEPKc>
}
     4e4:	bd10      	pop	{r4, pc}
     4e6:	46c0      	nop			; (mov r8, r8)
     4e8:	0002a929 	.word	0x0002a929

000004ec <_ZN4mbed10SerialBaseC1E7PinNameS1_>:
SerialBase::SerialBase(PinName tx, PinName rx) :
#if DEVICE_SERIAL_ASYNCH
                                                 _thunk_irq(this), _tx_usage(DMA_USAGE_NEVER),
                                                 _rx_usage(DMA_USAGE_NEVER),
#endif
                                                _serial(), _baud(9600) {
     4ec:	4b0c      	ldr	r3, [pc, #48]	; (520 <_ZN4mbed10SerialBaseC1E7PinNameS1_+0x34>)
SerialBase::SerialBase(PinName tx, PinName rx) :
     4ee:	b570      	push	{r4, r5, r6, lr}
                                                _serial(), _baud(9600) {
     4f0:	6003      	str	r3, [r0, #0]
     4f2:	2300      	movs	r3, #0
     4f4:	6043      	str	r3, [r0, #4]
     4f6:	6083      	str	r3, [r0, #8]
    /** Attach a static function
     *
     *  @param function The void static function to attach (default is none)
     */
    void attach(R (*function)(void)) {
        _p.function = function;
     4f8:	60c3      	str	r3, [r0, #12]
        _membercaller = 0;
     4fa:	6203      	str	r3, [r0, #32]
        _p.function = function;
     4fc:	6243      	str	r3, [r0, #36]	; 0x24
        _membercaller = 0;
     4fe:	6383      	str	r3, [r0, #56]	; 0x38
     500:	2396      	movs	r3, #150	; 0x96
SerialBase::SerialBase(PinName tx, PinName rx) :
     502:	0004      	movs	r4, r0
                                                _serial(), _baud(9600) {
     504:	019b      	lsls	r3, r3, #6
    serial_init(&_serial, tx, rx);
     506:	1d05      	adds	r5, r0, #4
                                                _serial(), _baud(9600) {
     508:	63c3      	str	r3, [r0, #60]	; 0x3c
    serial_init(&_serial, tx, rx);
     50a:	0028      	movs	r0, r5
     50c:	f000 f8f4 	bl	6f8 <serial_init>
    serial_irq_handler(&_serial, SerialBase::_irq_handler, (uint32_t)this);
     510:	0028      	movs	r0, r5
     512:	0022      	movs	r2, r4
     514:	4903      	ldr	r1, [pc, #12]	; (524 <_ZN4mbed10SerialBaseC1E7PinNameS1_+0x38>)
     516:	f000 f981 	bl	81c <serial_irq_handler>
}
     51a:	0020      	movs	r0, r4
     51c:	bd70      	pop	{r4, r5, r6, pc}
     51e:	46c0      	nop			; (mov r8, r8)
     520:	00000f2c 	.word	0x00000f2c
     524:	00000ce3 	.word	0x00000ce3

00000528 <tmr1_getCounter64>:
 * @return Current RTC1 counter as a 64-bit value with 48-bit precision (even
 *         though the underlying counter is 16-bit)
 */
static inline uint64_t tmr1_getCounter64(void)
{
    NRF_TIMER1->TASKS_CAPTURE[2] = 1;
     528:	2301      	movs	r3, #1
{
     52a:	b510      	push	{r4, lr}
    NRF_TIMER1->TASKS_CAPTURE[2] = 1;
     52c:	4c0d      	ldr	r4, [pc, #52]	; (564 <tmr1_getCounter64+0x3c>)

    \param [in]      IRQn  External interrupt number. Value cannot be negative.
 */
__STATIC_INLINE void NVIC_DisableIRQ(IRQn_Type IRQn)
{
  NVIC->ICER[0] = (1 << ((uint32_t)(IRQn) & 0x1F));
     52e:	490e      	ldr	r1, [pc, #56]	; (568 <tmr1_getCounter64+0x40>)
     530:	64a3      	str	r3, [r4, #72]	; 0x48
     532:	2380      	movs	r3, #128	; 0x80
     534:	009b      	lsls	r3, r3, #2
     536:	67cb      	str	r3, [r1, #124]	; 0x7c

    NVIC_DisableIRQ(TIMER1_IRQn);

    if (NRF_TIMER1->EVENTS_COMPARE[3])
     538:	490c      	ldr	r1, [pc, #48]	; (56c <tmr1_getCounter64+0x44>)
     53a:	4a0d      	ldr	r2, [pc, #52]	; (570 <tmr1_getCounter64+0x48>)
     53c:	6d08      	ldr	r0, [r1, #80]	; 0x50
     53e:	2800      	cmp	r0, #0
     540:	d004      	beq.n	54c <tmr1_getCounter64+0x24>
    {
        NRF_TIMER1->EVENTS_COMPARE[3] = 0;
     542:	2000      	movs	r0, #0
     544:	6508      	str	r0, [r1, #80]	; 0x50
        overflowCount++;
     546:	6811      	ldr	r1, [r2, #0]
     548:	3101      	adds	r1, #1
     54a:	6011      	str	r1, [r2, #0]
  NVIC->ISER[0] = (1 << ((uint32_t)(IRQn) & 0x1F));
     54c:	4909      	ldr	r1, [pc, #36]	; (574 <tmr1_getCounter64+0x4c>)
     54e:	600b      	str	r3, [r1, #0]
    }

    NVIC_EnableIRQ(TIMER1_IRQn);

    return (((uint64_t)(overflowCount)) << 16) | (NRF_TIMER1->CC[2] & MAX_TMR1_COUNTER_VAL);
     550:	23a9      	movs	r3, #169	; 0xa9
     552:	00db      	lsls	r3, r3, #3
     554:	6810      	ldr	r0, [r2, #0]
     556:	58e3      	ldr	r3, [r4, r3]
     558:	0c01      	lsrs	r1, r0, #16
     55a:	b29b      	uxth	r3, r3
     55c:	0400      	lsls	r0, r0, #16
     55e:	4318      	orrs	r0, r3
}
     560:	bd10      	pop	{r4, pc}
     562:	46c0      	nop			; (mov r8, r8)
     564:	40009000 	.word	0x40009000
     568:	e000e104 	.word	0xe000e104
     56c:	400090fc 	.word	0x400090fc
     570:	200000d0 	.word	0x200000d0
     574:	e000e100 	.word	0xe000e100

00000578 <TIMER1_IRQHandler>:
 * @brief Function for handling the RTC1 interrupt.
 *
 * @details Checks for timeouts, and executes timeout handlers for expired timers.
 */
void TIMER1_IRQHandler(void)
{
     578:	b5f8      	push	{r3, r4, r5, r6, r7, lr}
    if (NRF_TIMER1->EVENTS_COMPARE[0])
     57a:	4c0f      	ldr	r4, [pc, #60]	; (5b8 <TIMER1_IRQHandler+0x40>)
     57c:	6c63      	ldr	r3, [r4, #68]	; 0x44
     57e:	2b00      	cmp	r3, #0
     580:	d00f      	beq.n	5a2 <TIMER1_IRQHandler+0x2a>
	{
		NRF_TIMER1->EVENTS_COMPARE[0] = 0;
     582:	2700      	movs	r7, #0
		if (us_ticker_callbackPending && ((int)(us_ticker_callbackTimestamp - tmr1_getCounter()) <= 0)) {
     584:	4e0d      	ldr	r6, [pc, #52]	; (5bc <TIMER1_IRQHandler+0x44>)
		NRF_TIMER1->EVENTS_COMPARE[0] = 0;
     586:	6467      	str	r7, [r4, #68]	; 0x44
		if (us_ticker_callbackPending && ((int)(us_ticker_callbackTimestamp - tmr1_getCounter()) <= 0)) {
     588:	7833      	ldrb	r3, [r6, #0]
     58a:	42bb      	cmp	r3, r7
     58c:	d009      	beq.n	5a2 <TIMER1_IRQHandler+0x2a>
     58e:	4b0c      	ldr	r3, [pc, #48]	; (5c0 <TIMER1_IRQHandler+0x48>)
     590:	681d      	ldr	r5, [r3, #0]
    return tmr1_getCounter64();
     592:	f7ff ffc9 	bl	528 <tmr1_getCounter64>
		if (us_ticker_callbackPending && ((int)(us_ticker_callbackTimestamp - tmr1_getCounter()) <= 0)) {
     596:	1a2d      	subs	r5, r5, r0
     598:	42bd      	cmp	r5, r7
     59a:	dc02      	bgt.n	5a2 <TIMER1_IRQHandler+0x2a>
    us_ticker_callbackPending = false;
     59c:	7037      	strb	r7, [r6, #0]
    us_ticker_irq_handler();
     59e:	f000 f97b 	bl	898 <us_ticker_irq_handler>
			invokeCallback();
		}
	}

    if (NRF_TIMER1->EVENTS_COMPARE[3]) {
     5a2:	6d23      	ldr	r3, [r4, #80]	; 0x50
     5a4:	2b00      	cmp	r3, #0
     5a6:	d005      	beq.n	5b4 <TIMER1_IRQHandler+0x3c>
        overflowCount++;
     5a8:	4a06      	ldr	r2, [pc, #24]	; (5c4 <TIMER1_IRQHandler+0x4c>)
     5aa:	6813      	ldr	r3, [r2, #0]
     5ac:	3301      	adds	r3, #1
     5ae:	6013      	str	r3, [r2, #0]
        NRF_TIMER1->EVENTS_COMPARE[3] = 0;
     5b0:	2300      	movs	r3, #0
     5b2:	6523      	str	r3, [r4, #80]	; 0x50
    }
}
     5b4:	bdf8      	pop	{r3, r4, r5, r6, r7, pc}
     5b6:	46c0      	nop			; (mov r8, r8)
     5b8:	400090fc 	.word	0x400090fc
     5bc:	20000108 	.word	0x20000108
     5c0:	200000d4 	.word	0x200000d4
     5c4:	200000d0 	.word	0x200000d0

000005c8 <us_ticker_init>:

void us_ticker_init(void)
{
     5c8:	b570      	push	{r4, r5, r6, lr}
    if (us_ticker_inited) {
     5ca:	4d1b      	ldr	r5, [pc, #108]	; (638 <us_ticker_init+0x70>)
     5cc:	7828      	ldrb	r0, [r5, #0]
     5ce:	2800      	cmp	r0, #0
     5d0:	d131      	bne.n	636 <us_ticker_init+0x6e>
	NRF_TIMER1->TASKS_STOP = 1;
     5d2:	2101      	movs	r1, #1
     5d4:	4b19      	ldr	r3, [pc, #100]	; (63c <us_ticker_init+0x74>)
	NRF_CLOCK->EVENTS_HFCLKSTARTED  = 0;
     5d6:	4a1a      	ldr	r2, [pc, #104]	; (640 <us_ticker_init+0x78>)
	NRF_TIMER1->TASKS_STOP = 1;
     5d8:	6059      	str	r1, [r3, #4]
	NRF_CLOCK->EVENTS_HFCLKSTARTED  = 0;
     5da:	6050      	str	r0, [r2, #4]
	NRF_CLOCK->TASKS_HFCLKSTART     = 1;
     5dc:	2080      	movs	r0, #128	; 0x80
     5de:	05c0      	lsls	r0, r0, #23
     5e0:	6001      	str	r1, [r0, #0]
	while (NRF_CLOCK->EVENTS_HFCLKSTARTED == 0) ;
     5e2:	6851      	ldr	r1, [r2, #4]
     5e4:	2900      	cmp	r1, #0
     5e6:	d0fc      	beq.n	5e2 <us_ticker_init+0x1a>
	NRF_TIMER1->MODE      = TIMER_MODE_MODE_Timer;
     5e8:	2200      	movs	r2, #0
     5ea:	4916      	ldr	r1, [pc, #88]	; (644 <us_ticker_init+0x7c>)
	NRF_TIMER1->PRESCALER = 4; 		// Configure for 1MHz operation
     5ec:	20a2      	movs	r0, #162	; 0xa2
	NRF_TIMER1->MODE      = TIMER_MODE_MODE_Timer;
     5ee:	505a      	str	r2, [r3, r1]
	NRF_TIMER1->PRESCALER = 4; 		// Configure for 1MHz operation
     5f0:	2404      	movs	r4, #4
	NRF_TIMER1->TASKS_CLEAR = 1;
     5f2:	2101      	movs	r1, #1
	NRF_TIMER1->PRESCALER = 4; 		// Configure for 1MHz operation
     5f4:	00c0      	lsls	r0, r0, #3
	NRF_TIMER1->TASKS_CLEAR = 1;
     5f6:	60d9      	str	r1, [r3, #12]
	NRF_TIMER1->PRESCALER = 4; 		// Configure for 1MHz operation
     5f8:	501c      	str	r4, [r3, r0]
	NRF_TIMER1->BITMODE   = TIMER_BITMODE_BITMODE_16Bit;
     5fa:	3808      	subs	r0, #8
     5fc:	501a      	str	r2, [r3, r0]
	NRF_TIMER1->CC[3] = 0;
     5fe:	4812      	ldr	r0, [pc, #72]	; (648 <us_ticker_init+0x80>)
{
  if(IRQn < 0) {
    SCB->SHP[_SHP_IDX(IRQn)] = (SCB->SHP[_SHP_IDX(IRQn)] & ~(0xFF << _BIT_SHIFT(IRQn))) |
        (((priority << (8 - __NVIC_PRIO_BITS)) & 0xFF) << _BIT_SHIFT(IRQn)); }
  else {
    NVIC->IP[_IP_IDX(IRQn)] = (NVIC->IP[_IP_IDX(IRQn)] & ~(0xFF << _BIT_SHIFT(IRQn))) |
     600:	26c2      	movs	r6, #194	; 0xc2
     602:	501a      	str	r2, [r3, r0]
	NRF_TIMER1->INTENSET = (TIMER_INTENSET_COMPARE3_Enabled << TIMER_INTENSET_COMPARE3_Pos);
     604:	22c1      	movs	r2, #193	; 0xc1
     606:	2080      	movs	r0, #128	; 0x80
     608:	0092      	lsls	r2, r2, #2
     60a:	0300      	lsls	r0, r0, #12
     60c:	5098      	str	r0, [r3, r2]
    NRF_TIMER1->INTENSET    = TIMER_INTENSET_COMPARE0_Msk;
     60e:	2080      	movs	r0, #128	; 0x80
     610:	0240      	lsls	r0, r0, #9
     612:	5098      	str	r0, [r3, r2]
     614:	4a0d      	ldr	r2, [pc, #52]	; (64c <us_ticker_init+0x84>)
     616:	00b6      	lsls	r6, r6, #2
     618:	5990      	ldr	r0, [r2, r6]
     61a:	4c0d      	ldr	r4, [pc, #52]	; (650 <us_ticker_init+0x88>)
     61c:	4004      	ands	r4, r0
     61e:	20c0      	movs	r0, #192	; 0xc0
     620:	0200      	lsls	r0, r0, #8
     622:	4320      	orrs	r0, r4
     624:	5190      	str	r0, [r2, r6]
  NVIC->ICPR[0] = (1 << ((uint32_t)(IRQn) & 0x1F)); /* Clear pending interrupt */
     626:	24c0      	movs	r4, #192	; 0xc0
     628:	2080      	movs	r0, #128	; 0x80
     62a:	0064      	lsls	r4, r4, #1
     62c:	0080      	lsls	r0, r0, #2
     62e:	5110      	str	r0, [r2, r4]
  NVIC->ISER[0] = (1 << ((uint32_t)(IRQn) & 0x1F));
     630:	6010      	str	r0, [r2, #0]
    NRF_TIMER1->TASKS_START = 1;
     632:	6019      	str	r1, [r3, #0]
        return;
    }

    tmr1_start();
    us_ticker_inited = true;
     634:	7029      	strb	r1, [r5, #0]
}
     636:	bd70      	pop	{r4, r5, r6, pc}
     638:	20000109 	.word	0x20000109
     63c:	40009000 	.word	0x40009000
     640:	400000fc 	.word	0x400000fc
     644:	00000504 	.word	0x00000504
     648:	0000054c 	.word	0x0000054c
     64c:	e000e100 	.word	0xe000e100
     650:	ffff00ff 	.word	0xffff00ff

00000654 <us_ticker_read>:

uint32_t us_ticker_read()
{
    if (!us_ticker_inited) {
     654:	4b04      	ldr	r3, [pc, #16]	; (668 <us_ticker_read+0x14>)
{
     656:	b510      	push	{r4, lr}
    if (!us_ticker_inited) {
     658:	781b      	ldrb	r3, [r3, #0]
     65a:	2b00      	cmp	r3, #0
     65c:	d101      	bne.n	662 <us_ticker_read+0xe>
        us_ticker_init();
     65e:	f7ff ffb3 	bl	5c8 <us_ticker_init>
    }

    return TMR1_UNITS_TO_MICROSECONDS(tmr1_getCounter64());
     662:	f7ff ff61 	bl	528 <tmr1_getCounter64>
}
     666:	bd10      	pop	{r4, pc}
     668:	20000109 	.word	0x20000109

0000066c <us_ticker_set_interrupt>:
 * pending--such as for 'now' or a time in the past,--then the callback is
 * invoked a few ticks later.
 */
void us_ticker_set_interrupt(timestamp_t timestamp)
{
    if (!us_ticker_inited) {
     66c:	4b10      	ldr	r3, [pc, #64]	; (6b0 <us_ticker_set_interrupt+0x44>)
{
     66e:	b570      	push	{r4, r5, r6, lr}
    if (!us_ticker_inited) {
     670:	781b      	ldrb	r3, [r3, #0]
{
     672:	0004      	movs	r4, r0
    if (!us_ticker_inited) {
     674:	2b00      	cmp	r3, #0
     676:	d101      	bne.n	67c <us_ticker_set_interrupt+0x10>
        us_ticker_init();
     678:	f7ff ffa6 	bl	5c8 <us_ticker_init>

    uint32_t newCallbackTime = timestamp;

    /* Check for repeat setup of an existing callback. This is actually not
     * important; the following code should work even without this check. */
    if (us_ticker_callbackPending && (newCallbackTime == us_ticker_callbackTimestamp)) {
     67c:	4d0d      	ldr	r5, [pc, #52]	; (6b4 <us_ticker_set_interrupt+0x48>)
     67e:	4e0e      	ldr	r6, [pc, #56]	; (6b8 <us_ticker_set_interrupt+0x4c>)
     680:	782b      	ldrb	r3, [r5, #0]
     682:	2b00      	cmp	r3, #0
     684:	d002      	beq.n	68c <us_ticker_set_interrupt+0x20>
     686:	6833      	ldr	r3, [r6, #0]
     688:	42a3      	cmp	r3, r4
     68a:	d010      	beq.n	6ae <us_ticker_set_interrupt+0x42>
    return tmr1_getCounter64();
     68c:	f7ff ff4c 	bl	528 <tmr1_getCounter64>

    /* Check for callbacks which are immediately (or will *very* shortly become) pending.
     * Even if they are immediately pending, they are scheduled to trigger a few
     * ticks later. This keeps things simple by invoking the callback from an
     * independent interrupt context. */
    if ((int)(newCallbackTime - tmr1_getCounter()) <= (int)FUZZY_TMR1_TICKS) {
     690:	1a20      	subs	r0, r4, r0
     692:	280a      	cmp	r0, #10
     694:	dc03      	bgt.n	69e <us_ticker_set_interrupt+0x32>
    return tmr1_getCounter64();
     696:	f7ff ff47 	bl	528 <tmr1_getCounter64>
        newCallbackTime = tmr1_getCounter() + FUZZY_TMR1_TICKS;
     69a:	300a      	adds	r0, #10
     69c:	0004      	movs	r4, r0
    }

    us_ticker_callbackTimestamp = newCallbackTime;
    us_ticker_callbackPending = true;
     69e:	2301      	movs	r3, #1
     6a0:	702b      	strb	r3, [r5, #0]
    NRF_TIMER1->CC[0]             = newCallbackTime & MAX_TMR1_COUNTER_VAL;
     6a2:	23a8      	movs	r3, #168	; 0xa8
     6a4:	4a05      	ldr	r2, [pc, #20]	; (6bc <us_ticker_set_interrupt+0x50>)
    us_ticker_callbackTimestamp = newCallbackTime;
     6a6:	6034      	str	r4, [r6, #0]
    NRF_TIMER1->CC[0]             = newCallbackTime & MAX_TMR1_COUNTER_VAL;
     6a8:	00db      	lsls	r3, r3, #3
     6aa:	b2a4      	uxth	r4, r4
     6ac:	50d4      	str	r4, [r2, r3]
    //tmr1_enableCompareInterrupt();
}
     6ae:	bd70      	pop	{r4, r5, r6, pc}
     6b0:	20000109 	.word	0x20000109
     6b4:	20000108 	.word	0x20000108
     6b8:	200000d4 	.word	0x200000d4
     6bc:	40009000 	.word	0x40009000

000006c0 <serial_baud.part.0>:
    if (baudrate<=1200) {
        obj->uart->BAUDRATE = UART_BAUDRATE_BAUDRATE_Baud1200;
        return;
    }

    for (int i = 1; i<17; i++) {
     6c0:	2301      	movs	r3, #1
void serial_baud(serial_t *obj, int baudrate)
     6c2:	b510      	push	{r4, lr}
        if (baudrate<acceptedSpeeds[i][0]) {
     6c4:	4a0a      	ldr	r2, [pc, #40]	; (6f0 <serial_baud.part.0+0x30>)
     6c6:	00dc      	lsls	r4, r3, #3
     6c8:	5914      	ldr	r4, [r2, r4]
     6ca:	428c      	cmp	r4, r1
     6cc:	dd07      	ble.n	6de <serial_baud.part.0+0x1e>
            obj->uart->BAUDRATE = acceptedSpeeds[i - 1][1];
     6ce:	3b01      	subs	r3, #1
     6d0:	00db      	lsls	r3, r3, #3
     6d2:	18d3      	adds	r3, r2, r3
     6d4:	685a      	ldr	r2, [r3, #4]
     6d6:	6801      	ldr	r1, [r0, #0]
     6d8:	4b06      	ldr	r3, [pc, #24]	; (6f4 <serial_baud.part.0+0x34>)
     6da:	50ca      	str	r2, [r1, r3]
            return;
        }
    }
    obj->uart->BAUDRATE = UART_BAUDRATE_BAUDRATE_Baud1M;
}
     6dc:	bd10      	pop	{r4, pc}
    for (int i = 1; i<17; i++) {
     6de:	3301      	adds	r3, #1
     6e0:	2b11      	cmp	r3, #17
     6e2:	d1f0      	bne.n	6c6 <serial_baud.part.0+0x6>
    obj->uart->BAUDRATE = UART_BAUDRATE_BAUDRATE_Baud1M;
     6e4:	2180      	movs	r1, #128	; 0x80
     6e6:	6802      	ldr	r2, [r0, #0]
     6e8:	4b02      	ldr	r3, [pc, #8]	; (6f4 <serial_baud.part.0+0x34>)
     6ea:	0549      	lsls	r1, r1, #21
     6ec:	50d1      	str	r1, [r2, r3]
     6ee:	e7f5      	b.n	6dc <serial_baud.part.0+0x1c>
     6f0:	00000f34 	.word	0x00000f34
     6f4:	00000524 	.word	0x00000524

000006f8 <serial_init>:
void serial_init(serial_t *obj, PinName tx, PinName rx) {
     6f8:	b5f8      	push	{r3, r4, r5, r6, r7, lr}
     6fa:	000f      	movs	r7, r1
     6fc:	0016      	movs	r6, r2
    NRF_GPIO->DIR |= (1 << tx); //TX_PIN_NUMBER);
     6fe:	2201      	movs	r2, #1
    obj->uart = (NRF_UART_Type *)uart;
     700:	4b24      	ldr	r3, [pc, #144]	; (794 <serial_init+0x9c>)
    NRF_GPIO->DIR |= (1 << tx); //TX_PIN_NUMBER);
     702:	40ba      	lsls	r2, r7
    obj->uart = (NRF_UART_Type *)uart;
     704:	6003      	str	r3, [r0, #0]
    NRF_GPIO->DIR |= (1 << tx); //TX_PIN_NUMBER);
     706:	23a0      	movs	r3, #160	; 0xa0
     708:	4c23      	ldr	r4, [pc, #140]	; (798 <serial_init+0xa0>)
     70a:	05db      	lsls	r3, r3, #23
     70c:	5919      	ldr	r1, [r3, r4]
void serial_init(serial_t *obj, PinName tx, PinName rx) {
     70e:	0005      	movs	r5, r0
    NRF_GPIO->DIR |= (1 << tx); //TX_PIN_NUMBER);
     710:	430a      	orrs	r2, r1
     712:	511a      	str	r2, [r3, r4]
    NRF_GPIO->DIR |= (1 << RTS_PIN_NUMBER);
     714:	2280      	movs	r2, #128	; 0x80
     716:	5919      	ldr	r1, [r3, r4]
     718:	0612      	lsls	r2, r2, #24
     71a:	430a      	orrs	r2, r1
    NRF_GPIO->DIR &= ~(1 << rx); //RX_PIN_NUMBER);
     71c:	2101      	movs	r1, #1
     71e:	40b1      	lsls	r1, r6
    NRF_GPIO->DIR |= (1 << RTS_PIN_NUMBER);
     720:	511a      	str	r2, [r3, r4]
    NRF_GPIO->DIR &= ~(1 << rx); //RX_PIN_NUMBER);
     722:	591a      	ldr	r2, [r3, r4]
     724:	438a      	bics	r2, r1
     726:	2196      	movs	r1, #150	; 0x96
     728:	511a      	str	r2, [r3, r4]
    NRF_GPIO->DIR &= ~(1 << CTS_PIN_NUMBER);
     72a:	591a      	ldr	r2, [r3, r4]
     72c:	0189      	lsls	r1, r1, #6
     72e:	0052      	lsls	r2, r2, #1
     730:	0852      	lsrs	r2, r2, #1
     732:	511a      	str	r2, [r3, r4]
     734:	f7ff ffc4 	bl	6c0 <serial_baud.part.0>
{
    // 0: 1 stop bits, 1: 2 stop bits
    // int parity_enable, parity_select;
    switch (parity) {
        case ParityNone:
            obj->uart->CONFIG = 0;
     738:	2200      	movs	r2, #0
    obj->uart->ENABLE        = (UART_ENABLE_ENABLE_Enabled << UART_ENABLE_ENABLE_Pos);
     73a:	2004      	movs	r0, #4
            obj->uart->CONFIG = 0;
     73c:	682b      	ldr	r3, [r5, #0]
     73e:	4917      	ldr	r1, [pc, #92]	; (79c <serial_init+0xa4>)
     740:	505a      	str	r2, [r3, r1]
    obj->uart->ENABLE        = (UART_ENABLE_ENABLE_Enabled << UART_ENABLE_ENABLE_Pos);
     742:	396c      	subs	r1, #108	; 0x6c
     744:	5058      	str	r0, [r3, r1]
    obj->uart->TASKS_STARTTX = 1;
     746:	2101      	movs	r1, #1
     748:	6099      	str	r1, [r3, #8]
    obj->uart->TASKS_STARTRX = 1;
     74a:	6019      	str	r1, [r3, #0]
    obj->uart->EVENTS_RXDRDY = 0;
     74c:	0019      	movs	r1, r3
     74e:	31fc      	adds	r1, #252	; 0xfc
     750:	60ca      	str	r2, [r1, #12]
    obj->uart->TXD = 0;
     752:	4913      	ldr	r1, [pc, #76]	; (7a0 <serial_init+0xa8>)
     754:	505a      	str	r2, [r3, r1]
    obj->index = 0;
     756:	606a      	str	r2, [r5, #4]
    obj->uart->PSELRTS = RTS_PIN_NUMBER;
     758:	3914      	subs	r1, #20
     75a:	321f      	adds	r2, #31
     75c:	505a      	str	r2, [r3, r1]
    obj->uart->PSELTXD = tx; //TX_PIN_NUMBER;
     75e:	4911      	ldr	r1, [pc, #68]	; (7a4 <serial_init+0xac>)
     760:	505f      	str	r7, [r3, r1]
    obj->uart->PSELCTS = CTS_PIN_NUMBER;
     762:	1809      	adds	r1, r1, r0
     764:	505a      	str	r2, [r3, r1]
    obj->uart->PSELRXD = rx; //RX_PIN_NUMBER;
     766:	511e      	str	r6, [r3, r4]
    if (tx != NC) {
     768:	1c7b      	adds	r3, r7, #1
     76a:	d003      	beq.n	774 <serial_init+0x7c>
        pin_mode(tx, PullUp);
     76c:	2103      	movs	r1, #3
     76e:	0038      	movs	r0, r7
     770:	f000 fb82 	bl	e78 <pin_mode>
    if (rx != NC) {
     774:	1c73      	adds	r3, r6, #1
     776:	d003      	beq.n	780 <serial_init+0x88>
        pin_mode(rx, PullUp);
     778:	2103      	movs	r1, #3
     77a:	0030      	movs	r0, r6
     77c:	f000 fb7c 	bl	e78 <pin_mode>
        stdio_uart_inited = 1;
     780:	2201      	movs	r2, #1
     782:	4b09      	ldr	r3, [pc, #36]	; (7a8 <serial_init+0xb0>)
        memcpy(&stdio_uart, obj, sizeof(serial_t));
     784:	0029      	movs	r1, r5
        stdio_uart_inited = 1;
     786:	601a      	str	r2, [r3, #0]
        memcpy(&stdio_uart, obj, sizeof(serial_t));
     788:	4808      	ldr	r0, [pc, #32]	; (7ac <serial_init+0xb4>)
     78a:	3207      	adds	r2, #7
     78c:	f000 fba3 	bl	ed6 <memcpy>
}
     790:	bdf8      	pop	{r3, r4, r5, r6, r7, pc}
     792:	46c0      	nop			; (mov r8, r8)
     794:	40002000 	.word	0x40002000
     798:	00000514 	.word	0x00000514
     79c:	0000056c 	.word	0x0000056c
     7a0:	0000051c 	.word	0x0000051c
     7a4:	0000050c 	.word	0x0000050c
     7a8:	200000e0 	.word	0x200000e0
     7ac:	2000010c 	.word	0x2000010c

000007b0 <serial_baud>:
    if (baudrate<=1200) {
     7b0:	2396      	movs	r3, #150	; 0x96
{
     7b2:	b510      	push	{r4, lr}
    if (baudrate<=1200) {
     7b4:	00db      	lsls	r3, r3, #3
     7b6:	4299      	cmp	r1, r3
     7b8:	dd02      	ble.n	7c0 <serial_baud+0x10>
     7ba:	f7ff ff81 	bl	6c0 <serial_baud.part.0>
}
     7be:	bd10      	pop	{r4, pc}
        obj->uart->BAUDRATE = UART_BAUDRATE_BAUDRATE_Baud1200;
     7c0:	219e      	movs	r1, #158	; 0x9e
     7c2:	6802      	ldr	r2, [r0, #0]
     7c4:	4b01      	ldr	r3, [pc, #4]	; (7cc <serial_baud+0x1c>)
     7c6:	02c9      	lsls	r1, r1, #11
     7c8:	50d1      	str	r1, [r2, r3]
        return;
     7ca:	e7f8      	b.n	7be <serial_baud+0xe>
     7cc:	00000524 	.word	0x00000524

000007d0 <UART0_IRQHandler>:
#endif
void UART0_IRQHandler()
{
    uint32_t irtype = 0;

    if((NRF_UART0->INTENSET & 0x80) && NRF_UART0->EVENTS_TXDRDY) {
     7d0:	23c1      	movs	r3, #193	; 0xc1
     7d2:	4a0e      	ldr	r2, [pc, #56]	; (80c <Heap_Size+0xc>)
     7d4:	009b      	lsls	r3, r3, #2
     7d6:	58d1      	ldr	r1, [r2, r3]
{
     7d8:	b510      	push	{r4, lr}
    if((NRF_UART0->INTENSET & 0x80) && NRF_UART0->EVENTS_TXDRDY) {
     7da:	0609      	lsls	r1, r1, #24
     7dc:	d503      	bpl.n	7e6 <UART0_IRQHandler+0x16>
     7de:	490c      	ldr	r1, [pc, #48]	; (810 <Heap_Size+0x10>)
     7e0:	6a09      	ldr	r1, [r1, #32]
     7e2:	2900      	cmp	r1, #0
     7e4:	d108      	bne.n	7f8 <UART0_IRQHandler+0x28>
        irtype = 1;
    } else if((NRF_UART0->INTENSET & 0x04) && NRF_UART0->EVENTS_RXDRDY) {
     7e6:	58d3      	ldr	r3, [r2, r3]
     7e8:	075b      	lsls	r3, r3, #29
     7ea:	d504      	bpl.n	7f6 <UART0_IRQHandler+0x26>
     7ec:	4b08      	ldr	r3, [pc, #32]	; (810 <Heap_Size+0x10>)
            irq_type = RxIrq;
     7ee:	2100      	movs	r1, #0
    } else if((NRF_UART0->INTENSET & 0x04) && NRF_UART0->EVENTS_RXDRDY) {
     7f0:	68db      	ldr	r3, [r3, #12]
     7f2:	2b00      	cmp	r3, #0
     7f4:	d101      	bne.n	7fa <UART0_IRQHandler+0x2a>
        irtype = 2;
    }
    uart_irq(irtype, 0);
}
     7f6:	bd10      	pop	{r4, pc}
            irq_type = TxIrq;
     7f8:	2101      	movs	r1, #1
    if (serial_irq_ids[index] != 0) {
     7fa:	4b06      	ldr	r3, [pc, #24]	; (814 <Heap_Size+0x14>)
     7fc:	6818      	ldr	r0, [r3, #0]
     7fe:	2800      	cmp	r0, #0
     800:	d0f9      	beq.n	7f6 <UART0_IRQHandler+0x26>
        irq_handler(serial_irq_ids[index], irq_type);
     802:	4b05      	ldr	r3, [pc, #20]	; (818 <Heap_Size+0x18>)
     804:	681b      	ldr	r3, [r3, #0]
     806:	4798      	blx	r3
}
     808:	e7f5      	b.n	7f6 <UART0_IRQHandler+0x26>
     80a:	46c0      	nop			; (mov r8, r8)
     80c:	40002000 	.word	0x40002000
     810:	400020fc 	.word	0x400020fc
     814:	200000dc 	.word	0x200000dc
     818:	200000d8 	.word	0x200000d8

0000081c <serial_irq_handler>:
#ifdef __cplusplus
}
#endif
void serial_irq_handler(serial_t *obj, uart_irq_handler handler, uint32_t id)
{
    irq_handler                = handler;
     81c:	4b03      	ldr	r3, [pc, #12]	; (82c <serial_irq_handler+0x10>)
     81e:	6019      	str	r1, [r3, #0]
    serial_irq_ids[obj->index] = id;
     820:	6843      	ldr	r3, [r0, #4]
     822:	4903      	ldr	r1, [pc, #12]	; (830 <serial_irq_handler+0x14>)
     824:	009b      	lsls	r3, r3, #2
     826:	505a      	str	r2, [r3, r1]
}
     828:	4770      	bx	lr
     82a:	46c0      	nop			; (mov r8, r8)
     82c:	200000d8 	.word	0x200000d8
     830:	200000dc 	.word	0x200000dc

00000834 <serial_putc>:
    return (obj->uart->EVENTS_RXDRDY == 1);
}

int serial_writable(serial_t *obj)
{
    return (obj->uart->EVENTS_TXDRDY == 1);
     834:	6803      	ldr	r3, [r0, #0]
     836:	001a      	movs	r2, r3
     838:	32fc      	adds	r2, #252	; 0xfc
     83a:	6a10      	ldr	r0, [r2, #32]
    while (!serial_writable(obj)) {
     83c:	2801      	cmp	r0, #1
     83e:	d1fc      	bne.n	83a <serial_putc+0x6>
    obj->uart->EVENTS_TXDRDY = 0;
     840:	2000      	movs	r0, #0
     842:	6210      	str	r0, [r2, #32]
    obj->uart->TXD = (uint8_t)c;
     844:	4a01      	ldr	r2, [pc, #4]	; (84c <serial_putc+0x18>)
     846:	b2c9      	uxtb	r1, r1
     848:	5099      	str	r1, [r3, r2]
}
     84a:	4770      	bx	lr
     84c:	0000051c 	.word	0x0000051c

00000850 <Reset_Handler>:
    .type    Reset_Handler, %function
Reset_Handler:
    .fnstart

/* Make sure ALL RAM banks are powered on */
    LDR     R0, =NRF_POWER_RAMON_ADDRESS
     850:	4808      	ldr	r0, [pc, #32]	; (874 <Reset_Handler+0x24>)
    LDR     R2, [R0]
     852:	6802      	ldr	r2, [r0, #0]
    MOVS    R1, #NRF_POWER_RAMON_RAMxON_ONMODE_Msk
     854:	2103      	movs	r1, #3
    ORRS    R2, R1
     856:	430a      	orrs	r2, r1
    STR     R2, [R0]
     858:	6002      	str	r2, [r0, #0]
 *      linker script.
 *      __etext: End of code section, i.e., begin of data sections to copy from.
 *      __data_start__/__data_end__: RAM address range that data should be
 *      copied to. Both must be aligned to 4 bytes boundary.  */

    ldr    r1, =__etext
     85a:	4907      	ldr	r1, [pc, #28]	; (878 <Reset_Handler+0x28>)
    ldr    r2, =__data_start__
     85c:	4a07      	ldr	r2, [pc, #28]	; (87c <Reset_Handler+0x2c>)
    ldr    r3, =__data_end__
     85e:	4b08      	ldr	r3, [pc, #32]	; (880 <Reset_Handler+0x30>)

    subs    r3, r2
     860:	1a9b      	subs	r3, r3, r2
    ble     .LC0
     862:	dd03      	ble.n	86c <Reset_Handler+0x1c>

.LC1:
    subs    r3, 4
     864:	3b04      	subs	r3, #4
    ldr    r0, [r1,r3]
     866:	58c8      	ldr	r0, [r1, r3]
    str    r0, [r2,r3]
     868:	50d0      	str	r0, [r2, r3]
    bgt    .LC1
     86a:	dcfb      	bgt.n	864 <Reset_Handler+0x14>
.LC0:
    
    LDR     R0, =SystemInit
     86c:	4805      	ldr	r0, [pc, #20]	; (884 <Reset_Handler+0x34>)
    BLX     R0
     86e:	4780      	blx	r0
    LDR     R0, =_start
     870:	4805      	ldr	r0, [pc, #20]	; (888 <Reset_Handler+0x38>)
    BX      R0
     872:	4700      	bx	r0
    LDR     R0, =NRF_POWER_RAMON_ADDRESS
     874:	40000524 	.word	0x40000524
    ldr    r1, =__etext
     878:	0002a938 	.word	0x0002a938
    ldr    r2, =__data_start__
     87c:	20000000 	.word	0x20000000
    ldr    r3, =__data_end__
     880:	20000074 	.word	0x20000074
    LDR     R0, =SystemInit
     884:	000008d9 	.word	0x000008d9
    LDR     R0, =_start
     888:	00000109 	.word	0x00000109

0000088c <NMI_Handler>:
/* Dummy Exception Handlers (infinite loops which can be modified) */

    .weak   NMI_Handler
    .type   NMI_Handler, %function
NMI_Handler:
    B       .
     88c:	e7fe      	b.n	88c <NMI_Handler>

0000088e <HardFault_Handler>:


    .weak   HardFault_Handler
    .type   HardFault_Handler, %function
HardFault_Handler:
    B       .
     88e:	e7fe      	b.n	88e <HardFault_Handler>

00000890 <SVC_Handler>:


    .weak   SVC_Handler
    .type   SVC_Handler, %function
SVC_Handler:
    B       .
     890:	e7fe      	b.n	890 <SVC_Handler>

00000892 <PendSV_Handler>:


    .weak   PendSV_Handler
    .type   PendSV_Handler, %function
PendSV_Handler:
    B       .
     892:	e7fe      	b.n	892 <PendSV_Handler>

00000894 <SysTick_Handler>:


    .weak   SysTick_Handler
    .type   SysTick_Handler, %function
SysTick_Handler:
    B       .
     894:	e7fe      	b.n	894 <SysTick_Handler>

00000896 <Default_Handler>:
/* IRQ Handlers */

    .globl  Default_Handler
    .type   Default_Handler, %function
Default_Handler:
    B       .
     896:	e7fe      	b.n	896 <Default_Handler>

00000898 <us_ticker_irq_handler>:
{
    return &us_data;
}

void us_ticker_irq_handler(void)
{
     898:	b510      	push	{r4, lr}
    ticker_irq_handler(&us_data);
     89a:	4802      	ldr	r0, [pc, #8]	; (8a4 <us_ticker_irq_handler+0xc>)
     89c:	f000 faa4 	bl	de8 <ticker_irq_handler>
}
     8a0:	bd10      	pop	{r4, pc}
     8a2:	46c0      	nop			; (mov r8, r8)
     8a4:	00000fbc 	.word	0x00000fbc

000008a8 <gpio_init>:
#include "gpio_api.h"
#include "pinmap.h"

void gpio_init(gpio_t *obj, PinName pin)
{
    obj->pin = pin;
     8a8:	7001      	strb	r1, [r0, #0]
    if (pin == (PinName)NC) {
     8aa:	1c4b      	adds	r3, r1, #1
     8ac:	d00a      	beq.n	8c4 <gpio_init+0x1c>
        return;
    }

    obj->mask = (1ul << pin);
     8ae:	2301      	movs	r3, #1
     8b0:	408b      	lsls	r3, r1
     8b2:	6043      	str	r3, [r0, #4]

    obj->reg_set = &NRF_GPIO->OUTSET;
     8b4:	4b04      	ldr	r3, [pc, #16]	; (8c8 <gpio_init+0x20>)
     8b6:	60c3      	str	r3, [r0, #12]
    obj->reg_clr = &NRF_GPIO->OUTCLR;
     8b8:	4b04      	ldr	r3, [pc, #16]	; (8cc <gpio_init+0x24>)
     8ba:	6103      	str	r3, [r0, #16]
    obj->reg_in  = &NRF_GPIO->IN;
     8bc:	4b04      	ldr	r3, [pc, #16]	; (8d0 <gpio_init+0x28>)
     8be:	6143      	str	r3, [r0, #20]
    obj->reg_dir = &NRF_GPIO->DIR;
     8c0:	4b04      	ldr	r3, [pc, #16]	; (8d4 <gpio_init+0x2c>)
     8c2:	6083      	str	r3, [r0, #8]
}
     8c4:	4770      	bx	lr
     8c6:	46c0      	nop			; (mov r8, r8)
     8c8:	50000508 	.word	0x50000508
     8cc:	5000050c 	.word	0x5000050c
     8d0:	50000510 	.word	0x50000510
     8d4:	50000514 	.word	0x50000514

000008d8 <SystemInit>:
    }
}

static bool is_manual_peripheral_setup_needed(void)
{
    if ((((*(uint32_t *)0xF0000FE0) & 0x000000FF) == 0x1) && (((*(uint32_t *)0xF0000FE4) & 0x0000000F) == 0x0))
     8d8:	4922      	ldr	r1, [pc, #136]	; (964 <SystemInit+0x8c>)
{
     8da:	b510      	push	{r4, lr}
    if ((((*(uint32_t *)0xF0000FE0) & 0x000000FF) == 0x1) && (((*(uint32_t *)0xF0000FE4) & 0x0000000F) == 0x0))
     8dc:	680b      	ldr	r3, [r1, #0]
     8de:	b2db      	uxtb	r3, r3
     8e0:	2b01      	cmp	r3, #1
     8e2:	d10f      	bne.n	904 <SystemInit+0x2c>
     8e4:	4b20      	ldr	r3, [pc, #128]	; (968 <SystemInit+0x90>)
     8e6:	681b      	ldr	r3, [r3, #0]
     8e8:	071b      	lsls	r3, r3, #28
     8ea:	d10b      	bne.n	904 <SystemInit+0x2c>
    {
        if ((((*(uint32_t *)0xF0000FE8) & 0x000000F0) == 0x00) && (((*(uint32_t *)0xF0000FEC) & 0x000000F0) == 0x0))
     8ec:	4b1f      	ldr	r3, [pc, #124]	; (96c <SystemInit+0x94>)
     8ee:	24e0      	movs	r4, #224	; 0xe0
     8f0:	681a      	ldr	r2, [r3, #0]
     8f2:	23f0      	movs	r3, #240	; 0xf0
     8f4:	0010      	movs	r0, r2
     8f6:	4018      	ands	r0, r3
     8f8:	4222      	tst	r2, r4
     8fa:	d128      	bne.n	94e <SystemInit+0x76>
     8fc:	4a1c      	ldr	r2, [pc, #112]	; (970 <SystemInit+0x98>)
     8fe:	6812      	ldr	r2, [r2, #0]
     900:	421a      	tst	r2, r3
     902:	d027      	beq.n	954 <SystemInit+0x7c>
    return false;
}

static bool is_disabled_in_debug_needed(void)
{
    if ((((*(uint32_t *)0xF0000FE0) & 0x000000FF) == 0x1) && (((*(uint32_t *)0xF0000FE4) & 0x0000000F) == 0x0))
     904:	680b      	ldr	r3, [r1, #0]
     906:	b2db      	uxtb	r3, r3
     908:	2b01      	cmp	r3, #1
     90a:	d112      	bne.n	932 <SystemInit+0x5a>
     90c:	4a16      	ldr	r2, [pc, #88]	; (968 <SystemInit+0x90>)
     90e:	6812      	ldr	r2, [r2, #0]
     910:	0712      	lsls	r2, r2, #28
     912:	d10e      	bne.n	932 <SystemInit+0x5a>
    {
        if ((((*(uint32_t *)0xF0000FE8) & 0x000000F0) == 0x40) && (((*(uint32_t *)0xF0000FEC) & 0x000000F0) == 0x0))
     914:	21f0      	movs	r1, #240	; 0xf0
     916:	4a15      	ldr	r2, [pc, #84]	; (96c <SystemInit+0x94>)
     918:	6812      	ldr	r2, [r2, #0]
     91a:	400a      	ands	r2, r1
     91c:	2a40      	cmp	r2, #64	; 0x40
     91e:	d108      	bne.n	932 <SystemInit+0x5a>
     920:	4a13      	ldr	r2, [pc, #76]	; (970 <SystemInit+0x98>)
     922:	6812      	ldr	r2, [r2, #0]
     924:	420a      	tst	r2, r1
     926:	d104      	bne.n	932 <SystemInit+0x5a>
        NRF_MPU->DISABLEINDEBUG = MPU_DISABLEINDEBUG_DISABLEINDEBUG_Disabled << MPU_DISABLEINDEBUG_DISABLEINDEBUG_Pos;
     928:	2180      	movs	r1, #128	; 0x80
     92a:	22c1      	movs	r2, #193	; 0xc1
     92c:	05c9      	lsls	r1, r1, #23
     92e:	00d2      	lsls	r2, r2, #3
     930:	508b      	str	r3, [r1, r2]
    NRF_CLOCK->LFCLKSRC             = (CLOCK_LFCLKSRC_SRC_RC << CLOCK_LFCLKSRC_SRC_Pos);
     932:	2280      	movs	r2, #128	; 0x80
     934:	23a3      	movs	r3, #163	; 0xa3
     936:	2100      	movs	r1, #0
     938:	05d2      	lsls	r2, r2, #23
     93a:	00db      	lsls	r3, r3, #3
     93c:	50d1      	str	r1, [r2, r3]
    NRF_CLOCK->EVENTS_LFCLKSTARTED  = 0;
     93e:	4b0d      	ldr	r3, [pc, #52]	; (974 <SystemInit+0x9c>)
     940:	6099      	str	r1, [r3, #8]
    NRF_CLOCK->TASKS_LFCLKSTART     = 1;
     942:	3101      	adds	r1, #1
     944:	6091      	str	r1, [r2, #8]
    while (NRF_CLOCK->EVENTS_LFCLKSTARTED == 0) {
     946:	689a      	ldr	r2, [r3, #8]
     948:	2a00      	cmp	r2, #0
     94a:	d0fc      	beq.n	946 <SystemInit+0x6e>
}
     94c:	bd10      	pop	{r4, pc}
        if ((((*(uint32_t *)0xF0000FE8) & 0x000000F0) == 0x30) && (((*(uint32_t *)0xF0000FEC) & 0x000000F0) == 0x0))
     94e:	2830      	cmp	r0, #48	; 0x30
     950:	d0d4      	beq.n	8fc <SystemInit+0x24>
     952:	e7d7      	b.n	904 <SystemInit+0x2c>
        *(uint32_t volatile *)0x40000504 = 0xC007FFDF;
     954:	4b08      	ldr	r3, [pc, #32]	; (978 <SystemInit+0xa0>)
     956:	4a09      	ldr	r2, [pc, #36]	; (97c <SystemInit+0xa4>)
     958:	601a      	str	r2, [r3, #0]
        *(uint32_t volatile *)0x40006C18 = 0x00008000;
     95a:	2280      	movs	r2, #128	; 0x80
     95c:	4b08      	ldr	r3, [pc, #32]	; (980 <SystemInit+0xa8>)
     95e:	0212      	lsls	r2, r2, #8
     960:	601a      	str	r2, [r3, #0]
     962:	e7cf      	b.n	904 <SystemInit+0x2c>
     964:	f0000fe0 	.word	0xf0000fe0
     968:	f0000fe4 	.word	0xf0000fe4
     96c:	f0000fe8 	.word	0xf0000fe8
     970:	f0000fec 	.word	0xf0000fec
     974:	400000fc 	.word	0x400000fc
     978:	40000504 	.word	0x40000504
     97c:	c007ffdf 	.word	0xc007ffdf
     980:	40006c18 	.word	0x40006c18

00000984 <__udivsi3>:
     984:	2200      	movs	r2, #0
     986:	0843      	lsrs	r3, r0, #1
     988:	428b      	cmp	r3, r1
     98a:	d374      	bcc.n	a76 <__udivsi3+0xf2>
     98c:	0903      	lsrs	r3, r0, #4
     98e:	428b      	cmp	r3, r1
     990:	d35f      	bcc.n	a52 <__udivsi3+0xce>
     992:	0a03      	lsrs	r3, r0, #8
     994:	428b      	cmp	r3, r1
     996:	d344      	bcc.n	a22 <__udivsi3+0x9e>
     998:	0b03      	lsrs	r3, r0, #12
     99a:	428b      	cmp	r3, r1
     99c:	d328      	bcc.n	9f0 <__udivsi3+0x6c>
     99e:	0c03      	lsrs	r3, r0, #16
     9a0:	428b      	cmp	r3, r1
     9a2:	d30d      	bcc.n	9c0 <__udivsi3+0x3c>
     9a4:	22ff      	movs	r2, #255	; 0xff
     9a6:	0209      	lsls	r1, r1, #8
     9a8:	ba12      	rev	r2, r2
     9aa:	0c03      	lsrs	r3, r0, #16
     9ac:	428b      	cmp	r3, r1
     9ae:	d302      	bcc.n	9b6 <__udivsi3+0x32>
     9b0:	1212      	asrs	r2, r2, #8
     9b2:	0209      	lsls	r1, r1, #8
     9b4:	d065      	beq.n	a82 <__udivsi3+0xfe>
     9b6:	0b03      	lsrs	r3, r0, #12
     9b8:	428b      	cmp	r3, r1
     9ba:	d319      	bcc.n	9f0 <__udivsi3+0x6c>
     9bc:	e000      	b.n	9c0 <__udivsi3+0x3c>
     9be:	0a09      	lsrs	r1, r1, #8
     9c0:	0bc3      	lsrs	r3, r0, #15
     9c2:	428b      	cmp	r3, r1
     9c4:	d301      	bcc.n	9ca <__udivsi3+0x46>
     9c6:	03cb      	lsls	r3, r1, #15
     9c8:	1ac0      	subs	r0, r0, r3
     9ca:	4152      	adcs	r2, r2
     9cc:	0b83      	lsrs	r3, r0, #14
     9ce:	428b      	cmp	r3, r1
     9d0:	d301      	bcc.n	9d6 <__udivsi3+0x52>
     9d2:	038b      	lsls	r3, r1, #14
     9d4:	1ac0      	subs	r0, r0, r3
     9d6:	4152      	adcs	r2, r2
     9d8:	0b43      	lsrs	r3, r0, #13
     9da:	428b      	cmp	r3, r1
     9dc:	d301      	bcc.n	9e2 <__udivsi3+0x5e>
     9de:	034b      	lsls	r3, r1, #13
     9e0:	1ac0      	subs	r0, r0, r3
     9e2:	4152      	adcs	r2, r2
     9e4:	0b03      	lsrs	r3, r0, #12
     9e6:	428b      	cmp	r3, r1
     9e8:	d301      	bcc.n	9ee <__udivsi3+0x6a>
     9ea:	030b      	lsls	r3, r1, #12
     9ec:	1ac0      	subs	r0, r0, r3
     9ee:	4152      	adcs	r2, r2
     9f0:	0ac3      	lsrs	r3, r0, #11
     9f2:	428b      	cmp	r3, r1
     9f4:	d301      	bcc.n	9fa <__udivsi3+0x76>
     9f6:	02cb      	lsls	r3, r1, #11
     9f8:	1ac0      	subs	r0, r0, r3
     9fa:	4152      	adcs	r2, r2
     9fc:	0a83      	lsrs	r3, r0, #10
     9fe:	428b      	cmp	r3, r1
     a00:	d301      	bcc.n	a06 <__udivsi3+0x82>
     a02:	028b      	lsls	r3, r1, #10
     a04:	1ac0      	subs	r0, r0, r3
     a06:	4152      	adcs	r2, r2
     a08:	0a43      	lsrs	r3, r0, #9
     a0a:	428b      	cmp	r3, r1
     a0c:	d301      	bcc.n	a12 <__udivsi3+0x8e>
     a0e:	024b      	lsls	r3, r1, #9
     a10:	1ac0      	subs	r0, r0, r3
     a12:	4152      	adcs	r2, r2
     a14:	0a03      	lsrs	r3, r0, #8
     a16:	428b      	cmp	r3, r1
     a18:	d301      	bcc.n	a1e <__udivsi3+0x9a>
     a1a:	020b      	lsls	r3, r1, #8
     a1c:	1ac0      	subs	r0, r0, r3
     a1e:	4152      	adcs	r2, r2
     a20:	d2cd      	bcs.n	9be <__udivsi3+0x3a>
     a22:	09c3      	lsrs	r3, r0, #7
     a24:	428b      	cmp	r3, r1
     a26:	d301      	bcc.n	a2c <__udivsi3+0xa8>
     a28:	01cb      	lsls	r3, r1, #7
     a2a:	1ac0      	subs	r0, r0, r3
     a2c:	4152      	adcs	r2, r2
     a2e:	0983      	lsrs	r3, r0, #6
     a30:	428b      	cmp	r3, r1
     a32:	d301      	bcc.n	a38 <__udivsi3+0xb4>
     a34:	018b      	lsls	r3, r1, #6
     a36:	1ac0      	subs	r0, r0, r3
     a38:	4152      	adcs	r2, r2
     a3a:	0943      	lsrs	r3, r0, #5
     a3c:	428b      	cmp	r3, r1
     a3e:	d301      	bcc.n	a44 <__udivsi3+0xc0>
     a40:	014b      	lsls	r3, r1, #5
     a42:	1ac0      	subs	r0, r0, r3
     a44:	4152      	adcs	r2, r2
     a46:	0903      	lsrs	r3, r0, #4
     a48:	428b      	cmp	r3, r1
     a4a:	d301      	bcc.n	a50 <__udivsi3+0xcc>
     a4c:	010b      	lsls	r3, r1, #4
     a4e:	1ac0      	subs	r0, r0, r3
     a50:	4152      	adcs	r2, r2
     a52:	08c3      	lsrs	r3, r0, #3
     a54:	428b      	cmp	r3, r1
     a56:	d301      	bcc.n	a5c <__udivsi3+0xd8>
     a58:	00cb      	lsls	r3, r1, #3
     a5a:	1ac0      	subs	r0, r0, r3
     a5c:	4152      	adcs	r2, r2
     a5e:	0883      	lsrs	r3, r0, #2
     a60:	428b      	cmp	r3, r1
     a62:	d301      	bcc.n	a68 <__udivsi3+0xe4>
     a64:	008b      	lsls	r3, r1, #2
     a66:	1ac0      	subs	r0, r0, r3
     a68:	4152      	adcs	r2, r2
     a6a:	0843      	lsrs	r3, r0, #1
     a6c:	428b      	cmp	r3, r1
     a6e:	d301      	bcc.n	a74 <__udivsi3+0xf0>
     a70:	004b      	lsls	r3, r1, #1
     a72:	1ac0      	subs	r0, r0, r3
     a74:	4152      	adcs	r2, r2
     a76:	1a41      	subs	r1, r0, r1
     a78:	d200      	bcs.n	a7c <__udivsi3+0xf8>
     a7a:	4601      	mov	r1, r0
     a7c:	4152      	adcs	r2, r2
     a7e:	4610      	mov	r0, r2
     a80:	4770      	bx	lr
     a82:	e7ff      	b.n	a84 <__udivsi3+0x100>
     a84:	b501      	push	{r0, lr}
     a86:	2000      	movs	r0, #0
     a88:	f000 f806 	bl	a98 <__aeabi_idiv0>
     a8c:	bd02      	pop	{r1, pc}
     a8e:	46c0      	nop			; (mov r8, r8)

00000a90 <__aeabi_uidivmod>:
     a90:	2900      	cmp	r1, #0
     a92:	d0f7      	beq.n	a84 <__udivsi3+0x100>
     a94:	e776      	b.n	984 <__udivsi3>
     a96:	4770      	bx	lr

00000a98 <__aeabi_idiv0>:
     a98:	4770      	bx	lr
     a9a:	46c0      	nop			; (mov r8, r8)

00000a9c <__cxa_atexit>:
     a9c:	b510      	push	{r4, lr}
     a9e:	0004      	movs	r4, r0
     aa0:	4804      	ldr	r0, [pc, #16]	; (ab4 <__cxa_atexit+0x18>)
     aa2:	0013      	movs	r3, r2
     aa4:	2800      	cmp	r0, #0
     aa6:	d004      	beq.n	ab2 <__cxa_atexit+0x16>
     aa8:	000a      	movs	r2, r1
     aaa:	2002      	movs	r0, #2
     aac:	0021      	movs	r1, r4
     aae:	e000      	b.n	ab2 <__cxa_atexit+0x16>
     ab0:	bf00      	nop
     ab2:	bd10      	pop	{r4, pc}
     ab4:	00000000 	.word	0x00000000

00000ab8 <exit>:
     ab8:	4b08      	ldr	r3, [pc, #32]	; (adc <exit+0x24>)
     aba:	b510      	push	{r4, lr}
     abc:	0004      	movs	r4, r0
     abe:	2b00      	cmp	r3, #0
     ac0:	d002      	beq.n	ac8 <exit+0x10>
     ac2:	2100      	movs	r1, #0
     ac4:	e000      	b.n	ac8 <exit+0x10>
     ac6:	bf00      	nop
     ac8:	4b05      	ldr	r3, [pc, #20]	; (ae0 <exit+0x28>)
     aca:	6818      	ldr	r0, [r3, #0]
     acc:	6a83      	ldr	r3, [r0, #40]	; 0x28
     ace:	2b00      	cmp	r3, #0
     ad0:	d000      	beq.n	ad4 <exit+0x1c>
     ad2:	4798      	blx	r3
     ad4:	0020      	movs	r0, r4
     ad6:	f000 f939 	bl	d4c <_exit>
     ada:	46c0      	nop			; (mov r8, r8)
     adc:	00000000 	.word	0x00000000
     ae0:	00001038 	.word	0x00001038

00000ae4 <__libc_init_array>:
     ae4:	b570      	push	{r4, r5, r6, lr}
     ae6:	2600      	movs	r6, #0
     ae8:	4d0c      	ldr	r5, [pc, #48]	; (b1c <__libc_init_array+0x38>)
     aea:	4c0d      	ldr	r4, [pc, #52]	; (b20 <__libc_init_array+0x3c>)
     aec:	1b64      	subs	r4, r4, r5
     aee:	10a4      	asrs	r4, r4, #2
     af0:	42a6      	cmp	r6, r4
     af2:	d109      	bne.n	b08 <__libc_init_array+0x24>
     af4:	2600      	movs	r6, #0
     af6:	f000 fa01 	bl	efc <_init>
     afa:	4d0a      	ldr	r5, [pc, #40]	; (b24 <__libc_init_array+0x40>)
     afc:	4c0a      	ldr	r4, [pc, #40]	; (b28 <__libc_init_array+0x44>)
     afe:	1b64      	subs	r4, r4, r5
     b00:	10a4      	asrs	r4, r4, #2
     b02:	42a6      	cmp	r6, r4
     b04:	d105      	bne.n	b12 <__libc_init_array+0x2e>
     b06:	bd70      	pop	{r4, r5, r6, pc}
     b08:	00b3      	lsls	r3, r6, #2
     b0a:	58eb      	ldr	r3, [r5, r3]
     b0c:	4798      	blx	r3
     b0e:	3601      	adds	r6, #1
     b10:	e7ee      	b.n	af0 <__libc_init_array+0xc>
     b12:	00b3      	lsls	r3, r6, #2
     b14:	58eb      	ldr	r3, [r5, r3]
     b16:	4798      	blx	r3
     b18:	3601      	adds	r6, #1
     b1a:	e7f2      	b.n	b02 <__libc_init_array+0x1e>
     b1c:	20000068 	.word	0x20000068
     b20:	20000068 	.word	0x20000068
     b24:	20000068 	.word	0x20000068
     b28:	20000070 	.word	0x20000070

00000b2c <free>:
     b2c:	b510      	push	{r4, lr}
     b2e:	4b03      	ldr	r3, [pc, #12]	; (b3c <free+0x10>)
     b30:	0001      	movs	r1, r0
     b32:	6818      	ldr	r0, [r3, #0]
     b34:	f000 f804 	bl	b40 <_free_r>
     b38:	bd10      	pop	{r4, pc}
     b3a:	46c0      	nop			; (mov r8, r8)
     b3c:	20000004 	.word	0x20000004

00000b40 <_free_r>:
     b40:	b570      	push	{r4, r5, r6, lr}
     b42:	0005      	movs	r5, r0
     b44:	2900      	cmp	r1, #0
     b46:	d010      	beq.n	b6a <_free_r+0x2a>
     b48:	1f0c      	subs	r4, r1, #4
     b4a:	6823      	ldr	r3, [r4, #0]
     b4c:	2b00      	cmp	r3, #0
     b4e:	da00      	bge.n	b52 <_free_r+0x12>
     b50:	18e4      	adds	r4, r4, r3
     b52:	0028      	movs	r0, r5
     b54:	f000 f9d0 	bl	ef8 <__malloc_lock>
     b58:	4a1d      	ldr	r2, [pc, #116]	; (bd0 <_free_r+0x90>)
     b5a:	6813      	ldr	r3, [r2, #0]
     b5c:	2b00      	cmp	r3, #0
     b5e:	d105      	bne.n	b6c <_free_r+0x2c>
     b60:	6063      	str	r3, [r4, #4]
     b62:	6014      	str	r4, [r2, #0]
     b64:	0028      	movs	r0, r5
     b66:	f000 f9c8 	bl	efa <__malloc_unlock>
     b6a:	bd70      	pop	{r4, r5, r6, pc}
     b6c:	42a3      	cmp	r3, r4
     b6e:	d909      	bls.n	b84 <_free_r+0x44>
     b70:	6821      	ldr	r1, [r4, #0]
     b72:	1860      	adds	r0, r4, r1
     b74:	4283      	cmp	r3, r0
     b76:	d1f3      	bne.n	b60 <_free_r+0x20>
     b78:	6818      	ldr	r0, [r3, #0]
     b7a:	685b      	ldr	r3, [r3, #4]
     b7c:	1841      	adds	r1, r0, r1
     b7e:	6021      	str	r1, [r4, #0]
     b80:	e7ee      	b.n	b60 <_free_r+0x20>
     b82:	0013      	movs	r3, r2
     b84:	685a      	ldr	r2, [r3, #4]
     b86:	2a00      	cmp	r2, #0
     b88:	d001      	beq.n	b8e <_free_r+0x4e>
     b8a:	42a2      	cmp	r2, r4
     b8c:	d9f9      	bls.n	b82 <_free_r+0x42>
     b8e:	6819      	ldr	r1, [r3, #0]
     b90:	1858      	adds	r0, r3, r1
     b92:	42a0      	cmp	r0, r4
     b94:	d10b      	bne.n	bae <_free_r+0x6e>
     b96:	6820      	ldr	r0, [r4, #0]
     b98:	1809      	adds	r1, r1, r0
     b9a:	1858      	adds	r0, r3, r1
     b9c:	6019      	str	r1, [r3, #0]
     b9e:	4282      	cmp	r2, r0
     ba0:	d1e0      	bne.n	b64 <_free_r+0x24>
     ba2:	6810      	ldr	r0, [r2, #0]
     ba4:	6852      	ldr	r2, [r2, #4]
     ba6:	1841      	adds	r1, r0, r1
     ba8:	6019      	str	r1, [r3, #0]
     baa:	605a      	str	r2, [r3, #4]
     bac:	e7da      	b.n	b64 <_free_r+0x24>
     bae:	42a0      	cmp	r0, r4
     bb0:	d902      	bls.n	bb8 <_free_r+0x78>
     bb2:	230c      	movs	r3, #12
     bb4:	602b      	str	r3, [r5, #0]
     bb6:	e7d5      	b.n	b64 <_free_r+0x24>
     bb8:	6821      	ldr	r1, [r4, #0]
     bba:	1860      	adds	r0, r4, r1
     bbc:	4282      	cmp	r2, r0
     bbe:	d103      	bne.n	bc8 <_free_r+0x88>
     bc0:	6810      	ldr	r0, [r2, #0]
     bc2:	6852      	ldr	r2, [r2, #4]
     bc4:	1841      	adds	r1, r0, r1
     bc6:	6021      	str	r1, [r4, #0]
     bc8:	6062      	str	r2, [r4, #4]
     bca:	605c      	str	r4, [r3, #4]
     bcc:	e7ca      	b.n	b64 <_free_r+0x24>
     bce:	46c0      	nop			; (mov r8, r8)
     bd0:	200000ec 	.word	0x200000ec

00000bd4 <_Z11ExpandGlyphPKhPt>:
 * Expand a 12*8 + 6*2*4 glyph into a zero padded 12*16 bitmap
 * The top 8 pixels of each row are stored in a byte array
 * The bottom 4 pixels of each row are stored in a nibble array following the byte array
 */
void ExpandGlyph(const uint8_t glyph[18], uint16_t *bitmap)
{
     bd4:	b5f0      	push	{r4, r5, r6, r7, lr}
     bd6:	0004      	movs	r4, r0
     bd8:	000d      	movs	r5, r1
    for (uint8_t col=0; col<6; col++) {
        uint8_t column= col<<1;      // display column
        uint8_t lsn= glyph[12+col];  // pointer to lower nibble of column data
        uint16_t c0= (glyph[column]<<8) + (lsn & 0xF0);
        uint16_t c1= (glyph[column+1]<<8) + ((lsn << 4) & 0xF0);
     bda:	27ff      	movs	r7, #255	; 0xff
     bdc:	340c      	adds	r4, #12
     bde:	3518      	adds	r5, #24
     be0:	7842      	ldrb	r2, [r0, #1]
        uint8_t lsn= glyph[12+col];  // pointer to lower nibble of column data
     be2:	7823      	ldrb	r3, [r4, #0]
        uint16_t c1= (glyph[column+1]<<8) + ((lsn << 4) & 0xF0);
     be4:	0212      	lsls	r2, r2, #8
     be6:	4694      	mov	ip, r2
        uint16_t c0= (glyph[column]<<8) + (lsn & 0xF0);
     be8:	7806      	ldrb	r6, [r0, #0]
        uint16_t c1= (glyph[column+1]<<8) + ((lsn << 4) & 0xF0);
     bea:	011a      	lsls	r2, r3, #4
        uint16_t c0= (glyph[column]<<8) + (lsn & 0xF0);
     bec:	0236      	lsls	r6, r6, #8
        uint16_t c1= (glyph[column+1]<<8) + ((lsn << 4) & 0xF0);
     bee:	403a      	ands	r2, r7
     bf0:	4462      	add	r2, ip
        uint16_t c0= (glyph[column]<<8) + (lsn & 0xF0);
     bf2:	46b4      	mov	ip, r6
     bf4:	260f      	movs	r6, #15
     bf6:	43b3      	bics	r3, r6
     bf8:	4463      	add	r3, ip
        *bitmap++= c0;
     bfa:	800b      	strh	r3, [r1, #0]
        *bitmap++= c1;
     bfc:	804a      	strh	r2, [r1, #2]
     bfe:	3104      	adds	r1, #4
     c00:	3401      	adds	r4, #1
     c02:	3002      	adds	r0, #2
    for (uint8_t col=0; col<6; col++) {
     c04:	428d      	cmp	r5, r1
     c06:	d1eb      	bne.n	be0 <_Z11ExpandGlyphPKhPt+0xc>
    }
}
     c08:	bdf0      	pop	{r4, r5, r6, r7, pc}

00000c0a <_Z10WriteGlyphPKh>:

/*
 * Send a 12*8 + 6*2*4 glyph to the HT1632C LED driver
 */
void WriteGlyph(const uint8_t glyph[18])
{
     c0a:	b57f      	push	{r0, r1, r2, r3, r4, r5, r6, lr}
    uint16_t bitmap[12];
    ExpandGlyph(glyph, bitmap);
     c0c:	4669      	mov	r1, sp
     c0e:	f7ff ffe1 	bl	bd4 <_Z11ExpandGlyphPKhPt>
    HT1632C_Write_Pattern(bitmap);
     c12:	4668      	mov	r0, sp
     c14:	f7ff fbb4 	bl	380 <_Z21HT1632C_Write_PatternPKt>
}
     c18:	b007      	add	sp, #28
     c1a:	bd00      	pop	{pc}

00000c1c <_ZN6CerealD1Ev>:
/*
 * yotta_modules/mbed-classic/api/SerialBase.h
 */
#include <SerialBase.h>

class Cereal : public mbed::SerialBase
     c1c:	4770      	bx	lr

00000c1e <_Z5delaym>:
void delay(uint32_t count) { for (volatile uint32_t t=count; --t; ); }
     c1e:	b082      	sub	sp, #8
     c20:	9001      	str	r0, [sp, #4]
     c22:	9b01      	ldr	r3, [sp, #4]
     c24:	3b01      	subs	r3, #1
     c26:	9301      	str	r3, [sp, #4]
     c28:	2b00      	cmp	r3, #0
     c2a:	d1fa      	bne.n	c22 <_Z5delaym+0x4>
     c2c:	b002      	add	sp, #8
     c2e:	4770      	bx	lr

00000c30 <_ZN6CerealD0Ev>:
     c30:	b510      	push	{r4, lr}
     c32:	0004      	movs	r4, r0
     c34:	f000 f94b 	bl	ece <_ZdlPv>
     c38:	0020      	movs	r0, r4
     c3a:	bd10      	pop	{r4, pc}

00000c3c <_ZN6Cereal4putsEPKc>:
{
     c3c:	b570      	push	{r4, r5, r6, lr}
     c3e:	0005      	movs	r5, r0
     c40:	000c      	movs	r4, r1
  while (*string) {
     c42:	7821      	ldrb	r1, [r4, #0]
     c44:	2900      	cmp	r1, #0
     c46:	d004      	beq.n	c52 <_ZN6Cereal4putsEPKc+0x16>
      _base_putc(*string++);
     c48:	0028      	movs	r0, r5
     c4a:	3401      	adds	r4, #1
     c4c:	f000 f86d 	bl	d2a <_ZN4mbed10SerialBase10_base_putcEi>
  while (*string) {
     c50:	e7f7      	b.n	c42 <_ZN6Cereal4putsEPKc+0x6>
}
     c52:	bd70      	pop	{r4, r5, r6, pc}

00000c54 <_ZN6Cereal6puthexEmj>:
{
     c54:	b5f7      	push	{r0, r1, r2, r4, r5, r6, r7, lr}
     c56:	0005      	movs	r5, r0
     c58:	2400      	movs	r4, #0
    c+= c<10? '0' : 'A'-10;
     c5a:	2630      	movs	r6, #48	; 0x30
     c5c:	2737      	movs	r7, #55	; 0x37
  while (d < digits || datum) {
     c5e:	42a2      	cmp	r2, r4
     c60:	d801      	bhi.n	c66 <_ZN6Cereal6puthexEmj+0x12>
     c62:	2900      	cmp	r1, #0
     c64:	d00e      	beq.n	c84 <_ZN6Cereal6puthexEmj+0x30>
    char c= datum & 0xF;
     c66:	200f      	movs	r0, #15
     c68:	000b      	movs	r3, r1
     c6a:	4003      	ands	r3, r0
     c6c:	469c      	mov	ip, r3
    c+= c<10? '0' : 'A'-10;
     c6e:	4660      	mov	r0, ip
     c70:	0033      	movs	r3, r6
     c72:	2809      	cmp	r0, #9
     c74:	d900      	bls.n	c78 <_ZN6Cereal6puthexEmj+0x24>
     c76:	003b      	movs	r3, r7
    dig[d++]= c;
     c78:	4668      	mov	r0, sp
    c+= c<10? '0' : 'A'-10;
     c7a:	4463      	add	r3, ip
    dig[d++]= c;
     c7c:	5423      	strb	r3, [r4, r0]
    datum >>= 4;
     c7e:	0909      	lsrs	r1, r1, #4
     c80:	3401      	adds	r4, #1
  while (d < digits || datum) {
     c82:	e7ec      	b.n	c5e <_ZN6Cereal6puthexEmj+0xa>
  while (d-- > 0) {
     c84:	3c01      	subs	r4, #1
     c86:	d305      	bcc.n	c94 <_ZN6Cereal6puthexEmj+0x40>
    _base_putc(dig[d]);
     c88:	466b      	mov	r3, sp
     c8a:	0028      	movs	r0, r5
     c8c:	5ce1      	ldrb	r1, [r4, r3]
     c8e:	f000 f84c 	bl	d2a <_ZN4mbed10SerialBase10_base_putcEi>
  while (d-- > 0) {
     c92:	e7f7      	b.n	c84 <_ZN6Cereal6puthexEmj+0x30>
}
     c94:	bdf7      	pop	{r0, r1, r2, r4, r5, r6, r7, pc}

00000c96 <_ZN6Cereal9putdigitsEmjj>:
{
     c96:	b5f0      	push	{r4, r5, r6, r7, lr}
     c98:	0005      	movs	r5, r0
     c9a:	2400      	movs	r4, #0
     c9c:	0008      	movs	r0, r1
    c+= c<10? '0' : 'A'-10;
     c9e:	2630      	movs	r6, #48	; 0x30
     ca0:	2737      	movs	r7, #55	; 0x37
{
     ca2:	b08b      	sub	sp, #44	; 0x2c
     ca4:	9200      	str	r2, [sp, #0]
     ca6:	9301      	str	r3, [sp, #4]
  while (d < digits || datum) {
     ca8:	9b01      	ldr	r3, [sp, #4]
     caa:	42a3      	cmp	r3, r4
     cac:	d801      	bhi.n	cb2 <_ZN6Cereal9putdigitsEmjj+0x1c>
     cae:	2800      	cmp	r0, #0
     cb0:	d00c      	beq.n	ccc <_ZN6Cereal9putdigitsEmjj+0x36>
     cb2:	9900      	ldr	r1, [sp, #0]
     cb4:	f7ff feec 	bl	a90 <__aeabi_uidivmod>
    c+= c<10? '0' : 'A'-10;
     cb8:	b2ca      	uxtb	r2, r1
     cba:	0033      	movs	r3, r6
     cbc:	2a09      	cmp	r2, #9
     cbe:	d900      	bls.n	cc2 <_ZN6Cereal9putdigitsEmjj+0x2c>
     cc0:	003b      	movs	r3, r7
     cc2:	185b      	adds	r3, r3, r1
    dig[d++]= c;
     cc4:	aa02      	add	r2, sp, #8
     cc6:	54a3      	strb	r3, [r4, r2]
     cc8:	3401      	adds	r4, #1
  while (d < digits || datum) {
     cca:	e7ed      	b.n	ca8 <_ZN6Cereal9putdigitsEmjj+0x12>
  while (d-- > 0) {
     ccc:	3c01      	subs	r4, #1
     cce:	d305      	bcc.n	cdc <_ZN6Cereal9putdigitsEmjj+0x46>
    _base_putc(dig[d]);
     cd0:	ab02      	add	r3, sp, #8
     cd2:	5ce1      	ldrb	r1, [r4, r3]
     cd4:	0028      	movs	r0, r5
     cd6:	f000 f828 	bl	d2a <_ZN4mbed10SerialBase10_base_putcEi>
  while (d-- > 0) {
     cda:	e7f7      	b.n	ccc <_ZN6Cereal9putdigitsEmjj+0x36>
}
     cdc:	b00b      	add	sp, #44	; 0x2c
     cde:	bdf0      	pop	{r4, r5, r6, r7, pc}

00000ce0 <_ZN4mbed10SerialBaseD1Ev>:
#endif

protected:
    SerialBase(PinName tx, PinName rx);
    virtual ~SerialBase() {
    }
     ce0:	4770      	bx	lr

00000ce2 <_ZN4mbed10SerialBase12_irq_handlerEm9SerialIrq>:
    }

    /** Call the attached static or member function
     */
    R call(){
        if (_membercaller == 0 && _p.function) {
     ce2:	2318      	movs	r3, #24
     ce4:	1c4a      	adds	r2, r1, #1
     ce6:	435a      	muls	r2, r3
     ce8:	4359      	muls	r1, r3
     cea:	1882      	adds	r2, r0, r2
     cec:	6892      	ldr	r2, [r2, #8]
     cee:	1843      	adds	r3, r0, r1
    } else {
        serial_irq_set(&_serial, (SerialIrq)type, 0);
    }
}

void SerialBase::_irq_handler(uint32_t id, SerialIrq irq_type) {
     cf0:	b510      	push	{r4, lr}
     cf2:	68db      	ldr	r3, [r3, #12]
     cf4:	2a00      	cmp	r2, #0
     cf6:	d103      	bne.n	d00 <_ZN4mbed10SerialBase12_irq_handlerEm9SerialIrq+0x1e>
     cf8:	2b00      	cmp	r3, #0
     cfa:	d000      	beq.n	cfe <_ZN4mbed10SerialBase12_irq_handlerEm9SerialIrq+0x1c>
            return _p.function();
     cfc:	4798      	blx	r3
    SerialBase *handler = (SerialBase*)id;
    handler->_irq[irq_type].call();
}
     cfe:	bd10      	pop	{r4, pc}
        } else if (_membercaller && _p.object) {
     d00:	2b00      	cmp	r3, #0
     d02:	d0fc      	beq.n	cfe <_ZN4mbed10SerialBase12_irq_handlerEm9SerialIrq+0x1c>
            return _membercaller(_p.object, _member);
     d04:	3110      	adds	r1, #16
     d06:	1841      	adds	r1, r0, r1
     d08:	0018      	movs	r0, r3
     d0a:	4790      	blx	r2
     d0c:	e7f7      	b.n	cfe <_ZN4mbed10SerialBase12_irq_handlerEm9SerialIrq+0x1c>

00000d0e <_ZN4mbed10SerialBaseD0Ev>:
    virtual ~SerialBase() {
     d0e:	b510      	push	{r4, lr}
     d10:	0004      	movs	r4, r0
    }
     d12:	f000 f8dc 	bl	ece <_ZdlPv>
     d16:	0020      	movs	r0, r4
     d18:	bd10      	pop	{r4, pc}

00000d1a <_ZN4mbed10SerialBase4baudEi>:
void SerialBase::baud(int baudrate) {
     d1a:	b570      	push	{r4, r5, r6, lr}
     d1c:	000d      	movs	r5, r1
     d1e:	0004      	movs	r4, r0
    serial_baud(&_serial, baudrate);
     d20:	3004      	adds	r0, #4
     d22:	f7ff fd45 	bl	7b0 <serial_baud>
    _baud = baudrate;
     d26:	63e5      	str	r5, [r4, #60]	; 0x3c
}
     d28:	bd70      	pop	{r4, r5, r6, pc}

00000d2a <_ZN4mbed10SerialBase10_base_putcEi>:

int SerialBase::_base_getc() {
    return serial_getc(&_serial);
}

int SerialBase::_base_putc(int c) {
     d2a:	b510      	push	{r4, lr}
     d2c:	000c      	movs	r4, r1
    serial_putc(&_serial, c);
     d2e:	3004      	adds	r0, #4
     d30:	f7ff fd80 	bl	834 <serial_putc>
    return c;
}
     d34:	0020      	movs	r0, r4
     d36:	bd10      	pop	{r4, pc}

00000d38 <mbed_main>:
// mbed_main(), it is not meant for user code, but for the SDK itself to perform
// initializations before main() is called.

extern "C" WEAK void mbed_main(void);
extern "C" WEAK void mbed_main(void) {
}
     d38:	4770      	bx	lr

00000d3a <mbed_sdk_init>:
     d3a:	4770      	bx	lr

00000d3c <__wrap_main>:
    return $Super$$main();
}
#elif defined(TOOLCHAIN_GCC)
extern "C" int __real_main(void);

extern "C" int __wrap_main(void) {
     d3c:	b510      	push	{r4, lr}
    mbed_sdk_init();
     d3e:	f7ff fffc 	bl	d3a <mbed_sdk_init>
    mbed_main();
     d42:	f7ff fff9 	bl	d38 <mbed_main>
    return __real_main();
     d46:	f7ff fb61 	bl	40c <main>
}
     d4a:	bd10      	pop	{r4, pc}

00000d4c <_exit>:

#ifdef TOOLCHAIN_GCC_CW
// TODO: Ideally, we would like to define directly "_ExitProcess"
extern "C" void mbed_exit(int return_code) {
#elif defined TOOLCHAIN_GCC_ARM
extern "C" void _exit(int return_code) {
     d4c:	b510      	push	{r4, lr}
#if DEVICE_SEMIHOST
    if (mbed_interface_connected()) {
        semihost_exit();
    }
#endif
    if (return_code) {
     d4e:	2800      	cmp	r0, #0
     d50:	d001      	beq.n	d56 <_exit+0xa>
        mbed_die();
     d52:	f000 f813 	bl	d7c <mbed_die>
     d56:	e7fe      	b.n	d56 <_exit+0xa>

00000d58 <wait_us>:

void wait_ms(int ms) {
    wait_us(ms * 1000);
}

void wait_us(int us) {
     d58:	b570      	push	{r4, r5, r6, lr}
     d5a:	0004      	movs	r4, r0
    uint32_t start = us_ticker_read();
     d5c:	f7ff fc7a 	bl	654 <us_ticker_read>
     d60:	0005      	movs	r5, r0
    while ((us_ticker_read() - start) < (uint32_t)us);
     d62:	f7ff fc77 	bl	654 <us_ticker_read>
     d66:	1b40      	subs	r0, r0, r5
     d68:	42a0      	cmp	r0, r4
     d6a:	d3fa      	bcc.n	d62 <wait_us+0xa>
}
     d6c:	bd70      	pop	{r4, r5, r6, pc}

00000d6e <wait_ms>:
    wait_us(ms * 1000);
     d6e:	23fa      	movs	r3, #250	; 0xfa
void wait_ms(int ms) {
     d70:	b510      	push	{r4, lr}
    wait_us(ms * 1000);
     d72:	009b      	lsls	r3, r3, #2
     d74:	4358      	muls	r0, r3
     d76:	f7ff ffef 	bl	d58 <wait_us>
}
     d7a:	bd10      	pop	{r4, pc}

00000d7c <mbed_die>:
#include "gpio_api.h"
#include "wait_api.h"
#include "toolchain.h"
#include "mbed_interface.h"

WEAK void mbed_die(void) {
     d7c:	b510      	push	{r4, lr}
     d7e:	b09a      	sub	sp, #104	; 0x68
	__disable_irq();	// dont allow interrupts to disturb the flash pattern
#endif
#if   (DEVICE_ERROR_RED == 1)
    gpio_t led_red; gpio_init_out(&led_red, LED_RED);
#elif (DEVICE_ERROR_PATTERN == 1)
    gpio_t led_1; gpio_init_out(&led_1, LED1);
     d80:	2103      	movs	r1, #3
     d82:	a802      	add	r0, sp, #8
     d84:	f000 f873 	bl	e6e <gpio_init_out>
    gpio_t led_2; gpio_init_out(&led_2, LED2);
     d88:	2102      	movs	r1, #2
     d8a:	a808      	add	r0, sp, #32
     d8c:	f000 f86f 	bl	e6e <gpio_init_out>
    gpio_t led_3; gpio_init_out(&led_3, LED3);
     d90:	2101      	movs	r1, #1
     d92:	a80e      	add	r0, sp, #56	; 0x38
     d94:	f000 f86b 	bl	e6e <gpio_init_out>
    gpio_t led_4; gpio_init_out(&led_4, LED4);
     d98:	2110      	movs	r1, #16
     d9a:	a814      	add	r0, sp, #80	; 0x50
     d9c:	f000 f867 	bl	e6e <gpio_init_out>
        gpio_write(&led_2, 0);
        gpio_write(&led_3, 0);
        gpio_write(&led_4, 1);
#endif

        wait_ms(150);
     da0:	2496      	movs	r4, #150	; 0x96
} gpio_t;

static inline void gpio_write(gpio_t *obj, int value) {
    MBED_ASSERT(obj->pin != (PinName)NC);
    if (value)
        *obj->reg_set = obj->mask;
     da2:	9b05      	ldr	r3, [sp, #20]
     da4:	9a03      	ldr	r2, [sp, #12]
     da6:	0020      	movs	r0, r4
     da8:	601a      	str	r2, [r3, #0]
    else
        *obj->reg_clr = obj->mask;
     daa:	9a09      	ldr	r2, [sp, #36]	; 0x24
     dac:	9b0c      	ldr	r3, [sp, #48]	; 0x30
     dae:	601a      	str	r2, [r3, #0]
     db0:	9a0f      	ldr	r2, [sp, #60]	; 0x3c
     db2:	9b12      	ldr	r3, [sp, #72]	; 0x48
     db4:	601a      	str	r2, [r3, #0]
        *obj->reg_set = obj->mask;
     db6:	9a15      	ldr	r2, [sp, #84]	; 0x54
     db8:	9b17      	ldr	r3, [sp, #92]	; 0x5c
     dba:	9201      	str	r2, [sp, #4]
     dbc:	601a      	str	r2, [r3, #0]
     dbe:	f7ff ffd6 	bl	d6e <wait_ms>
        *obj->reg_clr = obj->mask;
     dc2:	9b06      	ldr	r3, [sp, #24]
     dc4:	9a03      	ldr	r2, [sp, #12]
        gpio_write(&led_2, 1);
        gpio_write(&led_3, 1);
        gpio_write(&led_4, 0);
#endif

        wait_ms(150);
     dc6:	0020      	movs	r0, r4
     dc8:	601a      	str	r2, [r3, #0]
        *obj->reg_set = obj->mask;
     dca:	9a09      	ldr	r2, [sp, #36]	; 0x24
     dcc:	9b0b      	ldr	r3, [sp, #44]	; 0x2c
     dce:	601a      	str	r2, [r3, #0]
     dd0:	9a0f      	ldr	r2, [sp, #60]	; 0x3c
     dd2:	9b11      	ldr	r3, [sp, #68]	; 0x44
     dd4:	9201      	str	r2, [sp, #4]
     dd6:	601a      	str	r2, [r3, #0]
        *obj->reg_clr = obj->mask;
     dd8:	9a15      	ldr	r2, [sp, #84]	; 0x54
     dda:	9b18      	ldr	r3, [sp, #96]	; 0x60
     ddc:	601a      	str	r2, [r3, #0]
     dde:	f7ff ffc6 	bl	d6e <wait_ms>
     de2:	e7de      	b.n	da2 <mbed_die+0x26>

00000de4 <us_ticker_disable_interrupt>:
{
    //if (us_ticker_callbackPending) {
    //    //tmr1_disableCompareInterrupt();
    //    us_ticker_callbackPending = false;
    //}
}
     de4:	4770      	bx	lr

00000de6 <us_ticker_clear_interrupt>:
     de6:	4770      	bx	lr

00000de8 <ticker_irq_handler>:

    data->queue->event_handler = handler;
}

void ticker_irq_handler(const ticker_data_t *const data) {
    data->interface->clear_interrupt();
     de8:	6803      	ldr	r3, [r0, #0]
void ticker_irq_handler(const ticker_data_t *const data) {
     dea:	b570      	push	{r4, r5, r6, lr}
    data->interface->clear_interrupt();
     dec:	68db      	ldr	r3, [r3, #12]
void ticker_irq_handler(const ticker_data_t *const data) {
     dee:	0004      	movs	r4, r0
    data->interface->clear_interrupt();
     df0:	4798      	blx	r3

    /* Go through all the pending TimerEvents */
    while (1) {
        if (data->queue->head == NULL) {
     df2:	6863      	ldr	r3, [r4, #4]
     df4:	685a      	ldr	r2, [r3, #4]
     df6:	6823      	ldr	r3, [r4, #0]
     df8:	2a00      	cmp	r2, #0
     dfa:	d102      	bne.n	e02 <ticker_irq_handler+0x1a>
            // There are no more TimerEvents left, so disable matches.
            data->interface->disable_interrupt();
     dfc:	689b      	ldr	r3, [r3, #8]
     dfe:	4798      	blx	r3
            //      set it as next interrupt and return
            data->interface->set_interrupt(data->queue->head->timestamp);
            return;
        }
    }
}
     e00:	bd70      	pop	{r4, r5, r6, pc}
        if ((int)(data->queue->head->timestamp - data->interface->read()) <= 0) {
     e02:	685b      	ldr	r3, [r3, #4]
     e04:	6815      	ldr	r5, [r2, #0]
     e06:	4798      	blx	r3
     e08:	6863      	ldr	r3, [r4, #4]
     e0a:	1a2d      	subs	r5, r5, r0
            ticker_event_t *p = data->queue->head;
     e0c:	685a      	ldr	r2, [r3, #4]
        if ((int)(data->queue->head->timestamp - data->interface->read()) <= 0) {
     e0e:	2d00      	cmp	r5, #0
     e10:	dc07      	bgt.n	e22 <ticker_irq_handler+0x3a>
            data->queue->head = data->queue->head->next;
     e12:	6891      	ldr	r1, [r2, #8]
     e14:	6059      	str	r1, [r3, #4]
            if (data->queue->event_handler != NULL) {
     e16:	681b      	ldr	r3, [r3, #0]
     e18:	2b00      	cmp	r3, #0
     e1a:	d0ea      	beq.n	df2 <ticker_irq_handler+0xa>
                (*data->queue->event_handler)(p->id); // NOTE: the handler can set new events
     e1c:	6850      	ldr	r0, [r2, #4]
     e1e:	4798      	blx	r3
     e20:	e7e7      	b.n	df2 <ticker_irq_handler+0xa>
            data->interface->set_interrupt(data->queue->head->timestamp);
     e22:	6823      	ldr	r3, [r4, #0]
     e24:	6810      	ldr	r0, [r2, #0]
     e26:	691b      	ldr	r3, [r3, #16]
     e28:	4798      	blx	r3
            return;
     e2a:	e7e9      	b.n	e00 <ticker_irq_handler+0x18>

00000e2c <_gpio_init_out.part.1>:
        gpio_dir(gpio, PIN_INPUT);
        gpio_mode(gpio, mode);
    }
}

static inline void _gpio_init_out(gpio_t* gpio, PinName pin, PinMode mode, int value)
     e2c:	b570      	push	{r4, r5, r6, lr}
     e2e:	6843      	ldr	r3, [r0, #4]
     e30:	0004      	movs	r4, r0
     e32:	000d      	movs	r5, r1
    if (value)
     e34:	2a00      	cmp	r2, #0
     e36:	d00a      	beq.n	e4e <_gpio_init_out.part.1+0x22>
        *obj->reg_set = obj->mask;
     e38:	68c2      	ldr	r2, [r0, #12]
        *obj->reg_clr = obj->mask;
     e3a:	6013      	str	r3, [r2, #0]
{
    gpio_init(gpio, pin);
    if (pin != NC) {
        gpio_write(gpio, value);
        gpio_dir(gpio, PIN_OUTPUT);
     e3c:	0020      	movs	r0, r4
     e3e:	2101      	movs	r1, #1
     e40:	f000 f830 	bl	ea4 <gpio_dir>
        gpio_mode(gpio, mode);
     e44:	0029      	movs	r1, r5
     e46:	0020      	movs	r0, r4
     e48:	f000 f826 	bl	e98 <gpio_mode>
    }
}
     e4c:	bd70      	pop	{r4, r5, r6, pc}
     e4e:	6902      	ldr	r2, [r0, #16]
     e50:	e7f3      	b.n	e3a <_gpio_init_out.part.1+0xe>

00000e52 <gpio_init_out_ex>:

void gpio_init_out(gpio_t* gpio, PinName pin) {
    gpio_init_out_ex(gpio, pin, 0);
}

void gpio_init_out_ex(gpio_t* gpio, PinName pin, int value) {
     e52:	b570      	push	{r4, r5, r6, lr}
     e54:	000d      	movs	r5, r1
     e56:	0004      	movs	r4, r0
     e58:	0016      	movs	r6, r2
    gpio_init(gpio, pin);
     e5a:	f7ff fd25 	bl	8a8 <gpio_init>
    if (pin != NC) {
     e5e:	1c6b      	adds	r3, r5, #1
     e60:	d004      	beq.n	e6c <gpio_init_out_ex+0x1a>
     e62:	0032      	movs	r2, r6
     e64:	2100      	movs	r1, #0
     e66:	0020      	movs	r0, r4
     e68:	f7ff ffe0 	bl	e2c <_gpio_init_out.part.1>
    _gpio_init_out(gpio, pin, PullNone, value);
}
     e6c:	bd70      	pop	{r4, r5, r6, pc}

00000e6e <gpio_init_out>:
void gpio_init_out(gpio_t* gpio, PinName pin) {
     e6e:	b510      	push	{r4, lr}
    gpio_init_out_ex(gpio, pin, 0);
     e70:	2200      	movs	r2, #0
     e72:	f7ff ffee 	bl	e52 <gpio_init_out_ex>
}
     e76:	bd10      	pop	{r4, pc}

00000e78 <pin_mode>:
void pin_function(PinName pin, int function)
{
}

void pin_mode(PinName pin, PinMode mode)
{
     e78:	23a0      	movs	r3, #160	; 0xa0
     e7a:	0080      	lsls	r0, r0, #2
     e7c:	05db      	lsls	r3, r3, #23
     e7e:	18c0      	adds	r0, r0, r3
    MBED_ASSERT(pin != (PinName)NC);

    uint32_t pin_number = (uint32_t)pin;

    NRF_GPIO->PIN_CNF[pin_number] &= ~GPIO_PIN_CNF_PULL_Msk;
     e80:	23e0      	movs	r3, #224	; 0xe0
{
     e82:	b510      	push	{r4, lr}
    NRF_GPIO->PIN_CNF[pin_number] &= ~GPIO_PIN_CNF_PULL_Msk;
     e84:	240c      	movs	r4, #12
     e86:	00db      	lsls	r3, r3, #3
     e88:	58c2      	ldr	r2, [r0, r3]
    NRF_GPIO->PIN_CNF[pin_number] |= (mode << GPIO_PIN_CNF_PULL_Pos);
     e8a:	0089      	lsls	r1, r1, #2
    NRF_GPIO->PIN_CNF[pin_number] &= ~GPIO_PIN_CNF_PULL_Msk;
     e8c:	43a2      	bics	r2, r4
     e8e:	50c2      	str	r2, [r0, r3]
    NRF_GPIO->PIN_CNF[pin_number] |= (mode << GPIO_PIN_CNF_PULL_Pos);
     e90:	58c2      	ldr	r2, [r0, r3]
     e92:	4311      	orrs	r1, r2
     e94:	50c1      	str	r1, [r0, r3]
}
     e96:	bd10      	pop	{r4, pc}

00000e98 <gpio_mode>:

void gpio_mode(gpio_t *obj, PinMode mode)
{
     e98:	b510      	push	{r4, lr}
    pin_mode(obj->pin, mode);
     e9a:	7800      	ldrb	r0, [r0, #0]
     e9c:	b240      	sxtb	r0, r0
     e9e:	f7ff ffeb 	bl	e78 <pin_mode>
}
     ea2:	bd10      	pop	{r4, pc}

00000ea4 <gpio_dir>:

void gpio_dir(gpio_t *obj, PinDirection direction)
{
    MBED_ASSERT(obj->pin != (PinName)NC);
    switch (direction) {
     ea4:	2900      	cmp	r1, #0
     ea6:	d002      	beq.n	eae <gpio_dir+0xa>
     ea8:	2901      	cmp	r1, #1
     eaa:	d000      	beq.n	eae <gpio_dir+0xa>
                                        | (GPIO_PIN_CNF_PULL_Disabled << GPIO_PIN_CNF_PULL_Pos)
                                        | (GPIO_PIN_CNF_INPUT_Connect << GPIO_PIN_CNF_INPUT_Pos)
                                        | (GPIO_PIN_CNF_DIR_Output << GPIO_PIN_CNF_DIR_Pos);
            break;
    }
}
     eac:	4770      	bx	lr
            NRF_GPIO->PIN_CNF[obj->pin] = (GPIO_PIN_CNF_SENSE_Disabled << GPIO_PIN_CNF_SENSE_Pos)
     eae:	2300      	movs	r3, #0
     eb0:	22a0      	movs	r2, #160	; 0xa0
     eb2:	56c3      	ldrsb	r3, [r0, r3]
     eb4:	05d2      	lsls	r2, r2, #23
     eb6:	33c1      	adds	r3, #193	; 0xc1
     eb8:	33ff      	adds	r3, #255	; 0xff
     eba:	009b      	lsls	r3, r3, #2
     ebc:	5099      	str	r1, [r3, r2]
}
     ebe:	e7f5      	b.n	eac <gpio_dir+0x8>

00000ec0 <__aeabi_atexit>:
     ec0:	000b      	movs	r3, r1
     ec2:	b510      	push	{r4, lr}
     ec4:	0001      	movs	r1, r0
     ec6:	0018      	movs	r0, r3
     ec8:	f7ff fde8 	bl	a9c <__cxa_atexit>
     ecc:	bd10      	pop	{r4, pc}

00000ece <_ZdlPv>:
     ece:	b510      	push	{r4, lr}
     ed0:	f7ff fe2c 	bl	b2c <free>
     ed4:	bd10      	pop	{r4, pc}

00000ed6 <memcpy>:
     ed6:	2300      	movs	r3, #0
     ed8:	b510      	push	{r4, lr}
     eda:	429a      	cmp	r2, r3
     edc:	d100      	bne.n	ee0 <memcpy+0xa>
     ede:	bd10      	pop	{r4, pc}
     ee0:	5ccc      	ldrb	r4, [r1, r3]
     ee2:	54c4      	strb	r4, [r0, r3]
     ee4:	3301      	adds	r3, #1
     ee6:	e7f8      	b.n	eda <memcpy+0x4>

00000ee8 <memset>:
     ee8:	0003      	movs	r3, r0
     eea:	1812      	adds	r2, r2, r0
     eec:	4293      	cmp	r3, r2
     eee:	d100      	bne.n	ef2 <memset+0xa>
     ef0:	4770      	bx	lr
     ef2:	7019      	strb	r1, [r3, #0]
     ef4:	3301      	adds	r3, #1
     ef6:	e7f9      	b.n	eec <memset+0x4>

00000ef8 <__malloc_lock>:
     ef8:	4770      	bx	lr

00000efa <__malloc_unlock>:
     efa:	4770      	bx	lr

00000efc <_init>:
     efc:	b5f8      	push	{r3, r4, r5, r6, r7, lr}
     efe:	46c0      	nop			; (mov r8, r8)
     f00:	bcf8      	pop	{r3, r4, r5, r6, r7}
     f02:	bc08      	pop	{r3}
     f04:	469e      	mov	lr, r3
     f06:	4770      	bx	lr

00000f08 <_fini>:
     f08:	b5f8      	push	{r3, r4, r5, r6, r7, lr}
     f0a:	46c0      	nop			; (mov r8, r8)
     f0c:	bcf8      	pop	{r3, r4, r5, r6, r7}
     f0e:	bc08      	pop	{r3}
     f10:	469e      	mov	lr, r3
     f12:	4770      	bx	lr

00000f14 <_ZTV6Cereal>:
	...
     f1c:	0c1d 0000 0c31 0000                         ....1...

00000f24 <_ZTVN4mbed10SerialBaseE>:
	...
     f2c:	0ce1 0000 0d0f 0000                         ........

00000f34 <acceptedSpeeds>:
     f34:	04b0 0000 f000 0004 0960 0000 d000 0009     ........`.......
     f44:	12c0 0000 b000 0013 2580 0000 5000 0027     .........%...P'.
     f54:	3840 0000 0000 003b 4b00 0000 a000 004e     @8....;..K....N.
     f64:	7080 0000 f000 0075 7a12 0000 0000 0080     .p....u..z......
     f74:	9600 0000 5000 009d e100 0000 f000 00eb     .....P..........
     f84:	2c00 0001 9000 013a c200 0001 e000 01d7     .,....:.........
     f94:	8400 0003 b000 03af d090 0003 0000 0400     ................
     fa4:	0800 0007 7000 075f 1000 000e dfa4 0ebe     .....p_.........
     fb4:	4240 000f 0000 1000                         @B......

00000fbc <us_data>:
     fbc:	0fc4 0000 00e4 2000                         ....... 

00000fc4 <us_interface>:
     fc4:	05c9 0000 0655 0000 0de5 0000 0de7 0000     ....U...........
     fd4:	066d 0000                                   m...

00000fd8 <__sf_fake_stderr>:
	...

00000ff8 <__sf_fake_stdin>:
	...

00001018 <__sf_fake_stdout>:
	...

00001038 <_global_impure_ptr>:
    1038:	0008 2000                                   ... 

0000103c <_ZL3com>:
    103c:	0400 0c08 1410 1c18 2420 2c28               ........ $(,

00001048 <charcode>:
    1048:	4e00 0000 594e 4e00 008c 4153 4e00 0001     .N..NY.N..SA.N..
    1058:	8253 4e00 0003 5c53 5100 006b ba4e 5100     S..N..S\.Qk.N..Q
    1068:	0065 3f51 5300 0015 e051 4e00 005d 0152     e.Q?.S..Q..N].R.
    1078:	4e00 0086 0052 5200 009b 434e 5300 00c8     .N..R..R..NC.S..
    1088:	094e 5e00 0072 8e4e 4e00 008f e55d 5700     N..^r.N..N..]..W
    1098:	001f eb58 6200 004d 0b4e 5b00 00f8 2759     ..X..bM.N..[..Y'
    10a8:	4e00 0008 0e4e 4e00 0007 0a4e 5c00 000f     .N..N..N..N..\..
    10b8:	e353 5c00 0071 fe5d 5300 0043 5e4e 5d00     S..\q.]..SC.N^.]
    10c8:	00dd bf4e 4e00 002a 1559 4e00 0045 484e     ..N..N*.Y..NE.NH
    10d8:	5200 00fa e151 4e00 0038 ca53 5e00 007f     .R..Q..N8.S..^..
    10e8:	a14e 9500 00e8 2b4e 4e00 0049 4b4e 5c00     N.....N+.NI.NK.\
    10f8:	0038 f15d 5d00 00f2 f35d 5f00 0013 505b     8.]..]..].._..[P
    1108:	5300 006b 5f4e 5900 0073 0352 9800 00de     .Sk.N_.Ys.R.....
    1118:	604e 5300 00c9 6c9a 4e00 0061 304e 7300     N`.S...l.Na.N0.s
    1128:	008b 005f 4e00 0095 2959 5900 002b 4351     .._..N..Y).Y+.QC
    1138:	6500 00e0 914e 4e00 0013 104e 6200 004e     .e..N..N..N..bN.
    1148:	7a82 6700 0028 944e 6500 002f 8553 4e00     .z.g(.N..e/.S..N
    1158:	000d ac72 5900 002a 3a53 5300 0086 796b     ..r..Y*.S:.S..ky
    1168:	5300 00cb 245c 5300 0039 668f 5d00 00e8     .S..\$.S9..f.]..
    1178:	5972 5c00 006f 0862 6b00 00d4 924e 5200     rY.\o.b..k..N..R
    1188:	0007 e674 6b00 0062 115c 6600 00f0 e565     ..t..kb.\..f..e.
    1198:	4e00 002d 1d8d 5100 0088 8551 6c00 0034     .N-....Q..Q..l4.
    11a8:	c189 5300 0048 5b72 6200 004b 146c 6b00     ...SH.r[.bK.l..k
    11b8:	00db ec58 5300 0047 2d59 9500 007f c14e     ..X..SG.Y-....N.
    11c8:	4e00 00c0 4772 4e00 00c6 1653 4e00 00c7     .N..rG.N..S..N..
    11d8:	015e 4e00 00cd c54e 6500 00a4 2a72 5300     ^..N..N..e..r*.S
    11e8:	00cd cb4e 7200 0036 ce4e 4e00 00d1 ca4e     ..N..r6.N..N..N.
    11f8:	5100 00f6 0652 4e00 004f 6c51 4e00 00d3     .Q..R..NO.Ql.N..
    1208:	0867 6c00 000f ff52 6b00 0020 ce98 4e00     g..l..R..k ....N
    1218:	0039 0053 4e00 004c fe52 5100 00e4 6d51     9.S..NL.R..Q..Qm
    1228:	6500 0087 a24e 6500 00b9 6b70 4e00 003a     .e..N..e..pk.N:.
    1238:	9765 5f00 00c6 a18b 8b00 00a2 3762 8b00     e.._........b7..
    1248:	00a4 9751 8b00 00a5 c35f 5c00 003a 155f     ..Q....._..\:._.
    1258:	4e00 0011 f45d 5b00 0054 1f96 5200 009e     .N..]..[T....R..
    1268:	e54e 5100 0041 884e 9000 0093 9d52 5300     N..QA.N.....R..S
    1278:	00cc 664e 5e00 007b 8973 5200 000a 2a67     ..Nf.^{.s..R..g*
    1288:	6700 002b 3a79 5100 00fb 5362 5d00 00e7     .g+.y:.Q..bS.]..
    1298:	636b 6200 0051 4953 6200 0052 9f52 6200     kc.bQ.SI.bR.R..b
    12a8:	0054 bb53 7500 0018 164e 8200 007e e453     T.S..u..N...~.S.
    12b8:	8200 0082 2c67 6700 002f ef53 4e00 0019     ....g,.g/.S..N..
    12c8:	e65d 5300 0089 f377 5300 00f3 035e 5900     ]..S..w..S..^..Y
    12d8:	002f 0a62 9f00 0099 735e 7000 006d 678f     /.b.....^s.pm..g
    12e8:	4e00 001c 6153 5300 0017 6053 5100 00f8     .N..Sa.S..S`.Q..
    12f8:	6253 4e00 001a e765 5e00 0005 525f 6500     Sb.N..e..^.._R.e
    1308:	00e6 ee76 4e00 0014 f653 7500 0032 3375     ..v..N..S..u2.u3
    1318:	5300 00ee 3575 5300 00f7 3075 7500 0031     .S..u5.S..u0.u1.
    1328:	ea53 5300 00ed f253 5900 002e 4451 5300     S..S..S..Y..QD.S
    1338:	00fd fc53 5300 00eb e953 5300 00e8 e653     ..S..S..S..S..S.
    1348:	5300 00f9 8951 7600 00bf f951 5600 00da     .S..Q..v..Q..V..
    1358:	db56 7500 001f e277 5900 0031 4d4e 7900     V..u..w..Y1.NM.y
    1368:	00be 184e 4e00 00d8 d74e 4e00 00e3 d94e     ..N..N..N..N..N.
    1378:	4e00 00ec ea4e 7600 007d d44e 4e00 00d6     .N..N..v}.N..N..
    1388:	a565 7400 00dc 4e4e 4e00 001b e44e 7500     e..t..NN.N..N..u
    1398:	0028 2975 5300 0070 145c 4e00 0050 e553     (.u).Sp.\..NP.S.
    13a8:	5300 0006 8c51 5300 006f af72 5900 0016     .S..Q..So.r..Y..
    13b8:	0459 5100 00ac 1f9e 5200 00a1 0553 9900     Y..Q.....R..S...
    13c8:	0065 3b4e 5e00 0002 cb7a 5100 00af 8473     e.N;.^..z..Q..s.
    13d8:	9500 00ea 7051 5300 004a 416c 6c00 0047     ....Qp.SJ.lA.lG.
    13e8:	3459 6c00 0049 815b 7a00 0074 835b 8b00     Y4.lI.[..zt.[...
    13f8:	00a8 9951 8b00 00a9 3c79 8b00 00ad ae8b     ..Q.....y<......
    1408:	5f00 00c5 af8b 8b00 00b0 386c 5300 00f8     ._........l8.S..
    1418:	3c5c 6c00 0011 175f 5f00 0018 fa51 8f00     \<.l.._.._..Q...
    1428:	00bd 7659 5900 0074 ec53 5200 00a0 ae76     ..Yv.Yt.S..R..v.
    1438:	8f00 00b9 555b 5300 00d1 2357 5b00 00f9     ....[U.S..W#.[..
    1448:	f053 7700 00db a07e 6b00 00cd 7c5e 4e00     S..w..~..k..^|.N
    1458:	001d a690 5f00 000f c28f 5200 0011 0e62     ....._.....R..b.
    1468:	5200 00a8 5b62 5b00 00fa 0954 6200 0063     .R..b[.[..T..bc.
    1478:	0380 6200 0058 0180 5d00 00e9 3e57 6200     ...bX....]..W>.b
    1488:	0067 6962 6200 006b 3057 5700 003a 6c62     g.bi.bk.W0.W:.bl
    1498:	8000 0033 8b82 5100 0071 9282 4e00 009a     ..3....Qq....N..
    14a8:	9d82 6700 003d 3467 6700 003a 4367 8f00     ...g=.g4.g:.gC..
    14b8:	00c7 e381 5400 000f 8d51 5300 004f 7f89     .....T..Q..SO...
    14c8:	5300 008b 8c53 6200 000c 2857 7600 007e     .S..S..b..W(.v~.
    14d8:	0967 5b00 0058 0c80 9800 0075 2053 5900     g..[X.....u.S .Y
    14e8:	0038 3a59 7000 0070 be8f 5200 0017 7b6b     8.Y:.pp....R..k{
    14f8:	6200 0010 3959 5900 0037 688f 9000 00aa     .b..Y9.Y7..h....
    1508:	275c 5200 0012 c88f 6b00 00d5 f381 6b00     \'.R.....k.....k
    1518:	0064 1e8d 5e00 0008 185c 5c00 0016 a352     d....^..\..\..R.
    1528:	5100 0049 535f 6500 00e9 0154 5400 0010     .QI._S.e..T..T..
    1538:	1354 8600 006b f266 5600 00e2 1554 5400     T...k.f..V..T..T
    1548:	000c 0a54 5400 0003 e056 5400 0038 1754     ..T..T..V..T8.T.
    1558:	5400 0006 7f5c 5c00 0079 815c 5e00 0006     .T..\..\y.\..^..
    1568:	de56 5c00 0082 1952 5200 001a 517f 8000     V..\..R..R...Q..
    1578:	0089 745e 6700 0031 4851 4e00 0022 f75e     ..^t.g1.QH.N".^.
    1588:	8200 000c f97a 8f00 00c1 544e 8f00 00c4     ....z.....NT....
    1598:	1f4f 4f00 0020 524e 4e00 0053 114f 4f00     O..O .NR.NS.O..O
    15a8:	000d 0f4f 4f00 0018 fc81 4f00 0010 f65e     ..O..O.....O..^.
    15b8:	4e00 00f2 f64e 4e00 00fb 244f 4e00 00f7     .N..N..N..O$.N..
    15c8:	264f 4e00 00fd 4e53 4e00 00f0 ff4e 4f00     O&.N..SN.N..N..O
    15d8:	0019 2a4f 8100 00ea 0a4f 8800 0040 1154     ..O*....O...@.T.
    15e8:	4f00 003c 0e54 8800 004c 1f82 5100 0068     .O<.T...L....Qh.
    15f8:	1a4f 6700 0040 0854 5100 0046 014f 4f00     O..g@.T..QF.O..O
    1608:	0017 3772 4f00 001e 1b52 8000 008c 8b80     ..r7.O..R.......
    1618:	6700 0035 4267 5300 0071 ec65 6500 00e8     .g5.gB.Sq.e..e..
    1628:	ed65 8d00 001f 0853 5400 000d 0454 5900     e.....S..T..T..Y
    1638:	001a 894e 8200 0072 ee58 5100 00b2 8659     ..N...r.X..Q..Y.
    1648:	5100 00b0 845e 5e00 0086 a64e 5200 0018     .Q..^..^..N..R..
    1658:	509f 4e00 00a4 6388 6b00 0021 a74e 5100     .P.N...c.k!.N..Q
    1668:	00b3 a54e 5100 0045 8459 9500 00ed ee95     ..N..QE.Y.......
    1678:	9500 00ef 8a7f 5e00 0076 7351 7c00 0073     .......^v.Qs.|s.
    1688:	6f70 5d00 00de 576c 6c00 0061 5f6c 6c00     po.]..lW.la.l_.l
    1698:	005b 606c 6c00 005d 646c 5f00 00d9 7451     [.l`.l].ld._..Qt
    16a8:	5b00 0087 885b 5b00 0085 575b 5b00 0089     .[..[..[..[W.[..
    16b8:	b28b 8b00 00b3 9b51 8b00 00b6 b88b 8b00     ......Q.........
    16c8:	00b9 ba8b 8b00 00bc 9c51 8b00 00bd be8b     ........Q.......
    16d8:	8b00 00bf c08b 5b00 00fb a390 8f00 00c5     .......[........
    16e8:	3d5c 5b00 00fc 025f 5f00 001b 595b 9600     \=.[.._.._..[Y..
    16f8:	0035 3396 6500 0036 3696 9600 0034 3296     5..3.e6..6..4..2
    1708:	5900 0078 8259 5900 0087 8359 5900 007d     .Yx.Y..Y..Y..Y}.
    1718:	7959 5900 0088 0f62 7f00 00bd c289 6b00     Yy.Y..b........k
    1728:	0022 704e 7e00 00a2 6e9a 7e00 00a4 6f9a     ".Np.~...n.~...o
    1738:	7e00 00a6 a77e 7e00 00aa 709a 7e00 00ab     .~..~..~...p.~..
    1748:	e15d 5b00 00ff 045f 9e00 00a6 9673 7300     ]..[.._.....s..s
    1758:	009b 625f 8f00 00db 1262 5400 001e dc8f     .._b....b..T....
    1768:	8f00 00dd e797 8f00 00d0 7662 6200 009a     ..........bv.b..
    1778:	5b57 6200 0080 4f57 6200 00a0 7062 6200     W[.b..WO.b..bp.b
    1788:	007c d262 6200 007e 7962 5700 0040 6f62     |.b..b~.by.W@.bo
    1798:	8d00 0070 8462 8d00 0021 5e6c 5700 005d     ..p.b...!.l^.W].
    17a8:	3b65 8d00 0064 9862 6200 0093 7362 6200     e;..d.b..b..bs.b
    17b8:	00a1 6e62 6200 00a2 5d5b 5700 004e 4757     ..bn.b..[].WN.WG
    17c8:	6200 0091 9b62 6200 0095 5f57 5700 0051     .b..b..b..W_.WQ.
    17d8:	9762 5700 004a 9662 6200 00a4 f358 5f00     b..WJ.b..b..X.._
    17e8:	00d7 5757 6200 006d f058 6200 008a a562     ..WW.bm.X..b..b.
    17f8:	6200 00df 7453 6200 0092 ab52 8200 0099     .b..St.b..R.....
    1808:	9c82 8200 00c7 bd82 8200 00b1 b982 8200     ................
    1818:	00a5 ac82 8200 00cd b382 4e00 0025 a682     ...........N%...
    1828:	8200 00af b352 5100 004b ad82 8200 00cf     ....R..QK.......
    1838:	4667 6700 0060 5c67 6700 0050 5167 6700     gF.g`.g\.gP.gQ.g
    1848:	0056 4f67 6700 0049 eb5d 6700 0081 4e67     V.gO.gI.]..g..gN
    1858:	6700 0068 426c 7500 002b 2353 6600 00f4     .gh.lB.u+.S#.f..
    1868:	5f67 5400 003e 468c 4e00 0024 4991 4e00     g_.T>..F.N$..I.N
    1878:	003d 3b53 8f00 00b0 b152 5400 0026 d88f     =.S;....R..T&...
    1888:	5c00 002c 7c6b 6700 0065 de8f 8f00 0069     .\,.k|.ge.....i.
    1898:	656b 5300 0064 5a57 8000 0096 f165 7600     ke.Sd.WZ....e..v
    18a8:	00ef 4854 6500 00f6 3454 5200 00a9 bf53     ..TH.e..T4.R..S.
    18b8:	9100 00cc 4654 5400 0031 2054 5400 0055     ....TF.T1.T .TU.
    18c8:	ed56 6500 00f7 f456 5400 0040 2854 8d00     V..e..V..T@.T(..
    18d8:	00b3 ae90 7500 0037 f056 5400 0035 324e     .....u7.V..T5.N2
    18e8:	5400 0058 5054 5400 002c 1f54 5400 0029     .TX.TP.T,.T..T).
    18f8:	5b54 5400 003b 3954 5400 005c 2d54 5400     T[.T;.T9.T\.T-.T
    1908:	0027 9190 5400 003c e456 5200 002b 2e54     '....T<.V..R+.T.
    1918:	5c00 0096 975c 5e00 0010 228d 9400 0088     .\..\..^..."....
    1928:	8994 7200 0061 4a54 6200 0011 714e 5200     ...ra.TJ.b..Nq.R
    1938:	0029 c379 7900 00c0 c179 6b00 00cf 7551     ).y..y..y..k..Qu
    1948:	4f00 0030 534f 4f00 0055 504f 4f00 0051     .O0.OS.OU.OP.OQ.
    1958:	464f 4f00 0038 434f 4f00 005c 2f4f 4f00     OF.O8.OC.O\.O/.O
    1968:	0036 634f 4f00 004e 604f 4f00 004f 4d4f     6.Oc.ON.O`.OO.OM
    1978:	4f00 0034 ab8e 7600 0082 3a4f 4f00 005b     .O4....v..O:.O[.
    1988:	f156 8f00 00d1 7b5f 5f00 0079 d48f 4f00     V....._{._y....O
    1998:	0059 0c5e 5700 0050 378c 5900 00a5 2b54     Y.^..WP..7.Y..T+
    19a8:	9000 00bb 945c 8000 009d 9b80 8000 009a     ....\...........
    19b8:	9880 8000 00a0 9f9f 7500 0038 4d51 7200     .........u8.QM.r
    19c8:	00c2 b972 7200 00c8 d289 5200 0020 6167     ..r..r.....R .ga
    19d8:	5f00 0064 7553 7000 0078 9b5c 5200 0028     ._d.Su.px.\..R(.
    19e8:	ce8f 9900 006d 6e99 7c00 00fb 008a 5100     ....m..n.|.....Q
    19f8:	00bb b672 4e00 00a9 b551 5e00 008a 935e     ..r..N..Q..^..^.
    1a08:	5e00 0087 9775 5400 001d 945e 8f00 00d9     .^..u..T..^.....
    1a18:	b751 5e00 0090 8f5e 8f00 009b 035f 5100     Q..^..^....._..Q
    1a28:	00b6 d85f 9500 00f0 f295 9500 00f4 f795     .._.............
    1a38:	5200 0024 5151 7000 0076 7f70 7000 007c     .R$.QQ.pv.p..p|.
    1a48:	1f5f 6c00 006a 906c 6c00 009b 706c 6c00     _..lj.l..l..lp.l
    1a58:	00a5 996c 6c00 007d 836c 6c00 00a6 796c     ..l..l}.l..l..ly
    1a68:	6c00 00db a76c 6c00 00a1 9f6c 6c00 00aa     .l..l..l..l..l..
    1a78:	886c 6c00 0089 816c 6000 0000 e75f 5f00     l..l..l..`.._.._
    1a88:	00f1 eb5f 5b00 008c 8b5b 5b00 008f 6272     .._..[..[..[..rb
    1a98:	7a00 0076 777a 7000 007e 6f82 8b00 00c1     .zv.zw.p~..o....
    1aa8:	2f54 8b00 00c4 6588 5200 001d 3e79 7900     T/.....e.R..y>.y
    1ab8:	0040 c68b 8b00 00c8 c98b 7f00 0055 ca8b     @...........U...
    1ac8:	8b00 00cd d18b 5400 001b 7570 5300 0073     .......T..pu.Ss.
    1ad8:	425c 5c00 0041 3f5c 5c00 003e df8f 5c00     \B.\A.\?.\>....\
    1ae8:	0040 3965 5f00 0020 cc5f 9600 0045 4696     @.e9._ ._...E..F
    1af8:	9600 003f 4896 9600 003b 4496 5700 0060     ..?..H..;..D.W`.
    1b08:	9359 5900 0099 9659 5900 00ca a859 5900     Y..Y..Y..Y..Y..Y
    1b18:	0092 aa52 5f00 00cd b252 7700 00e3 219e     ..R.._..R..w...!
    1b28:	7e00 00ac 719a 7e00 00af b17e 7e00 00b2     .~...q.~..~..~..
    1b38:	b37e 9a00 0073 b57e 7e00 00b7 b87e 7e00     ~...s.~..~..~..~
    1b48:	00b9 ba7e 9a00 0074 bd7e 5900 0049 a973     ..~...t.~..YI.s.
    1b58:	7300 00af 666b 9700 0052 238d 7300 00b0     .s..kf..R..#.s..
    1b68:	ab73 8800 0068 c489 6200 00b9 6653 5700     s...h....b..Sf.W
    1b78:	0077 6f57 6200 00d3 e262 6200 00d4 6a57     w.Wo.b..b..b..Wj
    1b88:	6200 00e3 6657 6200 00c5 6457 6200 00bc     .b..Wf.b..Wd.b..
    1b98:	bd62 6200 00d0 d662 8000 0005 cd62 9800     b..b..b.....b...
    1ba8:	0076 c662 6200 00ce e562 6200 00b5 d862     v.b..b..b..b..b.
    1bb8:	5200 00bf b162 6200 00c4 8357 6200 00c9     .R..b..b..W..b..
    1bc8:	e662 5e00 0078 cc62 6200 00e7 c262 6200     b..^x.b..b..b..b
    1bd8:	00d9 db62 5700 0061 ab62 6200 00e8 e962     ..b..Wa.b..b..b.
    1be8:	6200 00ac c762 6200 00d7 7651 5300 00d6     .b..b..b..Qv.S..
    1bf8:	0983 8200 00e6 1466 8200 00db e582 8300     ......f.........
    1c08:	0002 f982 8200 00d7 f182 8200 00df d182     ................
    1c18:	8200 00de 0383 7600 00f4 0183 8300 0004     .......v........
    1c28:	0e83 8200 00d4 0583 6700 0089 9767 6700     .........g..g..g
    1c38:	009d 6f67 6700 00a2 dc67 6700 009a 9067     ..go.g..g..g..g.
    1c48:	6700 007f 7e67 6700 00aa ab67 6700 0084     .g..g~.g..g..g..
    1c58:	6d67 6700 0070 f08f 6700 0095 274e 6200     gm.gp....g..N'.b
    1c68:	0016 3b75 5300 0067 8b4e 5200 003a a367     ..u;.Sg.N..R:.g.
    1c78:	9600 00e8 5653 9000 00c1 fe77 7700 00ff     ....SV....w..w..
    1c88:	0178 5300 0095 4859 5900 0054 4759 5900     x..S..YH.YT.YG.Y
    1c98:	004b 0160 6b00 0027 b46b 5700 0084 bb59     K.`..k'.k..W..Y.
    1ca8:	8f00 0070 7798 8f00 006c a965 8f00 006e     ..p..w..l.e...n.
    1cb8:	6f8f 5200 0030 5e97 5300 00d4 676b 8000     .o.R0..^.S..kg..
    1cc8:	00af 7f9f 4e00 009b 5353 8600 004e 4f86     .....N..SS..N..O
    1cd8:	8000 00be 248d 5c00 001a fa65 5100 0077     .....$.\..e..Qw.
    1ce8:	7354 6700 009c 0666 5600 00fd ce54 5400     Ts.g..f..V..T..T
    1cf8:	0095 0c66 5400 0075 4575 6600 000e 1366     ..f..Tu.uE.f..f.
    1d08:	5400 0099 0266 8f00 00ea 7851 5600 00fa     .T..f.....Qx.V..
    1d18:	e05f 5400 007b 9254 5400 008b 9054 5400     _..T{.T..T..T..T
    1d28:	007c 239e 5400 008f 6254 5400 0084 9654     |..#.T..Tb.T..T.
    1d38:	5c00 00b8 a95c 5e00 0016 577f 5e00 001c     .\..\..^...W.^..
    1d48:	155e 5c00 00ad ef51 8d00 0025 268d 8d00     ^..\..Q...%..&..
    1d58:	0029 2c8d 8d00 002d 2e8d 5600 00fe 9394     )..,..-....V....
    1d68:	5200 0036 e577 8f00 00ed 1b6c 5700 0082     .R6.w.....l..W..
    1d78:	6772 7200 0069 564e 5200 002e c679 5400     rg.ri.NV.R..y..T
    1d88:	008c 635b 5900 00d4 c979 4f00 0073 8d4f     ..[c.Y..y..Os.O.
    1d98:	5c00 00b3 9b4f 4f00 007f 8b4f 4f00 00a0     .\..O..O..O..O..
    1da8:	a54f 7200 0048 844f 4f00 00a6 a34f 4f00     O..rH.O..O..O..O
    1db8:	00a7 ed51 4f00 00a8 694f 8d00 0027 884f     ..Q..O..Oi..'.O.
    1dc8:	4f00 009d 5153 7600 0084 eb8f 8d00 0028     .O..SQ.v......(.
    1dd8:	236b 5f00 0081 805f 7200 002c 7c5f 5f00     k#._.._..r,._|._
    1de8:	0084 4062 8200 000d d191 5200 0039 7d54     ..b@.......R9.T}
    1df8:	8000 00b4 a765 7200 0038 c791 8900 00c5     ....e..r8.......
    1e08:	d753 4e00 0073 2a8d 5f00 00f5 2b8d 5f00     S..Ns..*._...+._
    1e18:	00ff a480 8000 00ba a280 8000 00bf c080     ................
    1e28:	6700 000b a180 8000 00ae aa80 8000 00a5     .g..............
    1e38:	0d67 8000 00c1 6854 6600 000f 7c9c 5100     g.....Th.f...|.Q
    1e48:	0054 d072 5f00 00fd d772 7200 00de 0759     T.r.._..r..r..Y.
    1e58:	9900 0070 7199 9900 0072 d853 4e00 00ac     ..p..q..r.S..N..
    1e68:	ab4e 5e00 009e 975e 5900 001c 995e 5e00     N..^..^..Y..^..^
    1e78:	009c 955e 7500 009f 9975 7500 009a 4252     ..^..u..u..u..RB
    1e88:	5300 0052 ca90 5e00 009a 9f5e 5100 00c0     .SR....^..^..Q..
    1e98:	f276 6500 003e 3b52 8000 00b2 136c 9500     v..e>.R;....l...
    1ea8:	00f8 f995 9000 00d1 3852 5300 0077 5553     ........R8.Sw.SU
    1eb8:	7000 00ac 9270 7000 008a 9570 7000 008e     .p..p..p..p..p..
    1ec8:	8970 6c00 00ab 456d 6c00 00d5 c46c 6c00     p..l..mE.l..l..l
    1ed8:	00bd b36c 6c00 00be ea6c 6c00 00ae b96c     ..l..l..l..l..l.
    1ee8:	6c00 00ca bf6c 6c00 00e1 e86c 6c00 00e3     .l..l..l..l..l..
    1ef8:	de6c 6c00 00fb cc6c 6c00 00f3 e56c 6c00     l..l..l..l..l..l
    1f08:	00b8 bc6c 6c00 00e2 fc6c 6c00 00fd bb6c     ..l..l..l..l..l.
    1f18:	6000 0014 2f60 6000 0016 2760 6000 0015     .`..`/.`..`'.`..
    1f28:	1c60 6000 002a 2160 5b00 0066 9d5b 5b00     `..`*.`!.[f.[..[
    1f38:	0097 9a5b 5b00 00a0 9c5b 5b00 00a1 995b     ..[..[..[..[..[.
    1f48:	5b00 0098 7a7a 5e00 0018 9b5b 5b00 009e     .[..zz.^..[..[..
    1f58:	d58b 9000 00ce d78b 8000 00a9 3f62 8b00     ............b?..
    1f68:	00da 6c88 8800 006b c689 7900 0048 dd8b     ...l..k....yH...
    1f78:	8b00 00de e18b 8b00 00e2 e58b 8b00 00e6     ................
    1f88:	fa5e 8000 0083 555f 9600 00b6 1a5e 5c00     ^....._U....^..\
    1f98:	0049 455c 5c00 004a 3752 5c00 0048 275f     I.\E.\J.R7.\H._'
    1fa8:	5f00 0025 265f 6200 007f 5f5b 9600 004b     ._%._&.b..[_..K.
    1fb8:	4c96 5b00 0064 5596 9600 004d fd51 9600     .L.[d..U..M.Q...
    1fc8:	0050 b959 5900 00d1 d059 5900 00d3 ae59     P.Y..Y..Y..Y..Y.
    1fd8:	5900 00cb c659 8f00 00e2 7e9a 5300 00c1     .Y..Y......~.S..
    1fe8:	c253 8200 0070 bf7e 7e00 00c3 c47e 7e00     S...p.~..~..~..~
    1ff8:	00c5 c67e 9a00 0076 c77e 9a00 0079 c87e     ..~...v.~...y.~.
    2008:	9a00 007b ca7e 9a00 007c cd7e 7e00 00ce     ..{.~...|.~..~..
    2018:	cf7e 8d00 002f 5159 8d00 0030 4f59 6600     ~.../.YQ..0.YO.f
    2028:	0025 2e5e 7300 00b7 cd73 7300 00b2 ca73     %.^..s..s..s..s.
    2038:	7300 00bb d26b 5700 008b ed62 6300 0002     .s..k..W..b..c..
    2048:	015c 6300 0001 f762 6200 00f1 7998 5700     \..c..b..b...y.W
    2058:	00ae 0e63 5700 00ce 1f63 6300 0020 3f65     ..c..W..c..c .e?
    2068:	8d00 0074 758d 6300 0021 fd62 5400 00c9     ..t..u.c!.b..T..
    2078:	3a63 6200 00ec a257 6200 00f4 fe62 6300     c:.b..W..b..b..c
    2088:	0011 9b57 6300 0007 ab57 6300 0023 2463     ..W..c..W..c#.c$
    2098:	6200 00fc 1663 6300 0009 2563 6300 002a     .b..c..c..c%.c*.
    20a8:	ef62 6700 00d0 1a75 8300 0046 3883 9700     b..g..u...F..8..
    20b8:	0069 2c83 8300 0050 f75d 5e00 0026 4983     i..,..P.]..^&..I
    20c8:	8300 0027 3583 8300 0036 5283 8300 002b     ..'..5..6..R..+.
    20d8:	6183 8300 0063 6483 8300 0067 4565 8000     .a..c..d..g.eE..
    20e8:	00e1 6b83 8300 0054 5753 8300 006f 0768     ...k..T.SW..o.h.
    20f8:	6800 0008 d167 6700 00af c467 6800 000b     .h..g..g..g..h..
    2108:	f876 6700 00e5 cf67 6800 0005 f367 6700     v..g..g..h..g..g
    2118:	00f1 ff67 6800 000f e067 6800 0011 c352     ..g..h..g..h..R.
    2128:	8900 0081 ec67 5400 00b8 015a 6b00 006a     ....g..T..Z..kj.
    2138:	1478 7800 0016 9853 5300 009a 0c78 7800     x..x..S..S..x..x
    2148:	0002 f56c 7800 001a 0d78 9700 0062 1080     ..l..x..x...b...
    2158:	8000 000d 7572 9e00 0025 8b6b 6b00 0083     ....ru..%.k..k..
    2168:	748f 8f00 007b 269e 7600 0086 ed97 8000     .t..{..&.v......
    2178:	00cc 1862 7000 00b9 5086 4e00 0034 c889     ..b..p...P.N4...
    2188:	7a00 00d6 0177 5200 004a 1d5c 6600 0027     .z..w..RJ.\..f'.
    2198:	f976 6600 002f fc76 7700 0028 c754 5400     v..f/.v..w(.T..T
    21a8:	00c4 d154 6600 003e 9251 6600 0020 1f66     ..T..f>.Q..f .f.
    21b8:	6600 0028 a754 6600 002d 4f75 8d00 00b4     .f(.T..f-.uO....
    21c8:	c380 8d00 0035 4c75 8600 0079 7e86 8600     ....5.uL..y..~..
    21d8:	0081 1d60 8600 0082 7d86 5400 00c1 bd54     ..`......}.T..T.
    21e8:	9a00 0082 cb52 5400 00d7 b154 5400 00cd     ....R..T..T..T..
    21f8:	c854 5400 00c6 ac54 5400 00b3 aa54 5400     T..T..T..T..T..T
    2208:	00ea df54 7000 00ad e15c 7f00 005a 318d     ..T..p..\...Z..1
    2218:	8d00 0034 3b8d 9a00 00a8 7d5e 9400 0099     ..4..;....^}....
    2228:	9d94 9400 009e 9f94 9400 00a2 a094 9400     ................
    2238:	00a5 a694 9400 00a7 a994 9400 00ae 7853     ..............Sx
    2248:	7f00 0038 dc62 7700 000b e977 6b00 00e1     ..8.b..w..w..k..
    2258:	226c 6000 000e 7272 9000 0009 0290 7900     l".`..rr.......y
    2268:	00d2 9999 7900 00cd cb79 7900 00d1 cd91     .....y..y..y....
    2278:	5900 000d ff7a 6b00 00b5 bf4f 4f00 00e9     .Y..z..k..O..O..
    2288:	378d 9800 007a ee4f 4f00 00cf dd4f 4f00     .7..z.O..O..O..O
    2298:	00c3 c44f 4f00 00d0 ae4f 4f00 00ed d74f     ..O..O..O..O..O.
    22a8:	4f00 00d8 e14f 7600 0087 c96c 9b00 003c     .O..O..v..l...<.
    22b8:	b54f 7900 00b9 af4f 8f00 00fd ca4f 7600     O..y..O.....O..v
    22c8:	00fe 855f 5f00 008a 4d88 5f00 008b 885f     .._.._...M._.._.
    22d8:	9800 007b d953 5200 0051 0390 9800 00df     ..{.S..RQ.......
    22e8:	c676 8000 00da e780 8000 00c6 dc80 8000     v...............
    22f8:	00de d680 8100 0009 ce80 5200 00c9 ed72     ...........R..r.
    2308:	7200 00ee ec72 7200 00f0 e172 7200 00f1     .r..r..r..r..r..
    2318:	e072 8d00 0038 2860 6000 0025 7599 9900     r...8.`(.`%..u..
    2328:	0076 8086 9900 007a 7c99 5c00 00e6 2f5f     v.....z..|.\.._/
    2338:	5c00 0006 5659 5400 00c0 ad4e 4e00 00ae     .\..YV.T..N..N..
    2348:	a65e 8f00 00f9 ad5e 7500 00ae af75 7500     ^.....^..u..u..u
    2358:	00ab a475 5400 00a8 ff59 4e00 00b2 f397     ..u..T..Y..N....
    2368:	5e00 001d bd65 9500 00fa fb95 9500 00fd     .^..e...........
    2378:	0096 9600 0001 ee5d 5100 007b 8e7f 5900     ......]..Q{....Y
    2388:	00dc db53 9000 0001 7b7c 8f00 00f7 7d7c     ..S.....|{....|}
    2398:	5a00 0004 4d52 9900 0096 0690 5100 0079     .Z..RM.......Qy.
    23a8:	3b60 7000 00bc b870 7000 00c1 ae70 7000     `;.p..p..p..p..p
    23b8:	00ab c270 5200 0043 3c6d 6d00 0001 2a6d     ..p..RC.m<.m..m*
    23c8:	6d00 0012 d267 6d00 0047 4a6d 6d00 001e     .m..g..mG.mJ.m..
    23d8:	4b6d 6d00 0017 3b6d 6d00 003e 3d6d 6700     mK.m..m;.m>.m=.g
    23e8:	00d3 1b6d 6d00 004f 4e6d 6d00 000b 326d     ..m..mO.mN.m..m2
    23f8:	6d00 0051 536d 6d00 0025 4360 6000 0052     .mQ.mS.m%.`C.`R.
    2408:	6260 6000 004d 6c60 6000 0064 7060 6000     `b.`M.`l.`d.`p.`
    2418:	007c 6860 4e00 003e c989 5b00 00a3 a65b     |.`h.N>....[..[.
    2428:	5b00 00a4 ab5b 5b00 00aa 817a 7a00 007f     .[..[..[..z..z..
    2438:	837a 5b00 00a2 eb8b 5100 00a0 ec8b 8b00     z..[.....Q......
    2448:	00ed 4162 8800 0084 5679 7900 005e 5d79     ..bA....yV.y^.y]
    2458:	7900 0060 ef8b 8b00 00f1 f28b 8b00 00f4     .y`.............
    2468:	f58b 5700 00a6 0090 6500 00e2 4b5c 6600     ...W.....e..\K.f
    2478:	003c 4f5c 5c00 004e 398d 9600 0061 0a90     <.\O.\N..9..a...
    2488:	7700 0009 695b 9600 0068 6496 9600 0069     .w..[i..h..d..i.
    2498:	6296 5a00 0003 e559 5900 00e8 fb59 5a00     .b.Z..Y..Y..Y..Z
    24a8:	0007 da59 5a00 001c 1260 6700 00b6 3a8d     ..Y..Z..`..g...:
    24b8:	7600 00c8 c752 6000 0020 7876 8600 00a4     .v..R..` .vx....
    24c8:	d467 5700 0092 d17e 7e00 00d2 d37e 7e00     g..W..~..~..~..~
    24d8:	00d5 849a 7e00 00d8 d97e 7e00 00da 869a     .....~..~..~....
    24e8:	7e00 00dc dd7e 7e00 00de 879a 7e00 00df     .~..~..~.....~..
    24f8:	1580 8000 0018 1780 8000 0019 7382 6c00     .............s.l
    2508:	00f0 e679 7300 00e0 ed73 7d00 0020 3f53     ..y..s..s..} .S?
    2518:	8600 0095 7d98 7600 00cf 2a53 6300 005e     .....}.v..S*.c^.
    2528:	3d68 6300 0055 c257 6300 0042 2f63 8f00     h=.cU.W..cB.c/..
    2538:	007d 768d 8d00 0077 d076 6300 004e 4d63     }..v..w.v..cN.cM
    2548:	6300 004f cb57 6300 0049 4663 6300 0050     .cO.W..cI.cF.cP.
    2558:	5f63 8800 0081 4c63 9000 00fd f254 9000     c_....cL....T...
    2568:	001d 6163 6300 002b 6263 6300 003d 1a63     ..ca.c+.cb.c=.c.
    2578:	7000 00ed 5060 6300 0063 f658 6300 0045     .p..`P.cc.X..cE.
    2588:	c357 6300 0028 3b80 8000 003f 3d80 8000     W..c(..;..?..=..
    2598:	0042 6d60 8300 00bd b183 8300 00b2 ab83     B.`m............
    25a8:	8300 0089 7783 8300 00b7 4b66 6000 0076     .....w....fK.`v.
    25b8:	b983 8300 00ba 1f77 6800 0046 8668 6800     ......w..hF.h..h
    25c8:	0042 5468 6800 0016 6368 6800 0050 2a68     B.hT.h..hc.hP.h*
    25d8:	6800 0065 6668 6800 0013 4368 6800 003c     .he.hf.h..hC.h<.
    25e8:	6968 6800 0021 3868 6800 0037 3968 7d00     hi.h!.h8.h7.h9.}
    25f8:	0022 e554 9000 001f 1790 6800 0017 3e8d     ".T........h...>
    2608:	9100 004c 4d91 7f00 00c5 b18f 5500 0007     ..L..M.......U..
    2618:	0f59 7800 0038 3078 7800 003e 4078 7800     Y..x8.x0.x>.x@.x
    2628:	0034 9f53 5900 0057 1090 7000 00c8 8a6b     4.S..YW....p..k.
    2638:	6b00 0089 7e98 8f00 007f 838f 9800 007f     .k...~..........
    2648:	d96b 8100 00f4 f467 6800 004c 5186 7600     k.....g..hL..Q.v
    2658:	00d1 277d 5100 005a 1e90 6600 0052 2077     ..}'.QZ....fR.w 
    2668:	6600 0053 ee54 5500 0020 2d9e 6600 0043     .fS.T..U ..-.fC.
    2678:	fa54 6600 004c 5452 6600 0055 8c86 7500     T..fL.RT.fU....u
    2688:	0054 a386 8600 008a aa86 8600 0093 e854     T.............T.
    2698:	5400 00e9 0357 5400 00ed e654 6000 0069     .T..W..T..T..`i.
    26a8:	2f9e 5500 0024 0155 5400 00fc 2755 5500     ./.U$.U..T..U'.U
    26b8:	004a 0955 5500 0006 627f 5c00 00ed e85c     J.U..U...b.\..\.
    26c8:	5c00 00f0 0657 5c00 00fb 3c8d 8d00 003f     .\..W..\...<..?.
    26d8:	428d 8d00 0043 b194 9400 00b3 bb94 9400     .B..C...........
    26e8:	00be c194 9400 00c3 c594 7f00 003a 276c     ............:.l'
    26f8:	6c00 0028 7972 7200 007a 2090 4e00 0058     .l(.ry.rz.. .NX.
    2708:	4c65 7900 00e4 df79 7900 00ef e779 7900     eL.y..y..y..y..y
    2718:	00e9 f079 7900 00d8 0f90 7b00 0014 117b     ..y..y.....{..{.
    2728:	7b00 000b 3a50 5000 001f 3c50 5000 001a     .{..P:.P..P<.P..
    2738:	fa4f 5000 003e 1250 5000 0018 f14f 5000     O..P>.P..P..O..P
    2748:	0021 1950 8d00 0041 ef4f 5000 000d 2650     !.P...A.O..P..P&
    2758:	5000 0065 ed81 5c00 0004 ac8e 6000 006f     .Pe....\.....`o.
    2768:	1450 5f00 0092 905f 6b00 00b7 3082 8200     P.._.._..k...0..
    2778:	0031 2c82 8200 002a 1490 6200 00ff 3880     1..,..*....b...8
    2788:	7200 0039 0082 7200 0031 7a8c 8c00 0079     .r9....r1..z..y.
    2798:	8198 9800 0082 c17f 8000 00f0 0681 8100     ................
    27a8:	0002 f880 8000 00f3 0f81 8100 0010 f680     ................
    27b8:	8100 0011 1381 9000 001b f872 7200 00fc     ..........r..r..
    27c8:	7f53 9000 0022 359e 7500 0059 339e 7600     S..."..5.uY..3.v
    27d8:	00b1 7f99 9900 0081 cc51 5100 00c4 4b60     ........Q..Q..`K
    27e8:	6800 0068 466d 8800 0070 7788 9a00 00d8     .hh.mF..p..w....
    27f8:	ed90 5e00 002d c651 5e00 00a7 c775 7500     ...^-.Q..^..u..u
    2808:	00c5 be75 6500 008b b975 7500 00bc b275     ..u..e..u..u..u.
    2818:	8100 000a 4865 7900 00bb 0a7d 5500 0010     ....eH.y..}..U..
    2828:	f774 8d00 0044 c951 7a00 00d9 5652 7a00     t...D.Q..z..RV.z
    2838:	00de e890 6500 00c1 c565 7500 005c 0596     .....e..e..u\...
    2848:	7f00 009e 947f 7400 00f6 f362 7c00 0089     .......t..b..|..
    2858:	9965 7600 00ca 7c51 7000 00e4 d870 7000     e..v..Q|.p..p..p
    2868:	00e6 e770 7000 00db df70 7000 00d9 1290     ..p..p..p..p....
    2878:	6d00 009b 596d 6d00 009d 666d 9100 0052     .m..mY.m..mf..R.
    2888:	896d 6d00 0088 a16d 6d00 0069 776d 6d00     m..m..m..mi.mw.m
    2898:	0082 746d 6d00 006e a36d 6d00 00a4 416d     ..mt.mn.m..m..mA
    28a8:	6d00 00a6 a76d 6d00 0095 6a6d 6d00 0078     .m..m..m..mj.mx.
    28b8:	a86d 7000 00eb a96d 6d00 008c 9660 6000     m..p..m..m..`..`
    28c8:	009f 8460 6000 008d 9460 6000 00af a660     ..`..`..`..`..`.
    28d8:	5b00 00b3 bd5b 5b00 00b6 b55b 5b00 00b4     .[..[..[..[..[..
    28e8:	be5b 7a00 008d 847a 5b00 00b9 b05b 6800     [..z..z..[..[..h
    28f8:	0048 f78b 6700 0017 f88b 8b00 00fa fb8b     H....g..........
    2908:	6200 0047 fd8b 8800 009c 9688 8800 008d     .bG.............
    2918:	ab88 7900 0065 fe8b 5100 00a5 018c 8c00     ...ye....Q......
    2928:	0003 a451 8c00 0005 068c 8c00 0008 0a8c     ..Q.............
    2938:	5200 0065 7360 5c00 0055 6752 5c00 0051     .Re.`s.\U.Rg.\Q.
    2948:	315f 9600 0075 5f79 9600 0076 7796 9600     _1..u.y_..v..w..
    2958:	006a 315a 5a00 001f 5560 5a00 0025 185a     j.Z1.Z..`U.Z%.Z.
    2968:	9000 001a fd80 9600 00be 8498 6800 0051     .............hQ.
    2978:	e27e 7e00 00e3 8c9a 7e00 00e7 8f9a 7400     ~..~.....~.....t
    2988:	0003 1074 7400 0006 0974 7400 0005 6763     ..t..t..t..t..cg
    2998:	5800 0035 aa63 6300 00cf df57 6300 007a     .X5.c..c..W..cz.
    29a8:	a963 6300 0077 9263 7100 0009 8963 6300     c..cw.c..q..c..c
    29b8:	0076 668d 5800 0006 a863 5700 00e0 8063     v..f.X..c..W..c.
    29c8:	6300 0088 7b63 6500 0059 8f63 6300 0090     .c..c{.eY.c..c..
    29d8:	a063 6300 0082 f957 6300 00a5 b763 6300     c..c..W..c..c..c
    29e8:	00a7 a263 6300 006e 9863 6300 00ba 4c80     ..c..cn.c..c...L
    29f8:	5700 00fa 4680 5200 00d8 4a80 5a00 0036     .W...F.R...J.Z6.
    2a08:	5784 8300 00f1 d252 9e00 00c4 f283 8400     .W....R.........
    2a18:	000c 1d84 8300 00cc 0e84 8300 00dc 0484     ................
    2a28:	8300 00ca e983 8400 000d e083 8400 0024     ..............$.
    2a38:	2584 4e00 007e 2784 8400 0028 c783 6800     .%.N~..'..(....h
    2a48:	00b0 6c5f 6800 00a6 6a5a 6800 0097 a768     .._l.h..Zj.h..h.
    2a58:	6800 00a2 8568 6800 00c0 b368 6800 00af     .h..h..h..h..h..
    2a68:	7668 6800 00ad 5165 6600 00f9 6f52 7900     hv.h..eQ.f..Ro.y
    2a78:	0068 5d91 9100 0057 a253 6200 001a 4578     h..]..W.S..b..xE
    2a88:	7800 0055 6259 7600 00d4 3d72 8000 004b     .xU.Yb.v..r=..K.
    2a98:	ad88 7600 00db 3e53 9600 00ea 858f 8f00     ...v..S>........
    2aa8:	0086 8598 8600 005a 6a5f 9600 00c0 0258     ......Z._j....X.
    2ab8:	5e00 0038 3677 5300 0019 6866 7700 0041     .^8.w6.S..fh.wA.
    2ac8:	2f77 7700 003c ac60 9100 00ce 6a55 5500     w/.w<.`.....Uj.U
    2ad8:	0066 fc66 6600 0066 5a66 5500 0044 6155     f.f..ff.fZ.UD.Ua
    2ae8:	8d00 00dd be8d 5500 0043 c38d 7500 0065     .......UC....ue.
    2af8:	af86 8600 00c0 c786 5500 002c 2f7d 9100     .........U,.}/..
    2b08:	0002 3155 6000 00a3 7055 5500 003e 2f55     ..U1.`..Up.U>.U/
    2b18:	5500 0064 6555 5500 0078 165d 5d00 000e     .Ud.Ue.Ux.]..]..
    2b28:	2d5d 9000 003b 145d 5e00 0037 295d 5d00     ]-..;.]..^7.]).]
    2b38:	0007 1b5d 5a00 0074 0857 9400 00d0 db94     ..]..Zt.W.......
    2b48:	9400 00dd dc94 9400 00ed f294 9400 00f6     ................
    2b58:	eb77 7500 001c f879 6800 00a8 8172 7900     w..u..y..h..r..y
    2b68:	00fd fb79 7b00 0028 3c7b 7b00 001b 197b     ..y..{(.{<.{..{.
    2b78:	7b00 0026 2c7b 6500 004f 5a50 8800 008b     .{&.{,.eO.PZ....
    2b88:	a060 5000 007f 7650 5000 004e 7750 6000     `..P..Pv.PN.Pw.`
    2b98:	00a8 2e55 5000 005c 4f50 8e00 00af 5c51     ..U..P\.PO....Q\
    2ba8:	5000 0047 4588 5f00 0098 995f 5f00 0097     .PG..E._.._.._..
    2bb8:	5488 7600 00d8 3682 8200 0039 3582 6500     .T.v...6..9..5.e
    2bc8:	009c d276 9e00 003d 5b65 6000 0089 326b     ..v...=.e[.`..k2
    2bd8:	5f00 0069 8698 8100 001a 1681 8100 002f     ._i.........../.
    2be8:	5a8c 8100 0038 3181 8c00 0061 1f59 9000     .Z..8..1..a.Y...
    2bf8:	0038 1c73 7300 002a 0e73 7300 002b f051     8.s..s*.s..s+.Q.
    2c08:	7300 0016 1b73 7900 006d 8599 9900 0086     .s..s..ym.......
    2c18:	d151 5100 00cf eb6b 7000 00f9 b65e 9e00     Q..Q..k..p..^...
    2c28:	00bb b55e 7500 00ca d275 7500 00d5 ca5e     ..^..u..u..u..^.
    2c38:	5e00 00b7 b85e 9e00 007f d776 7a00 00e0     .^..^.....v..z..
    2c48:	df7a 5500 0046 cf65 6500 00cb 1b67 7300     z..UF.e..e..g..s
    2c58:	0087 0e96 9600 0010 4077 7f00 009a d676     ........w@....v.
    2c68:	7700 0037 987c 7c00 0097 927c 6500 00ad     .w7.|..|..|..e..
    2c78:	6a52 5100 007d 0a71 7100 0015 056e 6d00     Rj.Q}.q..q..n..m
    2c88:	00fb 3f9e 6d00 00cb af6d 6d00 00f9 206e     ...?.m..m..m..n 
    2c98:	6e00 0010 d16d 6d00 00cc f76d 6d00 00ee     .n..m..m..m..m..
    2ca8:	c66d 6e00 000a eb6d 6e00 0014 d86d 6d00     m..n..m..n..m..m
    2cb8:	00f3 b26d 6d00 00e4 e16d 6d00 00c0 f16d     ..m..m..m..m..m.
    2cc8:	6d00 00ae b56d 5a00 0046 8168 6e00 0017     .m..m..ZF.h..n..
    2cd8:	c560 6000 00dc ed60 6000 00bc e760 6000     `..`..`..`..`..`
    2ce8:	00d5 df60 6000 00ca e660 6000 00b4 cb60     ..`..`..`..`..`.
    2cf8:	6000 00e8 ef60 5b00 00c7 c55b 5b00 00c4     .`..`..[..[..[..
    2d08:	c25b 5b00 00bf 927a 7a00 0091 c65b 8c00     [..[..z..z..[...
    2d18:	000b 0d8c 8c00 000e 108c 8800 00b1 7779     ..............yw
    2d28:	7900 0078 138c 8c00 001a 1c8c 9000 002e     .yx.............
    2d38:	6265 5c00 0009 605c 5f00 0039 8b96 5800     eb.\..\`._9....X
    2d48:	0015 8f96 8600 00cb 8596 9600 0086 9096     ................
    2d58:	5a00 005a 765a 5a00 0049 8798 9800 0088     .ZZ.Zv.ZI.......
    2d68:	e97e 7e00 00ea ed7e 9a00 0091 f07e 7e00     ~..~..~.....~..~
    2d78:	00f3 f47e 7e00 00f5 f77e 7e00 00f8 fc7e     ..~..~..~..~..~.
    2d88:	7e00 00fd ff7e 7f00 0000 e25d 7400 0034     .~..~.....]..t4.
    2d98:	3374 7400 0022 3c74 6500 0091 ff66 6300     t3.t".t<.e..f..c
    2da8:	00cd 3e6b 5800 002a 5458 6400 002d 3058     ..k>.X*.XT.d-.X0
    2db8:	6300 00e9 8a8d 8d00 0081 8b8d 8d00 0085     .c..............
    2dc8:	fd63 5800 0024 d063 5300 005a ed63 5500     c..X$.c..SZ.c..U
    2dd8:	009c 6d5f 6300 00e3 d263 6300 00ea 1c64     .._m.c..c..c..d.
    2de8:	7100 006e f463 6400 0000 c188 6400 0001     .qn.c..d.....d..
    2df8:	1364 6400 0002 0564 5800 00f9 e163 6400     d..d..d..X..c..d
    2e08:	0014 c963 6500 00af 1f67 6b00 003a 5480     ..c..e..g..k:..T
    2e18:	8400 006b 6365 6000 00f9 6c84 5200 00df     ..k.ec.`...l.R..
    2e28:	5b84 8400 0063 6184 6500 006c 7184 8400     .[..c..a.el..q..
    2e38:	008b 8284 8400 003d e997 6700 001d 9c8f     ......=....g....
    2e48:	8400 0075 d268 6800 00f1 cb68 6900 0030     ..u.h..h..h..i0.
    2e58:	0d69 6800 00ee 1a71 6900 0005 1269 6800     i..h..q..i..i..h
    2e68:	00f5 cd68 6900 000e c968 6800 00da d568     ..h..i..h..h..h.
    2e78:	6800 00fa 9469 6900 002d e060 6000 00d1     .h..i..i-.`..`..
    2e88:	3c90 7c00 009f d868 9100 0063 6591 5300     .<.|..h...c..e.S
    2e98:	00a8 a653 7800 006c 5d78 7800 006e 6b78     ..S..xl.x].xn.xk
    2ea8:	9600 00c1 966b 8800 00c2 c496 9800 008a     ....k...........
    2eb8:	f396 6600 0082 c596 7f00 00d8 888f 6000     ...f...........`
    2ec8:	00b2 2b7d 5100 00ff 898f 6500 005e e068     ..}+.Q.....e^.h.
    2ed8:	8d00 004f 8c63 6600 0074 5077 6600 0091     ..O.c..ft.wP.f..
    2ee8:	0067 6600 0070 cf91 9f00 000e b755 5500     g..fp.......U..U
    2ef8:	00b3 7666 5500 0087 4790 5500 008a 4f90     ..fv.U...G.U...O
    2f08:	6600 007e 6f66 7500 0074 f58d 8d00 00cb     .f~.fo.ut.......
    2f18:	cc8d 8d00 00d1 db8d 9000 0057 d986 8600     ..........W.....
    2f28:	00db 1387 8700 0012 e486 5500 009d 439e     ...........U...C
    2f38:	5500 0082 9855 5500 0089 bb55 5500 007c     .U..U..U..U..U|.
    2f48:	a755 5d00 004c 455e 5e00 003d 4b8d 8d00     U..]L.^E.^=..K..
    2f58:	004c 4e8d 8d00 0050 548d 9e00 00d1 f894     L..N..P..T......
    2f68:	9400 00fa fe94 9500 0000 0195 9500 0004     ................
    2f78:	0595 9500 0008 0b95 9500 000c 1095 7500     ...............u
    2f88:	0025 b063 7700 00ed 7a66 6c00 002e ef6b     %.c..w..fz.l..k.
    2f98:	6c00 002f 459e 5200 0069 0d7a 7a00 000b     .l/..E.Ri.z..z..
    2fa8:	007a 7a00 000e 507b 7b00 0049 517b 7b00     z..z..{P.{I.{Q.{
    2fb8:	0056 5b7b 7b00 0052 4f7b 7b00 0054 4b7b     V.{[.{R.{O.{T.{K
    2fc8:	7b00 005d b250 5000 0085 4c72 5800 0021     .{].P..P..rL.X!.
    2fd8:	c696 7100 0026 8d50 5000 00a8 9376 7600     ...q&.P..P..v..v
    2fe8:	0096 a47c 5900 0065 5788 6000 00e9 a15f     ..|..Ye..W.`.._.
    2ff8:	5f00 00aa 4782 8200 0012 3e90 7500 006a     ._...G.....>.uj.
    3008:	ca91 7900 00bd 4a81 8100 003e 4b81 8100     ...y...J..>..K..
    3018:	0054 5581 9c00 0081 2973 7300 002c 3e73     T..U....s).s,.s>
    3028:	7300 0034 eb60 7100 0036 8899 9900 008b     .s4.`..q6.......
    3038:	c588 8600 00ee 315c 6500 0066 8c65 7500     ......\1.ef.e..u
    3048:	00d8 e275 7500 00ea db75 7a00 00e5 e37a     ..u..u..u..z..z.
    3058:	9600 0014 8455 7f00 00d4 a17f 6600 006e     ....U........fn.
    3068:	aa7c 5c00 000a 6059 9000 0053 4290 6600     |..\..Y`..S..B.f
    3078:	00fe 3071 6e00 002f de6e 6e00 0056 586e     ..q0.n/.n..nV.nX
    3088:	6e00 0023 246e 6e00 003a 7f6e 6e00 0029     .n#.n$.n:.n..n).
    3098:	346e 6e00 0083 856e 6e00 00d1 436e 6e00     n4.n..n..n..nC.n
    30a8:	001d 7e6e 6e00 0021 386e 6e00 00cb 326e     ..n~.n!.n8.n..n2
    30b8:	6e00 0089 2461 6100 004c f060 6100 0015     .n..a$.aL.`..a..
    30c8:	2361 6000 00f6 2761 6100 0009 6861 5200     a#.`..a'.a..ah.R
    30d8:	0072 d25b 5b00 00cc d35b 7a00 009c 9d7a     r.[..[..[..z..z.
    30e8:	7a00 0096 977a 7a00 0098 4d90 9600 00c7     .z..z..z...M....
    30f8:	d588 8800 00e4 d988 7900 0085 8479 8c00     .........y..y...
    3108:	0022 238c 8c00 0024 268c 7200 0080 5e5c     "..#..$..&.r..\^
    3118:	5c00 0061 3a5f 7c00 00a5 8f75 9600 0094     .\a._:.|..u.....
    3128:	9996 9600 0098 925a 7d00 006e c25a 5a00     ......Z..}n.Z..Z
    3138:	009a 7f5a 7600 007b 057f 7f00 0006 097f     ..Z..v{.........
    3148:	7f00 000e 137f 7f00 0014 157f 9a00 0097     ................
    3158:	167f 9a00 009a 187f 7400 005f 499e 7400     .........t_..I.t
    3168:	005e 7074 7400 0059 429b 8000 0086 4464     ^.tp.tY..B....dD
    3178:	6400 0078 6b58 6400 000f 4c58 9f00 0013     .dx.Xk.d..XL....
    3188:	4664 6400 003a 2c64 6400 0047 1e64 5800     dF.d:.d,.dG.d..X
    3198:	0058 4a64 8000 0058 9f65 8400 009c e452     X.dJ..X.e.....R.
    31a8:	9700 0074 7697 9e00 004a dd84 5800 0093     ..t..v..J....X..
    31b8:	555e 8400 00ec c484 8400 00b2 c984 8400     ^U..............
    31c8:	0099 b884 7300 002e 3f69 7900 0081 5a69     .....s..i?.y..iZ
    31d8:	6900 0077 8469 6000 00f3 d069 6900 0086     .iw.i..`..i..i..
    31e8:	7c69 6900 0082 568d 9100 006a 6c91 6100     i|.i...V..j..l.a
    31f8:	001f 8d78 7800 0098 9178 7800 008e b078     ..x..x..x..x..x.
    3208:	7800 0097 8c78 5c00 0034 f796 9600 00f6     .x..x..\4.......
    3218:	fe96 9600 00f9 908f 8f00 0091 938f 7700     ...............w
    3228:	0063 9198 9f00 0084 7492 7700 005b 7977     c........t.w[.wy
    3238:	7700 0066 8477 7700 006b 6177 7700 006c     .wf.w..wk.wa.wl.
    3248:	dc55 9100 0019 e655 6100 001a 9666 7600     U.....U..a..f..v
    3258:	00df 476b 6600 0097 8766 7100 0067 7875     ..kG.f..f..qg.ux
    3268:	8d00 00e8 f78d 8d00 00f3 fa8d 8d00 00ea     ................
    3278:	ef8d 8d00 00e4 df8d 9000 0063 0887 8700     ..........c.....
    3288:	0017 fe86 8700 0002 1587 5500 00c5 e155     ...........U..U.
    3298:	5500 00d3 727f 7f00 006e 6a7f 7f00 0069     .U...r..n..j..i.
    32a8:	0087 5e00 004c 1995 9500 001a 2195 9500     ...^L........!..
    32b8:	0023 2495 9500 0025 2695 9500 002e 2f95     #..$..%..&...../
    32c8:	9500 0030 ee77 8f00 009e 1a7a 7a00 0020     ..0.w.....z..z .
    32d8:	9398 6100 0001 797b 7b00 007e 807b 7b00     ...a..{y.{~.{..{
    32e8:	0077 c16b 8200 0005 209f 5000 00ac bb50     w.k...... .P..P.
    32f8:	5000 00cf b28e 9b00 0041 5988 5f00 00ae     .P......A..Y._..
    3308:	0861 9000 0065 7b81 8100 0070 6581 8100     a...e..{..p..e..
    3318:	006e 7981 8100 007a 4f9e 8100 007e 7f81     n..y..z..O..~...
    3328:	9c00 008d 3f73 9800 0096 e689 8900 00e3     ....s?..........
    3338:	5e71 9600 00cf 8d99 9900 008f 7191 7900     q^...........q.y
    3348:	0080 f975 5e00 00d3 f475 7500 00f0 c95e     ..u..^..u..u..^.
    3358:	9700 0056 b065 9700 00f5 0f61 8a00 008a     ..V.e.....a.....
    3368:	ae7c 6500 0070 4e71 5800 0051 4861 7100     |..ep.qN.XQ.aH.q
    3378:	0064 4c71 6e00 00e1 206f 6e00 00c7 906e     d.qL.n..o .n..n.
    3388:	6e00 00e4 e56e 6e00 00d4 aa6e 6e00 009c     .n..n..n..n..n..
    3398:	136f 6e00 00da a26e 6e00 00af e86e 6e00     o..n..n..n..n..n
    33a8:	00b6 ba6e 7c00 00b1 e96e 6100 004e 898a     ..n..|..n..aN...
    33b8:	5800 005e de5b 7a00 00a5 9f7a 5b00 00dd     .X^.[..z..z..[..
    33c8:	288c 8900 0002 f888 7900 008f 2c8c 7f00     .(.......y...,..
    33d8:	00a4 bf6b 8f00 009f 9c96 5a00 00b3 c95a     ..k........Z..Z.
    33e8:	5a00 00cc c15a 5300 00e0 1a7f 7f00 001d     .Z..Z..S........
    33f8:	207f 7f00 0024 7f52 9700 0059 a778 7400     . ..$.R...Y.x..t
    3408:	0083 588d 7100 00ac 9958 5800 009f 0956     ...X.q..X..X..V.
    3418:	6400 0067 6b8d 6200 002a 938a 5800 0083     .dg..k.b*....X..
    3428:	5864 6400 0054 8764 8000 005a 5561 6600     dX.dT.d...Z.aU.f
    3438:	00ae 7964 8500 0013 1185 8500 0021 1785     ..dy........!...
    3448:	8500 003d 3c85 7100 0099 1a85 5100 0062     ..=..<.q.....Qb.
    3458:	216a 6900 00db b469 6900 009c a869 6900     j!.i..i..i..i..i
    3468:	0095 4c6b 9000 006d 7591 9100 0077 7f91     ..kL..m..u..w...
    3478:	9100 0078 9f78 7800 00b1 b378 7800 00c1     ..x.x..x..x..x..
    3488:	3f61 9700 0000 968f 8f00 0097 cc96 8800     a?..............
    3498:	00f3 9798 7700 0085 8558 5500 00fd 0a8e     .....w..X..U....
    34a8:	8700 003b 2187 8700 0047 1887 8700 0049     ..;..!..G.....I.
    34b8:	1b56 5600 0000 5a8d 9500 0039 3b95 9500     V..V...Z..9..;..
    34c8:	0040 1e82 8200 0014 337a 7100 008f 957b     @.......z3.q..{.
    34d8:	7b00 0097 a97b 7b00 00a1 ab7b 8200 0006     .{..{..{..{.....
    34e8:	da50 5000 00e7 3b9f 9b00 0044 459b 8c00     P..P...;..D..E..
    34f8:	008c 9c81 8100 008a 8081 9c00 009c 9175     ..............u.
    3508:	5b00 0075 9299 8800 00f9 7265 8c00 006a     .[u.......er..j.
    3518:	8f81 9000 006e 5081 7600 0029 1f76 7600     ....n..P.v).v..v
    3528:	0026 a38f 5f00 0070 ed7a 7a00 00ef d765     &...._p.z..z..e.
    3538:	7c00 00be b97c 6b00 0049 0a5f 7100 0084     .|..|..kI._..q..
    3548:	9471 7100 007d 476f 6f00 0006 316f 6f00     q..q}.oG.o..o1.o
    3558:	0002 2b6f 6e00 00f4 3e6f 6f00 0014 0f6f     ..o+.n..o>.o..o.
    3568:	6100 0062 7761 5b00 00e8 5b8d 5b00 00e1     .ab.aw.[...[.[..
    3578:	df5b 8700 001c e55b 8c00 002d 8780 8900     [.....[...-.....
    3588:	0010 2a89 8c00 0031 a796 5a00 00e9 e07f     ...*..1....Z....
    3598:	7100 008a f351 9a00 00a1 297f 6100 0067     .q..Q......).ag.
    35a8:	b564 6400 0095 9264 6400 00a9 a38d 8d00     d..d..d..d......
    35b8:	009f 9164 6400 00ae ac64 6400 00ad d264     ..d..d..d..d..d.
    35c8:	5800 00a9 9e64 6400 00a4 9e58 6400 00b0     .X..d..d..X..d..
    35d8:	6a80 9700 008b 8d97 8500 0049 4a85 8500     .j........I..J..
    35e8:	002c 7485 6a00 002a fd69 6a00 0031 616a     ,..t.j*.i..j1.ja
    35f8:	6a00 001f 446a 6500 0077 4c8c 9800 00d8     .j..jD.ew..L....
    3608:	8b91 9100 0087 8991 7800 00d5 ca78 7800     .........x..x..x
    3618:	00c5 be78 9700 0007 0497 9700 0009 9277     ..x...........w.
    3628:	9800 0098 b466 7700 008e 3b56 5600 0036     ....f..w..V;.V6.
    3638:	3256 5600 0039 715f 8e00 0022 0f8e 8e00     V2.V9._q..".....
    3648:	0029 2a8e 8700 0076 7487 8700 0060 4e87     )..*..v..t..`..N
    3658:	8700 004c 5787 8700 0059 3f56 5600 0031     ..L..W..Y.V?.V1.
    3668:	625e 5800 00a8 4795 9500 0050 5195 9700     ^b.X...G..P..Q..
    3678:	0060 3d7a 7a00 003b ce9e 7a00 003f 3c7a     `.z=.z;....z?.z<
    3688:	7b00 00b1 d37b 7b00 00ad c77b 5000 00f5     .{..{..{..{..P..
    3698:	ba8e 5000 00fb b75f 8200 0058 9d81 8100     ...P.._...X.....
    36a8:	009b a49c 9c00 00ab 9f71 6400 0069 1289     ........q..di...
    36b8:	7600 002a 2476 7600 002b db51 9800 009c     .v*.v$.v+.Q.....
    36c8:	c56b 7c00 00ca 7590 6100 008b 5c6f 6f00     k..|...u.a..o\.o
    36d8:	008e 6e6f 6f00 006d a89c 6f00 00b3 586f     ..on.om....o..oX
    36e8:	6f00 0088 9c6f 6f00 0084 c261 6100 0094     .o..o..o..a..a..
    36f8:	ca61 6100 008e 9d98 7f00 00e9 2589 8c00     a..a.........%..
    3708:	0034 649e 6100 00a8 7061 5200 0088 655c     4..d.a..ap.R..\e
    3718:	8c00 006b 2d7f 6400 00bc c264 6400 00cd     ..k..-.d..d..d..
    3728:	c564 7100 00d5 7e85 8500 00af 9b85 8500     d..q...~........
    3738:	0087 ce64 8500 00aa 8485 9800 00a0 f07f     ..d.............
    3748:	5600 0069 716a 6a00 0059 586a 6500 0074     .Vi.jq.jY.jX.et.
    3758:	8d87 7400 00e2 9291 9700 000d 0e97 8f00     ...t............
    3768:	0099 8051 9900 0010 3456 8e00 0031 448e     ..Q.....V4..1..D
    3778:	8e00 0042 c687 8700 0083 6856 5600 006a     ..B.......Vh.Vj.
    3788:	669e 8d00 0060 d89e 9e00 00d4 5c95 8d00     .f..`........\..
    3798:	005e 467a 7b00 00ee e17b 7b00 00f7 f17b     ^.zF.{..{..{..{.
    37a8:	5100 0012 8090 8800 0061 a881 9600 00d5     .Q......a.......
    37b8:	b89c 7800 00e8 3e76 7600 0038 dd51 8f00     ...x..v>.v8.Q...
    37c8:	00a8 a98f 7c00 00d9 d67c 7c00 00d5 c371     .....|..|..|..q.
    37d8:	6f00 00d2 a16f 6f00 00c0 d261 6100 00be     .o..o..o..a..a..
    37e8:	c861 7a00 00bf c158 9000 007f 307f 7f00     a..z..X......0..
    37f8:	0034 3462 6400 00e6 c985 9700 00a0 cf85     4.b4.d..........
    3808:	8500 00d0 ac6a 6a00 0090 806a 7900 0001     ....j..j..j..y..
    3818:	f778 9700 001c 1e97 7700 00ad a777 7700     x........w..w..w
    3828:	00ac b377 7700 00a9 aa77 6600 00d9 4b8e     ..w..w..w..f...K
    3838:	8e00 0048 ba87 8700 00cb c087 5600 008e     ..H..........V..
    3848:	618d 7a00 0057 4f9b 7c00 0027 077c 7e00     .a.zW..O.|'.|..~
    3858:	0041 bd5f 7200 0035 2667 8100 00ca c49c     A._..r5.g&......
    3868:	7600 004c ab8f 8d00 0062 df7c 7c00 00e0     .vL.....b.|..|..
    3878:	e571 6100 00e6 418c 8100 00c0 c281 7f00     q..a...A........
    3888:	00fc a49a 8500 00d5 ad97 8500 00e4 8689     ................
    3898:	7700 00bb 668e 5600 00a3 7095 7f00 00fb     .w...f.V...p....
    38a8:	cd9c 9e00 0070 1170 8900 005f a774 6200     ....p.p..._.t..b
    38b8:	0033 7d5b 8b00 0066 1186 8500 00fb 0065     3.[}..f.......e.
    38c8:	6600 00dd 728e 8e00 006d 6c8e 5d00 00c5     .f...r..m..l.]..
    38d8:	387c 7c00 003f f987 9800 00a4 6197 7600     |8.|?........a.v
    38e8:	0063 e374 7f00 00b9 d69c 7200 0006 8675     c.t........r..u.
    38f8:	9b00 0013 e458 9900 00a8 0080 8e00 0081     ....X...........
    3908:	1588 5600 00bc b756 5d00 00cd 4d7c 9c00     ...V..V..]..|M..
    3918:	00de 549b 7c00 00ef 4c70 8b00 006c 2288     ...T.|..pL..l.."
    3928:	9700 0038 3297 9700 0039 8f8e 9e00 00ef     ..8..2..9.......
    3938:	d39a 8d00 0063 ca56 9500 0076 e474 7f00     ....c.V...v.t...
    3948:	0050 d777 4e00 0042 5c4e 5100 0040 0b5f     P.w..NB.N\.Q@._.
    3958:	5b00 0051 535b 5e00 007a 934e 9700 00e6     .[Q.[S.^z.N.....
    3968:	ff5e 4e00 000f 4553 4e00 00c4 8453 4e00     ^..N..SE.N..S..N
    3978:	00c3 c94e 4e00 00c2 6e51 5200 0008 3b72     ..N..N..Qn.R..r;
    3988:	5300 005e e995 8b00 00a3 395c 5900 002c     .S^.......\9.Y,.
    3998:	3f72 6b00 00cb 9790 9000 009b 7d82 8200     r?.k.........}..
    39a8:	007f 2d67 5300 00f5 1d53 4e00 0015 1c53     ..g-.S..S..N..S.
    39b8:	5200 00a2 5f53 5300 00f1 fb53 4e00 00e8     .R..S_.S..S..N..
    39c8:	d54e 4e00 00df e14e 4e00 00eb de4e 5300     N..N..N..N..N..S
    39d8:	006e 106c 7200 00b0 0d52 9000 009d 9990     n.l..r..R.......
    39e8:	6c00 0040 a68b 8b00 00a7 aa8b 8b00 00ab     .l@.............
    39f8:	3b5c 9600 0021 155c 5f00 0001 6d9a 5300     \;..!.\.._...m.S
    3a08:	0021 1280 7300 008e 9173 9000 00a2 2957     !....s..s.....W)
    3a18:	5700 002c 2d57 6200 0066 2a57 5700 0033     .W,.W-.bf.W*.W3.
    3a28:	3957 6200 006a 2e57 5700 002f 8a82 8200     W9.bj.W..W/.....
    3a38:	008d 8482 8200 00a8 9182 8200 008e 9782     ................
    3a48:	4e00 0098 8d53 5900 003c 0d62 5c00 0025     .N..S..Y<.b..\%.
    3a58:	694e 6500 00ef f366 5c00 008c 7a5c 5100     Ni.e..f..\..\z.Q
    3a68:	00fc e156 9400 0087 367f 6c00 0018 166c     ..V......6.l..l.
    3a78:	7200 005d 0e4f 4f00 001b 224f 4f00 0064     .r].O..O..O".Od.
    3a88:	f54e 4f00 0025 274f 4f00 0009 2b4f 5600     N..O%.O'.O..O+.V
    3a98:	00df 466c 5200 0016 1959 6500 00ee 0e52     ..lF.R..Y..e..R.
    3aa8:	7200 00b7 b872 8200 001b eb51 9000 00ac     .r..r.....Q.....
    3ab8:	6799 6c00 0055 546c 6c00 0050 726c 6c00     .g.lU.lT.lP.lr.l
    3ac8:	005c 4a6c 5f00 00d6 cf5f 8b00 00b4 b58b     \.lJ._.._.......
    3ad8:	7900 0041 b78b 8000 007f 6e82 5300 00be     .yA........n.S..
    3ae8:	3196 9600 002e 2a96 4e00 001e 8159 7200     .1.....*.N..Y..r
    3af8:	005f a17e 7e00 00a3 a57e 7e00 00a8 9573     _.~..~..~..~..s.
    3b08:	7300 0099 9f62 6200 0094 3b57 5700 0042     .s..b..b..W;.WB.
    3b18:	4d57 5700 005e 8362 6200 0089 d039 8200     WM.W^.b..b..9...
    3b28:	00ab af90 8200 00b8 be82 8200 00c8 e382     ................
    3b38:	8200 00b7 ae82 8200 00cb bc82 8200 00cc     ................
    3b48:	c182 8200 00a9 aa82 8200 00a1 9f82 8200     ................
    3b58:	00c4 ce82 8200 00e1 4c67 6700 0053 5e67     ........gL.gS.g^
    3b68:	6700 0048 d15f 5b00 005b b490 9000 00b3     .gH._..[[.......
    3b78:	f677 5900 0041 558c 5f00 00d2 246b 8f00     w..YA..U._..k$..
    3b88:	006b d38f 9000 00b6 d05f 5300 0063 ba90     k......._..Sc...
    3b98:	6500 00f0 4b54 5400 0052 5354 5400 0054     .e..TK.TR.TS.TT.
    3ba8:	5654 5400 0043 f865 5400 0021 3a75 8600     TV.TC.e..T!.u:..
    3bb8:	006c 5754 5400 003d 2354 5400 0032 0f5e     l.TW.T=.T#.T2.^.
    3bc8:	5c00 0090 885c 5c00 0098 915c 5c00 009a     .\..\..\..\..\..
    3bd8:	5551 5600 00f5 eb56 9400 008a 8b94 9400     QU.V..V.........
    3be8:	008c d58f 6c00 0019 1a6c 7200 0064 5e4f     .....l..l..rd.O^
    3bf8:	9000 00b1 3865 4f00 005a 5d4f 4f00 005f     ....e8.OZ.O].O_.
    3c08:	574f 4f00 003d 775f 4f00 0058 654f 5b00     OW.O=._w.OX.Oe.[
    3c18:	005a 788c 5700 004c 9f80 9000 00b8 4259     Z..x.WL.......YB
    3c28:	5200 00ac c472 7200 00c1 209e 9000 00b9     .R..r..r... ....
    3c38:	6899 9900 0069 6a99 9900 006b 6c99 4e00     .h..i..j..k..l.N
    3c48:	00a8 915e 5e00 008b 9475 7500 0096 9380     ..^..^..u..u....
    3c58:	9500 00f1 f395 9500 00f5 8c7f 7000 0080     .............p..
    3c68:	a36c 6c00 0085 946c 6c00 00a4 8c6c 6c00     l..l..l..l..l..l
    3c78:	008f 9a6c 6c00 0069 686c 6c00 0082 7e6c     ..l..li.lh.l..l~
    3c88:	6c00 00a8 746c 6c00 0076 866c 6c00 00a9     .l..lt.lv.l..l..
    3c98:	d06c 6000 0003 0460 5f00 00e1 e45f 5f00     l..`..`.._.._.._
    3ca8:	00fe 0560 5f00 00fb ea5f 6000 0006 ed5f     ..`.._.._..`.._.
    3cb8:	5f00 00f8 c28b 8b00 00c3 c58b 8b00 00cb     ._..............
    3cc8:	cc8b 8b00 00cf d28b 5b00 005c 4796 9600     .........[\..G..
    3cd8:	0040 4296 9600 0049 8d59 5900 00a9 aa59     @..B..I.Y..Y..Y.
    3ce8:	5900 00a3 8a59 5900 0097 ab59 5900 009e     .Y..Y..Y..Y..Y..
    3cf8:	d259 5900 00a4 b590 5200 00ad 2d52 7500     Y..Y.....R..R-.u
    3d08:	002c b090 7e00 00ad b07e 7e00 00b4 b67e     ,....~..~..~..~.
    3d18:	7e00 00be ae73 7300 00a1 ad73 7300 00a0     .~..s..s..s..s..
    3d28:	a273 7300 00a5 a673 7600 00c2 dd5f 5300     s..s..s..v.._..S
    3d38:	0026 6957 6200 00a8 e462 5700 006b c862     &.Wi.b..b..Wk.b.
    3d48:	5700 0086 bb62 5200 00bc c362 6200 00ca     .W..b..R..b..b..
    3d58:	7c57 5700 007b df39 5700 0068 6d57 6200     W|.W{.9..Wh.Wm.b
    3d68:	00bf 7357 8000 0036 f782 8200 00ef e482     ..Ws..6.........
    3d78:	8300 000f eb82 8200 00dc f482 8200 00d2     ................
    3d88:	d882 8300 000c fb82 8200 00d3 1a83 8300     ................
    3d98:	0006 1183 8300 0013 1483 8300 0015 0083     ................
    3da8:	8200 00d5 a567 6700 0087 6a67 6700 0073     ....g..g..gj.gs.
    3db8:	a767 6700 0075 a867 6700 009e 8b67 6700     g..gu.g..g..g..g
    3dc8:	007b 7767 6700 007c f877 7800 0000 3352     {.gw.g|.w..x..R3
    3dd8:	5900 0044 ef74 6b00 0081 cf90 8f00 006d     .YD.t..k......m.
    3de8:	c590 9e00 0022 f176 6600 000a 1966 6700     ....".v..f..f..g
    3df8:	0072 0366 5400 0082 7854 6600 0015 0066     r.f..T..Tx.f..f.
    3e08:	6500 00fb 0966 7000 0085 9454 7500 0040     .e..f..p..T..u@.
    3e18:	6e86 5400 0080 7754 9e00 00fe 7154 5400     .n.T..Tw....Tq.T
    3e28:	0064 9a54 5400 0086 9b54 5400 0076 6354     d.T..T..T..Tv.Tc
    3e38:	5400 0066 9d54 5c00 00a2 bf5c 5c00 00ac     .Tf.T..\..\..\..
    3e48:	ab5c 5e00 0019 a35c 5c00 00c1 3f52 8f00     \..^..\..\..R?..
    3e58:	00e5 b75c 5200 0040 145e 5c00 00c4 936c     ..\..R@.^..\..l.
    3e68:	5600 00f9 547f 9400 008d 8e94 9400 008f     .V...T..........
    3e78:	9294 9400 0095 9794 9000 00be ee8f 7200     ...............r
    3e88:	0066 fa7a 8f00 00e4 764f 4f00 006c 704f     f.z.....Ov.Ol.Op
    3e98:	4f00 0091 894f 8100 00fe b15c 4f00 0097     .O..O.....\..O..
    3ea8:	834f 4f00 008f a94f 4f00 007b 7e4f 4f00     O..O..O..O{.O~.O
    3eb8:	00aa 7c4f 4f00 006f ac4f 5e00 001b 1c96     ..O|.Oo.O..^....
    3ec8:	4f00 0094 825f 5200 003d c490 6000 0002     .O.._..R=....`..
    3ed8:	747c 7400 00ee 1762 8000 00bc dd43 8000     |t.t..b.....C...
    3ee8:	00bd b180 8000 00ab 4152 8f00 00e9 c790     ........RA......
    3ef8:	7200 00d9 ce72 7200 00cd d272 5400 008e     .r..r..r..r..T..
    3f08:	9970 6700 00ad 6f99 9900 0074 bd51 5100     p..g...o..t.Q..Q
    3f18:	00bc 965e 7500 00a0 9d75 7500 00a1 5651     ..^..u..u..u..QV
    3f28:	5900 00be be52 7000 029c 7cc2 7000 0096     .Y..R..p...|.p..
    3f38:	9870 7000 009d 9470 6c00 00d4 ad6c 6c00     p..p..p..l..l..l
    3f48:	00f7 f86c 6c00 00f1 c56c 6c00 00d7 e06c     ..l..l..l..l..l.
    3f58:	6c00 00fa d66c 6c00 00eb ee6c 6c00 00b1     .l..l..l..l..l..
    3f68:	ef6c 6c00 00d3 fe6c 6000 0019 3560 6000     l..l..l..`..`5.`
    3f78:	0026 1b60 6000 000f 0d60 3900 0018 2960     &.`..`..`..9..`)
    3f88:	6000 002b 3f60 5b00 0095 797a 5b00 0093     .`+.`?.[..zy.[..
    3f98:	d38b 8b00 00d4 d68b 8b00 00d8 3e62 8b00     ............b>..
    3fa8:	00d9 3d62 9000 00d3 6988 7900 0046 4e79     ..b=.....i.yF.yN
    3fb8:	7900 0049 4779 8b00 00db dc8b 8b00 00df     .yI.yG..........
    3fc8:	e08b 8b00 00e3 e48b 8b00 00e7 e88b 8b00     ................
    3fd8:	00e9 1562 5b00 0062 9f4e 9600 0054 b259     ..b..[b.N...T.Y.
    3fe8:	5900 00af d759 5e00 0011 295f 5b00 0065     .Y..Y..^.._).[e.
    3ff8:	7d9a 8600 0071 e68f 8f00 00e8 c07e 7e00     .}..q.......~..~
    4008:	00c1 c27e 9a00 0077 789a 7e00 00c9 cc7e     ..~...w..x.~..~.
    4018:	9a00 007f 809a 7500 003e cf73 7300 00d0     .......u>.s..s..
    4028:	c273 7300 00d1 b373 7300 00c0 7898 7300     s..s..s..s...x.s
    4038:	00c9 c873 6200 00ee ad57 6300 001d a357     ..s..b..W..c..W.
    4048:	6300 001e a457 8d00 0073 328d 5700 00b1     .c..W...s..2.W..
    4058:	8c57 9000 00dd a757 5700 0093 2663 5700     W.....W..W..c&.W
    4068:	00a0 1c83 8300 005a 5183 8d00 0033 5c83     ......Z..Q..3..\
    4078:	8300 0092 3c83 8300 0034 3183 8300 009b     .....<..4..1....
    4088:	5e83 8300 002f 4f83 8300 0047 4383 8300     .^../..O..G..C..
    4098:	005f 4083 8300 0017 6083 8300 002d 2883     _..@.....`..-..(
    40a8:	5700 00a9 6583 8300 0066 6883 8300 0069     .W...e..f..h..i.
    40b8:	4b52 8300 006a 3983 8300 006c 6e83 6700     RK..j..9..l..n.g
    40c8:	00f0 0968 6700 00ef d867 6800 000a e967     ..h..g..g..h..g.
    40d8:	6700 00b0 0c68 6700 00d9 b567 6700 00da     .g..h..g..g..g..
    40e8:	b367 6700 00de dd67 6800 0000 e267 6800     g..g..g..h..g..h
    40f8:	000e b867 6700 00c8 c167 6700 00b7 fd67     ..g..g..g..g..g.
    4108:	5200 004c 4a91 9000 00e6 2d75 7800 0017     .RL..J....u-.x..
    4118:	1878 7800 0012 ab65 7800 002d 1c78 5900     x..x..e..x-.x..Y
    4128:	004e 3780 8600 007a 826b 6b00 0087 846b     N..7..z.k..k..k.
    4138:	6b00 0086 718f 8f00 0072 738f 8f00 0076     .k...q..r..s..v.
    4148:	788f 8600 007f d66b 8900 00c7 1c5c 5400     .x....k.....\..T
    4158:	00d0 0477 7700 020d d00c 9000 00e2 0777     ..w..w........w.
    4168:	7700 000a 0877 7900 00ba c254 5400 00b4     .w..w..y..T..T..
    4178:	f766 6600 0034 3166 6600 0035 a654 5400     f..f4.f1.f5.T..T
    4188:	00d3 d454 7500 004e d76b 5400 0072 c480     ..T..uN.k..Tr...
    4198:	7500 004b 4875 8600 007c 7b86 7600 00c5     .uK.uH..|..{.v..
    41a8:	a354 5400 00d5 5052 9000 00e7 bb54 5600     T..T..RP....T..V
    41b8:	00ff bf54 5400 00cc d954 5400 00da af54     ..T..T..T..T..T.
    41c8:	5400 00a9 a454 5400 00dd cf54 5400 00de     .T..T..T..T..T..
    41d8:	d95c 5c00 00e3 587f 5e00 0027 d25c 5c00     \..\...X.^'.\..\
    41e8:	00e4 cb5c 5c00 00e5 368d 9400 009a 9b94     ..\..\...6......
    41f8:	9400 00a1 a394 9400 00a4 a894 9400 00ab     ................
    4208:	af94 6c00 0021 1f6c 7200 006f dc90 7900     ...l!.l..ro....y
    4218:	00d5 ed79 7a00 00fd 087b 7b00 0003 e64f     ..y..z..{..{..O.
    4228:	4f00 00e8 c54f 4f00 00ea df53 5700 00a1     .O..O..O..S..W..
    4238:	6e72 4f00 00e3 da4f 7600 0088 d14f 4f00     rn.O..O..v..O..O
    4248:	00df 0590 5f00 0087 895f 8200 0022 de4f     ....._.._...".O.
    4258:	9000 00d7 ce4f 9000 00e4 3072 9000 00db     ....O.....r0....
    4268:	f474 8000 00e8 ea80 8000 00db c280 8000     t...............
    4278:	00d9 cd80 8000 00d7 dd80 6700 0010 eb80     ...........g....
    4288:	9e00 0028 0d53 7200 00e8 ef72 9800 00d1     ..(.S..r..r.....
    4298:	e972 7200 00f2 078a 9000 0004 1d66 9900     r..r........f...
    42a8:	0077 7899 9900 0079 e480 5b00 006a 085a     w..x..y....[j.Z.
    42b8:	5f00 0008 5559 5e00 00a5 ac75 7500 00a3     ._..YU.^..u..u..
    42c8:	a575 7500 00ad a05e 7a00 00d1 665f 9800     u..u..^..z.._f..
    42d8:	00d2 fc95 9500 00fe ff95 9600 0002 917f     ................
    42e8:	8f00 00f8 7c7c 9100 004b b370 7000 00bb     ....||..K.p..p..
    42f8:	bd70 7000 00af c070 7000 00b7 c370 6d00     p..p..p..p..p..m
    4308:	0031 396d 6d00 0027 0c6d 6d00 0043 076d     1.m9.m'.m..mC.m.
    4318:	6d00 0004 196d 6d00 008e 0e6d 6d00 002b     .m..m..m..m..m+.
    4328:	4d6d 6d00 002e 356d 6d00 0052 546d 6d00     mM.m..m5.mR.mT.m
    4338:	0055 336d 6000 0078 5360 6000 0079 6b60     U.m3.`x.`S.`y.`k
    4348:	6000 007a 7b60 6000 0042 6a60 6000 007d     .`z.`{.`B.`j.`}.
    4358:	a55b 6200 0043 7288 8800 007d 7f88 8800     [..bC..r..}.....
    4368:	0082 5b79 7900 005c 5379 7900 005a ee8b     ..y[.y\.yS.yZ...
    4378:	7900 0057 6279 8b00 00f0 f38b 9e00 0029     .yW.yb........).
    4388:	3666 9000 00e1 ab54 5f00 002d 4172 8000     f6....T.._-.rA..
    4398:	00e5 5b96 9600 005f 055a 5900 00ee 065a     ...[.._.Z..Y..Z.
    43a8:	5900 00dd e359 5900 00d8 f959 6000 003c     .Y..Y..Y..Y..`<.
    43b8:	bf7f 7000 00b1 dc77 7e00 00d4 819a 9a00     ...p..w..~......
    43c8:	0085 d77e 7e00 00db 889a 8000 0016 0863     ..~..~........c.
    43d8:	7300 00e5 d973 9800 007c f073 7300 00e9     .s..s...|.s..s..
    43e8:	e773 7300 00e3 de73 7400 0024 f273 6500     s..s..s..t$.s..e
    43f8:	0056 5a60 5700 00d4 d557 5700 00d8 d957     V.`Z.W..W..W..W.
    4408:	5700 00da 3963 8000 0006 0480 5700 00d2     .W..c9.......W..
    4418:	4b63 8d00 003d b857 6300 0043 cd76 8300     cK..=.W..cC.v...
    4428:	0078 8683 8300 00b3 b483 8300 00aa a083     x...............
    4438:	8300 0093 9c83 8300 0085 7c83 8300 00a9     ...........|....
    4448:	7d83 8300 00b8 7b83 8300 0098 8e83 8300     .}.....{........
    4458:	009e a883 9e00 002a bc83 6800 0032 3368     ......*....h2.h3
    4468:	9000 00f4 5368 6800 0061 4e68 6800 0062     ....hS.ha.hN.hb.
    4478:	6468 6800 0083 1d68 6800 0055 4168 6800     hd.h..h..hU.hA.h
    4488:	0067 4568 6800 001f 4968 6800 0029 1190     g.hE.h..hI.h)...
    4498:	9000 000b 675f 9b00 0032 478c 9100 0050     ...._g..2..G..P.
    44a8:	2690 5300 009d 6c5b 7800 001d 3978 7800     .&.S..[l.x..x9.x
    44b8:	003a 2778 7800 0037 1f78 7800 003c 2578     :.x'.x7.x..x<.x%
    44c8:	7800 0023 5e52 7800 003b 7c8f 8f00 007e     .x#.R^.x;..|..~.
    44d8:	828f 9e00 002b b88d 9f00 0080 2c9e 8600     ....+........,..
    44e8:	0054 0d90 7700 002c 1b55 6600 005f 2977     T....w,.U..f_.w)
    44f8:	7700 0019 e754 5400 00fd 1455 6600 0041     .w..T..T..U..fA.
    4508:	4f66 9e00 002e b58d 8d00 00bf 5b75 8600     fO..........u[..
    4518:	00a8 9c86 8600 008d 8b86 8600 00ac 9d86     ................
    4528:	8600 00a7 2255 5700 0004 2355 5500 000f     ....U".W..U#.U..
    4538:	ce76 5500 0011 025d 5d00 0003 617f 7f00     v..U..]..]...a..
    4548:	005f ea5c 8900 00ca 458d 9400 00b0 b294     _.\......E......
    4558:	9400 00b4 b594 9400 00b9 ba94 9400 00bd     ................
    4568:	bc94 9400 00bf c094 9400 00c2 c494 9400     ................
    4578:	00c6 c894 9400 00c9 ca94 9400 00cb cc94     ................
    4588:	9400 00cd 7d49 9400 00ce 296c 6c00 0024     ....I}....l).l$.
    4598:	266c 6b00 00ea 1082 7900 00e3 eb79 7600     l&.k.....y..y..v
    45a8:	00c9 047b 7b00 0015 0a7b 7b00 000f 067b     ..{..{..{..{..{.
    45b8:	4f00 00f8 2950 4f00 00f5 4c50 4f00 00f3     .O..P).O..PL.O..
    45c8:	f64f 5000 002c 0f50 6000 0041 2d50 5000     O..P,.P..`A.P-.P
    45d8:	002a fe4f 5000 001c bc96 9600 00bd 0c50     *.O..P........P.
    45e8:	5000 0025 ec81 7600 008b eb90 5000 0028     .P%....v.....P(.
    45f8:	4488 9800 0080 955f 8200 002b dc91 5900     .D...._...+....Y
    4608:	005a 7e88 8000 00ef f180 8000 00f4 ed80     Z..~............
    4618:	8100 000d fc80 6700 0015 1281 8000 00fa     .......g........
    4628:	319e 7300 00ba 329e 7200 00f7 0173 7200     .1.s...2.r..s..r
    4638:	00f3 0373 7200 00fa 1690 6800 0040 8588     ..s..r.....h@...
    4648:	9900 007d c751 6800 003e 1b63 4e00 00b3     ..}.Q..h>.c..N..
    4658:	b375 7500 00b4 b875 7500 00bd c875 7500     u..u..u..u..u..u
    4668:	00b1 c275 7500 00c9 6e88 5100 00cb 8398     ..u..u...n.Q....
    4678:	6000 0063 c665 6500 00c4 c365 9600 0003     .`c.e..e..e.....
    4688:	0496 8a00 001a 0696 6000 0059 917c 6700     .........`Y.|..g
    4698:	0014 f890 7000 00dc e870 7000 00e9 ca70     .....p..p..p..p.
    46a8:	5200 0061 ef90 7000 00ec 916d 6d00 006f     .Ra....p..m..mo.
    46b8:	9e6d 6d00 009f 115a 6d00 0085 a06d 6d00     m..m..Z..m..m..m
    46c8:	005e 936d 6d00 0065 946d 6d00 005c 606d     ^.m..me.m..m\.m`
    46d8:	6d00 0063 5a6d 6000 009a ad60 6000 009d     .mc.mZ.`..`..`..
    46e8:	9260 6000 008c 9b60 5b00 00b8 887a 5200     `..`..`..[..z..R
    46f8:	005c f98b 5100 00a2 fc8b 8800 0092 a288     \....Q..........
    4708:	7900 006f ff8b 8c00 0000 028c 8c00 0004     .yo.............
    4718:	078c 5c00 0050 595c 9600 006c d052 5900     ...\P.\Y..l.R..Y
    4728:	0058 4272 8600 00a9 7296 5900 00ec 205a     X.rB.....r.Y..Z 
    4738:	5a00 000c 095a 5a00 0032 295a 5a00 0034     .Z..Z..Z2.Z).Z4.
    4748:	235a 5a00 0013 405a 7500 005a 2190 7e00     Z#.Z..Z@.uZ..!.~
    4758:	00e0 8a9a 7e00 00e1 8b9a 7e00 00e5 e67e     .....~.....~..~.
    4768:	7e00 00e8 8e9a 9000 0095 369e 5f00 0057     .~.........6._W.
    4778:	1c80 7100 0018 0282 7400 000f 0774 9e00     ...q.....t..t...
    4788:	00b8 f663 5700 00f4 ef57 6300 006f b363     ..c..W..W..co.c.
    4798:	6300 00b4 f857 5700 00f5 678d 5700 00e4     .c..W..W...g.W..
    47a8:	6d63 9000 0035 dd57 5800 000b 0d58 6300     cm..5.W..X..X..c
    47b8:	00ac 379e 6300 0096 7d63 6300 008a 0958     ...7.c..c}.c..X.
    47c8:	6300 00b8 6963 6300 00ae ab60 5700 00ed     .c..ci.c..`..W..
    47d8:	fd57 6300 0087 bc63 8000 0043 c183 8400     W..c..c...C.....
    47e8:	0001 d883 5800 0007 1884 8400 000b fd83     .....X..........
    47f8:	8300 00d6 1c84 8400 0038 1184 6800 00fb     ........8....h..
    4808:	d483 8300 00df 0f84 8400 0003 cf83 8300     ................
    4818:	00f9 ea83 8300 00c5 c083 8400 0026 f083     ............&...
    4828:	8300 00e1 b568 6800 00bf 8f68 8900 00cb     ....h..h..h.....
    4838:	7468 6800 0077 9368 6800 00c1 6b68 6800     ht.hw.h..h..hk.h
    4848:	00c2 6c55 9000 00fe 2e53 6500 0055 498c     ..Ul....S..eU..I
    4858:	9100 0004 5e91 9100 005a 1b62 7800 004e     .....^..Z.b..xN.
    4868:	6d78 7800 0052 5678 7800 0057 5078 7800     xm.xR.xV.xW.xP.x
    4878:	0047 4c78 9e00 0038 e074 5300 000f a953     G.xL..8.t..S..S.
    4888:	9f00 009a 926b 6b00 0093 8d6b 8d00 0049     ....k..k..k...I.
    4898:	e996 8f00 0084 1158 7700 002d 2677 5500     ......X..w-.w&.U
    48a8:	0067 6166 6600 0064 3a77 7700 0035 3877     g.fa.fd.w:.w5.w8
    48b8:	5700 000a 8f55 5500 00b5 4955 5200 00d6     .W..U..U..UI.R..
    48c8:	5e66 5500 0035 5766 5100 0095 6d55 7500     f^.U5.fW.Q..Um.u
    48d8:	0066 ba8d 5500 006e c48d 8600 00b6 c486     f....Un.........
    48e8:	8600 00ce c686 8600 00b0 ca86 5700 0009     .............W..
    48f8:	b186 8600 00c9 cf86 8600 00b4 4155 5500     ............UA.U
    4908:	0055 3f55 5500 0050 3c55 5500 0037 5655     U.U?.UP.U<.U7.UV
    4918:	5500 0075 7655 5500 0077 3355 5500 0030     .Uu.Uv.Uw.U3.U0.
    4928:	5c55 5e00 003b 1a5d 5d00 0026 3c5e 5d00     U\.^;.]..]&.^<.]
    4938:	002e 245d 5d00 0006 478d 8d00 0048 4a8d     ..]$.]...G..H..J
    4948:	9400 00d1 d294 9400 00d7 d994 9400 00df     ................
    4958:	e094 9400 00e1 e294 9400 00e3 e494 9400     ................
    4968:	00e7 e894 9400 00e9 ea94 9400 00eb ec94     ................
    4978:	9400 00ee ef94 9400 00f0 f194 9400 00f3     ................
    4988:	f594 9400 00f7 2a6c 7200 007e 399e 7900     ......l*.r~..9.y
    4998:	00fe 3690 7b00 003a 477b 7b00 0038 2a7b     ...6.{:.{G.{8.{*
    49a8:	7b00 002e 207b 7b00 0025 247b 7b00 0033     .{..{ .{%.{$.{3.
    49b8:	3e7b 7b00 001e 7e50 5000 0043 5550 5000     {>.{..P~.PC.PU.P
    49c8:	0048 8050 5000 006c 7b50 7600 0091 8e76     H.P..Pl.P{.v..v.
    49d8:	9e00 003b 9c5f 8200 0038 3b82 8200 0034     ..;._...8..;..4.
    49e8:	3782 9f00 009b ce7f 8100 002c 1881 8100     .7........,.....
    49f8:	0032 1053 7300 0017 2173 7300 001e 1d73     2.S..s..s!.s..s.
    4a08:	6500 009b 1573 9900 0097 8399 9900 0084     .e..s...........
    4a18:	3e9e 5b00 0070 b95e 5e00 00be d475 7500     .>.[p.^..^..u..u
    4a28:	00cd b575 7f00 00ca cc65 6500 00ce a488     ..u.....e..e....
    4a38:	9600 0007 0896 9600 0009 0a96 9600 000b     ................
    4a48:	0d96 9600 000f 9f7f 7c00 009d 957c 6500     .........|..|..e
    4a58:	005d 1071 7000 00ef 1371 7000 00fd 1671     ].q..p..q..p..q.
    4a68:	7000 00f7 1771 6e00 000d 1a6e 6d00 00c7     .p..q..n..n..m..
    4a78:	c56d 6d00 00de 0e6e 6d00 00bf d66d 6300     m..m..n..m..m..c
    4a88:	0032 e06d 6d00 00b8 116e 6d00 00e6 dd6d     2.m..m..n..m..m.
    4a98:	6d00 00ec aa6d 6d00 00d9 ab6d 6e00 000c     .m..m..m..m..n..
    4aa8:	c46d 6000 00ec bb60 6000 00b1 dd60 6000     m..`..`..`..`..`
    4ab8:	00d8 b860 6000 00c6 da60 6000 00c7 ee60     ..`..`..`..`..`.
    4ac8:	7a00 0095 0c8c 8c00 000f 4862 7600 00b2     .z........bH.v..
    4ad8:	118c 8800 00c6 b788 8800 00c9 128c 8c00     ................
    4ae8:	0014 158c 8c00 0016 178c 8c00 0019 1b8c     ................
    4af8:	8c00 001d 2f90 9000 00ff 8896 7c00 009c     ...../.......|..
    4b08:	8d96 9600 0097 675a 5a00 004a 555a 5a00     ......Zg.ZJ.ZU.Z
    4b18:	003c 625a 5a00 0075 ec80 8800 0088 cc7f     <.Zb.Zu.........
    4b28:	6000 007f 386b 7e00 00eb 909a 7e00 00ee     .`..k8.~.....~..
    4b38:	ef7e 7e00 00f1 929a 7e00 00f2 939a 7e00     ~..~.....~.....~
    4b48:	00f6 fa7e 7e00 00fb fe7e 9a00 0096 017f     ..~..~..~.......
    4b58:	8000 0020 2b74 7400 0035 3674 7400 002a     .. .t+.t5.t6.t*.
    4b68:	5b74 7400 0026 2574 7400 0028 5397 7400     t[.t&.t%.t(..S.t
    4b78:	0030 2e74 7400 002f 2c74 7400 001b 1a74     0.t..t/.t,.t..t.
    4b88:	8f00 0087 0b9f 6300 00f3 1e58 6400 003d     .......c..X..d=.
    4b98:	f863 6300 00e0 1958 8d00 0084 d663 9800     c..c..X.....c...
    4ba8:	0089 4458 6300 00ff 0b80 6300 00c4 e986     ..XD.c.....c....
    4bb8:	8600 00f0 4658 6400 0052 c663 6300 00be     ....XF.dR.c..c..
    4bc8:	5280 8400 0051 5a84 9700 0070 7897 8400     .R..Q..Z..p..x..
    4bd8:	0073 7a84 8400 0078 3c84 8400 0046 6984     s..z..x..<..F..i
    4be8:	8400 0076 8c84 8400 0031 1f62 8400 006d     ..v.....1.b...m.
    4bf8:	6e69 6800 00fc 1f69 6800 00f9 2469 6800     in.h..i..h..i$.h
    4c08:	00f0 4d8d 6900 000b 0169 6900 002a e368     ...M.i..i..i*.h.
    4c18:	6900 0010 419e 8900 0083 6491 9100 0062     .i...A.....d..b.
    4c28:	6191 9e00 0042 a553 6b00 009a 9b6b 9600     .a..B.S..k..k...
    4c38:	00ef f196 8f00 008a 8b8f 6900 0020 8d8f     ...........i ...
    4c48:	8f00 008e 9065 7700 0044 5177 7700 0047     ....e..wD.wQ.wG.
    4c58:	4377 6200 0022 8b55 5500 00d2 8355 5500     wC.b".U..U..U..U
    4c68:	00b1 b955 6600 0077 8855 8d00 00d6 d78d     ..U..fw.U.......
    4c78:	8d00 00de da8d 8d00 00ce cf8d 8d00 00c6     ................
    4c88:	f186 8600 00f2 ed86 8600 00f3 d086 8600     ................
    4c98:	00d4 de86 8600 00f4 df86 8600 00d8 8155     ..............U.
    4ca8:	5500 009f 7e55 5500 00d6 9155 5500 00df     .U..U~.U..U..U..
    4cb8:	bd55 5500 00de 8055 5500 0094 9955 5d00     U..U..U..U..U..]
    4cc8:	0058 565d 5d00 0034 4490 8a00 0048 4e5d     X.]V.]4..D..H.]N
    4cd8:	5d00 003d 6c5d 5d00 005b 6f5d 5d00 005d     .]=.]l.][.]o.]].
    4ce8:	6b5d 5e00 0044 4b5d 8d00 0055 fb94 9400     ]k.^D.]K..U.....
    4cf8:	00fc ff94 9500 0003 0295 9500 0006 0795     ................
    4d08:	9500 0009 0f95 9500 0011 1295 9500 0014     ................
    4d18:	1595 6300 00a3 ec77 6c00 0030 f36b 6b00     ...c..w..l0.k..k
    4d28:	00fd 8a72 7200 0084 8b72 9e00 0044 8d72     ..r..r..r...D.r.
    4d38:	5d00 0047 cd9e 7a00 0003 027a 7b00 005a     .]G....z..z..{Z.
    4d48:	757b 7b00 004c a350 5000 0088 0482 7200     {u.{L.P..P.....r
    4d58:	004d a550 5000 00a7 5190 5000 00a9 4190     M.P..P...Q.P...A
    4d68:	5f00 00a8 ad5a 7500 0072 115f 9800 008c     ._..Z..ur._.....
    4d78:	d57f 9100 00c9 469e 8200 001c 828c 8100     .......F........
    4d88:	0048 4c81 8100 0053 4681 8100 0074 5181     H..L..S..F..t..Q
    4d98:	8100 005a 7181 9c00 007f 809c 9c00 0082     ..Z..q..........
    4da8:	8d98 7300 0022 3973 7300 0025 d398 8900     ...s".s9.s%.....
    4db8:	00de da89 7300 0031 8e98 9800 00e7 8799     .....s1.........
    4dc8:	9900 008a b54e 8100 0014 d288 7500 00e3     ....N........u..
    4dd8:	e875 7500 00e6 de75 7500 00e4 eb75 7500     u..u..u..u..u..u
    4de8:	00e7 538d 7a00 00e6 ff74 5500 007b 8f98     ...S.z..t..U{...
    4df8:	9e00 0047 1196 9600 0012 1596 7c00 009e     ..G..........|..
    4e08:	5290 5b00 0073 2f71 7100 001c 1971 7100     .R.[s.q/.q..q..q
    4e18:	0031 489e 6e00 005b 2b6e 6e00 006e 4e6e     1..H.n[.n+.nn.nN
    4e28:	6e00 005c 2d6e 6e00 004d 6b6e 6e00 00b2     .n\.n-.nM.nk.n..
    4e38:	5f6e 6e00 0086 726e 6e00 0054 496e 6e00     n_.n..nr.nT.nI.n
    4e48:	0025 446e 6e00 00c1 2061 6000 00fa 2661     %.nD.n..a .`..a&
    4e58:	6000 00f4 0061 6100 000e 1461 5500 00be     .`..a..a..a..U..
    4e68:	d05b 8c00 001f 4962 8800 00e2 ce88 8800     [.....bI........
    4e78:	00e5 7e79 7900 007a 208c 5e00 0042 218c     ..y~.yz.. .^B..!
    4e88:	8c00 0025 278c 9000 0050 715b 5f00 003c     ..%..'..P.[q._<.
    4e98:	fd5d 9a00 0098 aa5a 5a00 009b 775a 5d00     ].....Z..Z..Zw.]
    4ea8:	00ef da7f 7600 00b4 7a5a 9a00 009b 027f     .....v..Zz......
    4eb8:	7f00 0003 047f 5f00 0058 077f 7f00 0008     ......._X.......
    4ec8:	0c7f 7f00 0011 127f 7f00 0017 e898 8000     ................
    4ed8:	0022 5a74 7400 0041 5c74 7400 0057 4474     ".tZ.tA.t\.tW.tD
    4ee8:	7400 0055 6890 9a00 009c eb97 9a00 00e1     .tU..h..........
    4ef8:	6c58 9100 0022 948d 8d00 0091 4564 6400     Xl..".......dE.d
    4f08:	0041 0787 6400 000b 2a64 6400 0010 1b64     A....d..d*.d..d.
    4f18:	6400 0020 4864 5f00 0040 c26b 6400 0026     .d .dH._@.k..d&.
    4f28:	2164 8400 00c1 2162 8400 00cd 1e91 9700     d!....b!........
    4f38:	0073 d084 8400 00e6 4b9e 8400 00bd d384     s........K......
    4f48:	8400 00d6 ca84 8400 00af df84 8400 00d1     ................
    4f58:	bf84 8400 00ba e084 8400 009f a184 8400     ................
    4f68:	00b9 b484 8400 0097 e584 9800 0090 5469     ..............iT
    4f78:	6900 0060 4269 6900 005d 6b69 6900 0078     .i`.iB.i].ik.ix.
    4f88:	3469 6900 00cc 6f69 7600 0099 8869 6900     i4.i..io.v..i..i
    4f98:	00ce 8969 6900 0066 6369 6900 0079 3d69     ..i..if.ic.iy.i=
    4fa8:	8800 00d8 7d52 7500 0004 6e91 9100 0070     ....R}.u...n..p.
    4fb8:	6f91 9100 0069 0387 7800 009b 9378 7800     .o..i....x..x..x
    4fc8:	007c 8978 7800 009a 8778 7800 009c 4c9e     |.x..x..x..x...L
    4fd8:	8f00 008f 839f 9f00 0085 3e8a 7c00 00b2     ...........>.|..
    4fe8:	5e86 7700 005a ea55 9700 00ea f755 5500     .^.wZ.U.....U..U
    4ff8:	00c9 6877 7700 0062 ce96 7700 0065 1f56     ..wh.wb....we.V.
    5008:	5500 00d1 eb55 5500 00ec d455 5500 00dd     .U..U..U..U..U..
    5018:	2562 5500 00c4 6671 6600 0084 6290 6600     b%.U..qf.f...b.f
    5028:	008c ec8d 8d00 00f6 f88d 8d00 00d0 e38d     ................
    5038:	8d00 00f9 fb8d 8600 00f8 0a87 8700 000d     ................
    5048:	0987 8700 0023 7975 8600 00f9 e355 5500     ....#.uy....U..U
    5058:	00ef e555 5500 00f2 f355 5500 00cc cd55     ..U..U..U..U..U.
    5068:	5500 00e8 d055 5500 00e4 f555 7f00 0068     .U..U..U..U...h.
    5078:	4a5d 5d00 0069 745d 9a00 00b0 1795 9500     ]J.]i.]t........
    5088:	001b 1c95 9500 001d 1e95 9500 001f 2295     ..............."
    5098:	9500 0028 2995 9500 002d 3195 9600 00c9     ..(..)..-..1....
    50a8:	326c 7200 008f 436b 7a00 001e 177a 7a00     l2.r..kC.z..z..z
    50b8:	0014 607b 7b00 0062 6e7b 7b00 0072 717b     ..{`.{b.{n.{r.{q
    50c8:	7200 0052 7271 6500 006b ad5f 6100 0006     .rR.qr.ek._..a..
    50d8:	4482 8900 00ce f96b 8c00 008a 858c 8c00     .D....k.........
    50e8:	0089 9498 8100 0060 6981 8100 007c 6d81     ......`..i..|..m
    50f8:	8100 0067 4d58 5a00 00b5 798a 9c00 0085     ..g.XM.Z...y....
    5108:	869c 9c00 0087 889c 7a00 0023 8b9c 9c00     .........z#.....
    5118:	0090 8480 9e00 0050 d598 8900 00e5 5b90     ......P........[
    5128:	9900 0090 519e 4e00 00b6 0376 7500 00f1     .....Q.N..v..u..
    5138:	fc75 7500 00ff 1076 7600 0001 0676 9e00     u..u..v..v..v...
    5148:	0082 d488 6b00 0046 d265 9600 00cd 1696     .....kF.e.......
    5158:	9600 0017 1996 7f00 00a7 628c 7c00 00b3     ...........b.|..
    5168:	3773 7100 0073 5c71 7100 0068 4571 7100     s7.qs.q\.qh.qE.q
    5178:	004a 7871 7100 007a df6e 6e00 00b1 986e     J.qx.qz.n..n..n.
    5188:	6f00 002d e26e 6e00 00a5 a76e 6e00 00bd     .o-.n..n..n..n..
    5198:	df88 6e00 00bb b76e 6e00 00d7 eb6e 6e00     ...n..n..n..n..n
    51a8:	00b4 cf6e 6e00 00c3 e66e 6e00 008f c26e     ..n..n..n..n..n.
    51b8:	6e00 00d3 9f6e 6e00 00ea 2b61 6100 0051     .n..n..n..a+.aQ.
    51c8:	4a61 9c00 008e 9e9a 7a00 00a6 a07a 7a00     aJ.......z..z..z
    51d8:	00a3 f188 8900 001a e888 8800 00fe f088     ................
    51e8:	7900 008a 298c 8c00 002a be5a 5a00 00eb     .y...)..*.Z..Z..
    51f8:	b25a 5a00 00d2 d45a 5a00 00b8 197f 7f00     Z..Z..Z..Z......
    5208:	001c 1b7f 8f00 0094 9d9a 7f00 001f 217f     ...............!
    5218:	7f00 0022 237f 9a00 009f 2580 7400 0088     .."..#.....%.t..
    5228:	7674 7400 006d 5273 8900 00cf 5d61 5a00     tv.tm.sR....a].Z
    5238:	00e0 ec97 5300 00c6 e69a 6400 007d 8158     .....S.....d}.X.
    5248:	6400 0082 5e64 6400 0084 e57f 8e00 0005     .d..d^.d........
    5258:	6d64 5800 0089 9258 6900 0096 a67d 8500     dm.X..X..i..}...
    5268:	002b 3785 9700 007a 7c97 9700 0085 7f97     +..7..z..|......
    5278:	7500 000d 3885 8500 001f 3a85 6200 002c     .u...8.....:.b,.
    5288:	5685 8500 003b ff84 6500 00a1 559e 8400     .V..;....e...U..
    5298:	00fc 9b69 6900 00a7 bb69 6900 00ab ad69     ..i..i..i..i..i.
    52a8:	6900 00d4 b169 6900 00c1 df69 6900 00e0     .i..i..i..i..i..
    52b8:	b769 5000 00f0 7d91 9100 0076 7991 5300     i..P...}..v..y.S
    52c8:	00ae a178 7800 00b4 a378 7800 00b2 cb78     ..x..x..x..x..x.
    52d8:	8100 00e7 688c 6b00 00a1 0697 9700 0001     .....h.k........
    52e8:	958f 8700 001a f488 7f00 00e1 879f 9f00     ................
    52f8:	0088 7f77 4000 0056 7d77 5600 001e 0856     ..w..@V.w}.V..V.
    5308:	5600 000c 0156 5600 000e a766 6600 009d     .V..V..V..f..f..
    5318:	0c8e 8e00 0009 1e87 8700 0025 2e87 8700     ..........%.....
    5328:	0048 3487 8700 0031 2987 8700 0037 3f87     H..4..1..)..7..?
    5338:	8700 0082 2287 5600 0018 2156 9e00 0057     .....".V..V!..W.
    5348:	2356 5600 0024 1a56 5500 00fe 2756 7f00     V#.V$.V..U..V'..
    5358:	0074 717f 5e00 0054 825d 5e00 005b 598d     t..q.^T.]..^[..Y
    5368:	7f00 0042 b79a 9a00 00b6 589e 9500 0032     ..B........X..2.
    5378:	3495 9500 0036 3795 9500 0038 3595 9500     .4..6..7..8..5..
    5388:	0041 4295 7200 0092 907b 7b00 00a6 a77b     A..B.r..{..{..{.
    5398:	7b00 008d b87b 7b00 00ac 857b 7b00 00aa     .{..{..{..{..{..
    53a8:	947b 7b00 009c a27b 7b00 0093 d36b 5000     {..{..{..{..k..P
    53b8:	00d6 0651 5000 00f3 ed50 5200 0081 ee50     ..Q..P..P..R..P.
    53c8:	9b00 0043 469b 7700 007e 4b82 9100 0031     ..C..F.w~..K..1.
    53d8:	8881 8100 0091 919c 9c00 0094 9a9c 9c00     ................
    53e8:	009b 9f9c 7300 0050 eb89 9600 00d2 2459     .....sP.......Y$
    53f8:	9900 0091 ae92 5800 007e bd9e 7600 000c     .......X~....v..
    5408:	0a76 7600 0018 1976 5e00 00d6 f697 6500     v..v..v..^.....e
    5418:	00d6 8281 9600 001a 2f91 9c00 009e bf7c     ........./....|.
    5428:	7c00 00bc bd7c 7c00 00c1 ca69 9e00 005a     .|..|..|..i...Z.
    5438:	9871 7100 00a5 626f 6f00 0015 f96e 6f00     q..q..ob.o..n..o
    5448:	002f 366f 6f00 004b 746f 6f00 002a 096f     /.o6.oK.ot.o*.o.
    5458:	6f00 0033 296f 6f00 0089 4d6f 6100 0075     .o3.o).o..oM.au.
    5468:	3464 7a00 00a8 e45b 7d00 00ae 2e8c 8900     d4.z..[..}......
    5478:	0021 1989 8900 0013 1b89 8900 000a 2f8c     !............../
    5488:	8c00 0030 328c 6600 00a8 635c 9e00 005b     ..0..2.f..\c..[.
    5498:	e35a 5a00 00f1 d65a 5a00 00e6 da5a 5a00     Z..Z..Z..Z..Z..Z
    54a8:	00d8 e15a 9f00 0010 df7f 7700 0080 5c9e     ..Z........w...\
    54b8:	9a00 00a0 257f 7f00 0026 277f 7f00 0028     .....%..&..'..(.
    54c8:	a29a 7f00 002a 2b7f 8000 0026 2780 7400     ....*..+..&..'.t
    54d8:	007e 9c74 7400 0080 8e74 7400 0081 8b74     ~.t..t..t..t..t.
    54e8:	7400 0087 6d59 9a00 00ef eb9a 6400 00b7     .t..Ym.......d..
    54f8:	8564 8d00 006d b864 9200 00c6 9964 6400     d...m.d.....d..d
    5508:	00ba 8058 8000 0069 d089 9700 0091 5985     ..X...i........Y
    5518:	9700 0092 4885 8500 0068 6485 8500 005e     .....H..h..d..^.
    5528:	7a85 7700 00a2 4385 8500 0072 5c8d 6900     .z.w...C..r..\.i
    5538:	00ff 2f6a 6900 00ed 176a 6a00 0018 0a6a     ..j/.i..j..j..j.
    5548:	6900 00f2 8c91 9100 0085 6597 9b00 0047     .i.........e..G.
    5558:	0d99 7800 00d4 d978 9700 0008 988f 9f00     ...x..x.........
    5568:	0089 8a9f 8900 00d1 8c77 7700 008b 9177     ........w..w..w.
    5578:	5600 002d 4e56 5600 0076 9998 6600 00b9     .V-.VN.Vv....f..
    5588:	5856 8e00 0014 1d8e 8e00 001f 128e 8e00     VX..............
    5598:	002c 2e8e 8e00 002f 3a8e 8e00 001e 7d87     ,...../..:.....}
    55a8:	8700 007e 7b87 8700 0070 6e87 8700 008b     ..~..{..p..n....
    55b8:	5387 8700 0063 7c87 5600 0057 2c56 9800     .S..c..|.VW.V,..
    55c8:	009a 4d56 5600 0062 5956 5600 005c 4c56     ..VM.Vb.VY.V\.VL
    55d8:	5600 0054 9b98 5e00 005e 615e 5d00 0099     .VT....^^.^a.]..
    55e8:	9d5d 9a00 00ba bc9a 9a00 00b8 4a95 9500     ]............J..
    55f8:	0049 4c95 9500 004d 4f95 9500 0052 5395     I..L..M..O..R..S
    5608:	9500 0054 377a 7b00 00b4 d17b 7b00 00c1     ..T.z7.{..{..{..
    5618:	cc7b 7b00 00c6 5672 5100 000b b55f 7800     {..{..rV.Q.._..x
    5628:	00d0 6286 9e00 005e 9881 6e00 00d5 a09c     ...b..^....n....
    5638:	9c00 00a1 a29c 9c00 00a3 a59c 9c00 00a7     ................
    5648:	a99c 7300 0057 6073 8900 00ef 9399 9900     ...sW.s`........
    5658:	0094 be9e 5e00 00db 1b76 7600 003c 2276     .....^..v..v<.v"
    5668:	7600 0020 519f 7f00 00af b07f 5e02 00d7     .v ..Q.......^..
    5678:	7490 7c00 00cc cd7c 7c00 00c5 9c71 7100     .t.|..|..|..q..q
    5688:	00b5 a071 6f00 008d 8c6f 6f00 0078 666f     ..q..o..o..ox.of
    5698:	6f00 0072 c892 6f00 005f 7c6f 6f00 007a     .or....o_.o|.oz.
    56a8:	ac61 6100 00a7 ee5b 7a00 00b3 338c 8900     a..a..[..z...3..
    56b8:	0034 1f89 8900 002b 358c 7100 00a8 665c     4.....+..5.q..\f
    56c8:	5b00 0009 f052 6200 002e 6587 7f00 002c     .[..R..b...e..,.
    56d8:	2e7f 7f00 002f a39a 7500 007f 2980 8000     ..../....u...)..
    56e8:	0028 2a80 7400 009e 9f74 9700 005b a074     (..*.t..t...[.t.
    56f8:	7400 0098 7180 8700 00af fb9a 9a00 00ed     .t...q..........
    5708:	f99a 6400 00c0 b971 7500 000f de64 7e00     ...d..q..u..d..~
    5718:	0020 ec78 9800 009e 7b85 9700 0098 9f98      .x......{......
    5728:	8500 00a4 a885 6a00 00a0 8f85 8500 00ae     .......j........
    5738:	9c85 8500 0085 3e6a 6a00 005b 476a 6a00     ......j>.j[.jG.j
    5748:	0035 8e6a 6a00 0079 3d6a 6a00 0028 7c6a     5.j..jy.j=.j(.j|
    5758:	5800 00bc 506a 7f00 00ee 9b91 9100 0090     .X..jP..........
    5768:	8d91 9100 009a f278 8d00 005d d998 6b00     ......x...]....k
    5778:	00aa 1697 9700 000f 1397 9300 003e 9a8f     ............>...
    5788:	8100 00fb 7d90 6c00 0005 9f77 7700 00a0     .....}.l..w..w..
    5798:	b077 5600 0084 8656 5600 0064 be66 8e00     w..V..V..Vd.f...
    57a8:	0040 398e 8e00 0035 3d8e 8e00 0049 418e     @..9..5..=..I..A
    57b8:	8700 00a8 d287 8700 0088 8587 8700 00ad     ................
    57c8:	a087 8700 009f 7156 5600 006c 6b56 5600     ......Vq.Vl.Vk.V
    57d8:	007b 7c56 7f00 0079 1c57 4900 0083 5695     {.V|..y.W..I...V
    57e8:	9500 0057 5895 9500 005a 5b95 9500 005d     ..W..X..Z..[..].
    57f8:	5e95 9500 0060 076c 6c00 0006 a961 7a00     .^..`.l..l..a..z
    5808:	0051 dd7b 7b00 00e5 e67b 7b00 00ea d97b     Q.{..{..{..{..{.
    5818:	7600 00e5 9352 7f00 00f1 499b 9b00 0048     .v..R......I..H.
    5828:	bc5f 6b00 0059 b381 8100 00a6 9981 9c00     _..kY...........
    5838:	00ae b19c 9c00 00b2 b39c 9c00 00b4 b59c     ................
    5848:	9c00 00b7 bb9c 7300 0074 6d73 7300 006c     .......st.sm.sl.
    5858:	8290 9e00 0067 e85e 8d00 005f 3076 5e00     ....g.^..._.v0.^
    5868:	00ea 3f76 7600 0035 3476 7600 0043 3376     ..v?.v5.v4.vC.v3
    5878:	6500 0093 879e 9e00 0088 345b 5800 00c5     .e........[4.X..
    5888:	b27f 7c00 00d7 a577 7500 0011 ce71 7100     ...|..w..u..q..q
    5898:	00e0 d471 7100 00e7 d16f 6f00 00c9 5e6f     ..q..q..o..o..o^
    58a8:	6f00 00a7 b96f 6f00 00a5 b66f 6f00 00c2     .o..o..o..o..o..
    58b8:	3089 5b00 00f0 b87a 8900 0036 a779 5b00     .0.[..z...6.y..[
    58c8:	0016 9f72 9600 00b0 175b 9800 00a1 317f     ..r.....[......1
    58d8:	7f00 0032 337f 7400 00a8 a974 7400 0090     ..2..3.t..t..t..
    58e8:	aa74 8700 00ab e464 5800 00d5 f389 7f00     t.....d..X......
    58f8:	0044 e264 8500 00b9 a197 9700 00ac b785     D.d.............
    5908:	8500 00b0 d385 8500 00c1 846a 6a00 00a9     ..........j..j..
    5918:	cb61 9100 00a2 f37f 7900 0005 f478 9e00     a........y..x...
    5928:	0069 8b9f 9f00 008c 738c 5800 00d1 fb9e     i........s.X....
    5938:	5600 008f 8556 8e00 0051 528e 8e00 004a     .V..V...Q..R..J.
    5948:	e587 8700 00ac b587 7500 0083 b387 8700     .........u......
    5958:	00d1 9356 7f00 0081 7d7f 7f00 007e b75d     ..V......}..~.].
    5968:	9e00 00dc dd9e 9a00 00c1 c09a 9500 0061     ..............a.
    5978:	6295 9500 0063 6695 9500 0067 6995 9500     .b..c..f..g..i..
    5988:	006a 6b95 7f00 0045 cf9e 7c00 000c fe7b     j..k..E....|..{.
    5998:	7b00 00fc 167c 7c00 000b 229f 9e00 00db     .{..|..|..."....
    59a8:	2151 9e00 006a 3e9f 7600 00a4 4d9b 9f00     Q!..j..>.v...M..
    59b8:	00a0 477e 8c00 0098 8890 8c00 0094 cc81     ..~G............
    59c8:	8100 00bb c681 8100 00c3 bc9c 9c00 00bd     ................
    59d8:	c09c 9c00 00c3 c59c 9c00 00c7 ca9c 8700     ................
    59e8:	00bd ee71 9e00 006b 4489 7c00 00dc 3b7e     ..q...k..D.|..~;
    59f8:	8100 00ba 4d76 9e00 008b d161 6f00 00e1     ....vM....a..o..
    5a08:	ee6f 6f00 00de e06f 6f00 00ef 478e 8b00     o..o..o..o...G..
    5a18:	0007 8390 8900 0041 976a 6400 00d8 7a5b     ......A.j..d..[z
    5a28:	9600 00b3 375b 8700 00ca 6c9e 9300 006a     ....[7.....l..j.
    5a38:	ca93 9c00 00cc 089b 9b00 0003 bd77 9700     ............w...
    5a48:	00af a897 9700 00ab a797 9700 00a3 dc85     ................
    5a58:	8500 00e0 e985 9100 00aa 598e 7900 0013     ...........Y.y..
    5a68:	f971 9900 002e bf77 6600 00db a298 6600     q.....w..f.....f
    5a78:	00dc 878e 8e00 005a 6d9e 8700 00db ea87     ......Z..m......
    5a88:	8700 00e0 ee87 9e00 006e e09e 9e00 00df     ........n.......
    5a98:	c59a 9a00 00c2 6c95 9500 006d 6f95 9900     .......l..m..o..
    5aa8:	00a5 1f7c 7c00 002a 2c9f 9600 00e0 5f82     ..|..|*..,....._
    5ab8:	9c00 00ce cf9c 9c00 00d0 5e76 7600 0054     ..........v^.vT.
    5ac8:	5c76 7600 0056 e87c 8e00 0069 8f93 6100     v\.vV.|...i....a
    5ad8:	00f5 5d5f 9000 008b 0f9b 6500 0009 1265     .._].......e..e.
    5ae8:	9700 00b2 b497 8500 00ff 2786 8600 0005     ...........'....
    5af8:	939e 9100 00ae af91 9100 0043 2a97 9700     ..........C..*..
    5b08:	002d 2897 9e00 00fc af56 8e00 0070 768e     -..(....V...p..v
    5b18:	8e00 007d 7c8e 8e00 0074 7e8e 8e00 007f     ..}..|..t..~....
    5b28:	1688 8800 0013 fe87 8800 000a e29e 9a00     ................
    5b38:	00cb cc9a 9500 0072 407c 7c00 0041 419f     ......r.|@.|A..A
    5b48:	9b00 0051 6882 9c00 00d3 d49c 9c00 00d5     ..Q..h..........
    5b58:	d79c 9c00 00d9 929e 9300 00d6 b87f 3e00     ...............>
    5b68:	0006 1a70 7000 0023 1b70 8900 0066 368c     ..p..p#.p...f..6
    5b78:	8900 005e a59a 7f00 0035 d274 6500 0018     ..^.....5.t..e..
    5b88:	2986 8600 0016 b491 9700 0030 4691 7700     .)........0..F.w
    5b98:	00cd e666 8e00 0085 0d9f 5d00 00c9 e99e     ..f........]....
    5ba8:	9e00 00e5 ea9e 9500 0073 7495 9e00 00e7     ........s..t....
    5bb8:	827e 7400 00ba 2f9f 8100 00dc dc9c 9c00     ~..t.../........
    5bc8:	00dd df9c 7300 007e 405b 9a00 00a7 d874     .....s~.[@....t.
    5bd8:	9f00 0019 ba91 7900 0034 a698 6600 00e9     .......y4....f..
    5be8:	e29c 7600 006b 9d9e 5900 0014 1d72 7000     ...vk....Y..r..p
    5bf8:	004f b379 9400 003e bc7f 8800 0021 3180     O.y...>.....!..1
    5c08:	6100 00ff 3886 9e00 0073 3e97 6c00 000d     .a...8..s..>.l..
    5c18:	5599 8e00 0090 d19a 9500 0075 707a 9900     .U........u.zp..
    5c28:	0054 3b9b 9b00 001f b18d 6500 002b 2565     T..;.......e+.e%
    5c38:	9800 00a7 9c8e 9f00 0039 6f76 9e00 009f     ........9.vo....
    5c48:	3288 8800 0039 9e8e 8800 0062 6b94 7000     .2..9.....b..k.p
    5c58:	005e 7b89 7e00 009b 239b 6500 002e d456     ^..{.~...#.e..V.
    5c68:	9900 0095 0662 7200 0028 499f 4e00 008d     ....b..r(..I.N..
    5c78:	225c 5f00 0073 6c53 6b00 02b3 7606 6b00     \"._s.Sl.k...v.k
    5c88:	00cc 9890 6200 000b 2257 6c00 0015 0b4f     .....b..W".l..O.
    5c98:	4e00 00dd ae51 6c00 003f 486c 6c00 003e     .N..Q..l?.lH.l>.
    5ca8:	c95f 5b00 0284 d9c8 8b00 00b1 5e62 5700     _..[........b^.W
    5cb8:	0032 2b57 8200 008f 8382 6700 0033 3867     2.W+.......g3.g8
    5cc8:	8602 0078 a890 5400 0012 1654 5c00 007c     ..x....T..T..\|.
    5cd8:	7e5c 8f00 00bf 8694 4e00 00f3 234f 4f00     \~.......N..O#.O
    5ce8:	0008 7f76 7500 002a a090 7200 00b4 b151     ..v..u*....r..Q.
    5cf8:	9000 00a1 eb95 c102 00d5 4b6c 4700 0023     ..........lK.G#.
    5d08:	bb8b c802 00de 565b c602 0013 a97e 7300     ......[V....~..s
    5d18:	0092 9373 7300 0098 9a73 5200 022c 5fbb     ..s..s..s..R,.._
    5d28:	5700 005c 4957 6200 027d 62bb 5700 004b     .W\.WI.b}..b.WK.
    5d38:	7a62 3900 00d1 d06b 8200 00b0 a382 8200     bz.9..k.........
    5d48:	00ca c982 8200 0098 b482 8200 02a0 edb1     ................
    5d58:	8200 00a4 5567 6700 0059 4467 6700 0067     ....gU.gY.gD.gg.
    5d68:	6967 5c00 002a 285c 8f00 026a 04b4 5700     gi.\*.\(..j....W
    5d78:	0052 8882 6500 00f4 f565 5400 0059 6e35     R....e..e..TY.5n
    5d88:	5c00 028d 77bd 5c00 00a0 9c5c 5400 0047     .\...w.\..\..TG.
    5d98:	8f51 8900 00c3 995c 4f00 003e 4734 4f00     Q.....\..O>.4G.O
    5da8:	002d 564f 4f00 0032 414f 9800 00cf c372     -.OV.O2.OA....r.
    5db8:	9500 00f6 676c 6c00 026b 983c 3c02 0097     ....lg.lk.<..<..
    5dc8:	846c 6c00 0298 d9c1 6c00 006d c73c 6c00     l..l.....lm.<..l
    5dd8:	0087 ee5f 5f00 00f3 fa5f c802 00e1 4379     .._.._.._.....yC
    5de8:	8b00 00c7 b290 8b00 00ce d08b 5c00 0243     .............\C.
    5df8:	29be 5c00 008a 3d96 4800 00ba 3c96 5900     .).\...=.H...<.Y
    5e08:	00a7 9859 8602 0095 ae7e 9a00 0272 1cb6     ..Y.....~...r...
    5e18:	7e00 02bb 18c6 b602 001d bc7e 7300 00a4     .~........~..s..
    5e28:	9e73 7300 00b1 9f73 9000 00bd bf90 5700     s..s..s........W
    5e38:	0065 7057 5700 006c 7d57 5f00 0006 3580     e.Wp.Wl.W}._...5
    5e48:	4800 02bc 5c6b 8300 000b e782 8200 00fe     .H..k\..........
    5e58:	e082 6700 0085 4e3b 6700 0098 8d67 7700     ...g..;N.g..g..w
    5e68:	00fc fb77 5300 023c 02ca c002 0229 2ac0     ..w..S<.....)..*
    5e78:	6500 00ff 0766 6600 0004 1266 6600 0008     .e..f..f..f..f..
    5e88:	8954 5400 0087 8d54 5c00 00b5 bd5c 5c00     T..T..T..\..\..\
    5e98:	00a8 9e5c 5c00 00c2 c337 5600 02f7 29cb     ..\..\..7..V...)
    5ea8:	9400 0090 9494 9400 0096 6572 4f00 0074     ..........re.Ot.
    5eb8:	8857 4f00 0081 b94f 4f00 0078 7a4f 9600     W..O..O..Ox.Oz..
    5ec8:	00b9 4a34 4f00 0082 7d4f 4f00 0098 c890     ..4J.O..O}.O....
    5ed8:	8200 0020 d090 9000 00c3 3d65 8000 00ad     .. .......e=....
    5ee8:	b880 8000 00b7 c972 7200 00dd 7399 5f00     ......r..r...s._
    5ef8:	00de bc65 7000 008c 8670 6c00 00d9 ba6c     ..e..p..p..l..l.
    5f08:	6c00 00c2 dc6c 6c00 00c3 c76c 6000 000a     .l..l..l..l..`..
    5f18:	c35c 7a00 0078 4b79 7900 024a 63b3 c802     \..zx.yK.yJ..c..
    5f28:	02f3 7dca 9e00 0024 225f 5f00 0028 5196     ...}..$._"._(..Q
    5f38:	cb02 00bf 4e96 cb02 00c0 7a53 4e00 0078     .....N....Sz.Nx.
    5f48:	ad59 5900 02c8 1bbc 8f00 00f3 d553 cc02     Y..Y........S...
    5f58:	00f5 759a cc02 00f6 3943 9a00 027a 0ab8     ...u....C9..z...
    5f68:	7e00 00cb d07e 7800 0009 1480 3600 00c3     .~..~..x.....6..
    5f78:	b673 7300 00c7 c573 c302 005b cb73 7300     s..s..s...[.s..s
    5f88:	00b9 cc73 7300 00bf e897 5700 009a af57     ..s..s.....W..W.
    5f98:	5700 0099 b257 5700 00cf 8d57 8000 0007     .W..W..W..W.....
    5fa8:	cd9f 5700 008e b457 5700 009f 9e57 6300     ...W..W..W..W..c
    5fb8:	0013 b557 5700 008f f662 8300 0056 4183     ..W..W..b...V..A
    5fc8:	8300 0059 5b83 8300 0008 3d83 8300 0044     ..Y..[.....=..D.
    5fd8:	3a83 c702 002c 5383 8300 0233 216c 8300     .:..,..S..3.l!..
    5fe8:	001b 6d83 3b00 0055 f767 6700 00c3 ca67     ...m.;U.g..g..g.
    5ff8:	6700 00b9 1068 6700 00d6 da90 5200 0045     .g..h..g.....RE.
    6008:	134d 8f00 00fa 9653 7800 0006 1178 7800     M.....S..x..x..x
    6018:	0004 0f80 5900 0053 ae4d 8f00 0075 778f     .....YS.M...u..w
    6028:	8f00 0079 7a8f 6600 023a a2af 6600 003d     ..y..z.f:....f=.
    6038:	f776 5400 00a1 ba54 6600 0033 2366 5400     v..T..T..f3.f#.T
    6048:	00d2 2466 6600 002b 2166 5400 00a5 2a66     ..f$.f+.f!.T..f*
    6058:	8600 0077 7886 5400 00c3 d85c 8000 0011     ..w..x.T..\.....
    6068:	db5c aa02 0030 d75c 5c00 00e7 215e 9400     \...0.\..\..^!..
    6078:	0298 e7b4 9400 029c 2ecb cb02 0231 2dcb     ............1..-
    6088:	9400 00aa ac94 9400 00ad e777 7900 00ec     ..........w..y..
    6098:	eb4f 8200 0001 dc4f 4f00 00d9 cd4f 5700     O.....O..O..O..W
    60a8:	0095 4e88 8200 0023 075f 4f00 00b4 279e     ...N..#._..O...'
    60b8:	4300 00e1 e080 6602 0076 c880 8000 00e9     .C.....fv.......
    60c8:	e380 6700 000f d098 8a00 0004 7b99 5e00     ...g.........{.^
    60d8:	00a4 a275 7000 00a3 9f70 3d00 00b2 2d6d     ..u..p..p..=..m-
    60e8:	6d00 0018 136d 6d00 003f da3c 6c00 00da     .m..m..m?.<..l..
    60f8:	486d 6d00 0049 386d 6d00 0011 226d 6d00     mH.mI.m8.m..m".m
    6108:	0008 1a6d 6d00 003a 286d 6d00 0050 d83c     ..m..m:.m(.mP.<.
    6118:	6d00 0034 236d 6000 0054 ac5b 7a00 0080     .m4.m#.`T.[..z..
    6128:	4262 8800 0086 4f79 7900 0050 5579 5300     bB....yO.yP.yU.S
    6138:	00da 6796 9600 005e 005a 5900 00de f159     ...g..^.Z..Y..Y.
    6148:	5900 00e4 f659 5900 00fd b267 7e00 00d6     .Y..Y..Y..g..~..
    6158:	839a c602 0221 fdcc c602 0229 27b1 5f00     ....!.....)..'._
    6168:	0056 899a 6000 005d ea73 7300 00db f973     V....`].s..s..s.
    6178:	7400 000a bc73 7300 02d6 dda7 7300 00fd     .t..s..s.....s..
    6188:	e673 7300 00eb d273 c302 0064 e273 7300     s..s..s...d.s..s
    6198:	00d5 dd73 bb02 007c d757 5700 00be ba57     ..s...|.W..W..W.
    61a8:	5700 00c6 bf57 5700 00cc c757 8300 00b0     .W..W..W..W.....
    61b8:	1d83 c702 002f 0091 8300 00b6 9d83 4400     ..../..........D
    61c8:	00d6 9983 6800 003b 6068 c002 00a9 4468     .....h;.h`....hD
    61d8:	6800 00a0 3468 6800 00b4 1268 9100 004e     .h..h4.h..h...N.
    61e8:	4f91 b802 0006 3578 7800 0020 2b78 7800     .O....x5.x .x+.x
    61f8:	002c 4178 6000 0067 c37f 9000 02ea 0884     ,.xA.`g.........
    6208:	8f00 0080 818f c302 0017 5552 8d00 0040     ..........RU..@.
    6218:	e254 6600 0045 4a66 5500 001d f354 5400     T..fE.fJ.U..T..T
    6228:	00f1 9451 6600 0054 5066 6600 0056 5675     ..Q..fT.fP.fV.uV
    6238:	8600 0084 8686 b402 0061 315e 5d00 0001     ........a.^1.]..
    6248:	ff5c aa02 0036 045d 5e00 0028 005d 8d00     \...6.]..^(.]...
    6258:	0246 38cb 9400 02b7 3bcb cb02 0239 3fcb     F..8.....;..9..?
    6268:	cb02 0041 1a77 7500 0021 2b7b 5000 003b     ..A.w..u!.{+.P;.
    6278:	3450 8100 0029 2e50 5000 0015 1e50 b802     P4..).P..P..P...
    6288:	00b8 1350 5000 0027 4388 8600 0052 2d82     ..P..P'..C..R..-
    6298:	8200 002f 2582 7400 00de 2f9b 9e00 0030     ../..%.t.../..0.
    62a8:	0e81 6700 0013 f280 8600 0053 7d9c 7200     ...g......S..}.r
    62b8:	00f4 f15c 7200 00fb 2277 b502 00e7 cd52     ..\..r..w"....R.
    62c8:	7500 00c4 b075 7500 00c3 d87a 7f00 0096     .u..u..u..z.....
    62d8:	937f 6800 004a 4965 7000 00e0 d470 7000     ...hJ.eI.p..p..p
    62e8:	00f6 fb70 c202 0088 8d6d 6d00 0061 6d6d     ..p.....m..ma.mm
    62f8:	6d00 006c 846d 6d00 00a2 906d 6d00 0070     .ml.m..m..m..mp.
    6308:	5f6d 6d00 005b 7c6d 6d00 0072 986d 6000     m_.m[.m|.mr.m..`
    6318:	0088 8360 6000 02a2 88c4 5b00 00a7 857a     ..`..`.....[..z.
    6328:	7a00 008a 8e7a 6200 0045 4662 8800 00aa     .z..z..bE.bF....
    6338:	9788 8800 00af 6779 9600 00ba 3258 7500     ......yg....X2.u
    6348:	028d 998e 9600 0074 dd70 7800 002e da36     ......t.p..x..6.
    6358:	5400 00ff c07f 7f00 00c2 5f52 cc02 02ff     .T........R_....
    6368:	28b1 7e00 00e4 8d9a c602 002b ae40 7400     .(.~......+.@..t
    6378:	000e f873 7300 00f5 0474 7400 0008 0074     ..s..s..t..t..t.
    6388:	7300 00fa ad63 5800 000e 1058 5700 00fc     .s..c..X..X..W..
    6398:	8e63 5700 00eb 0c58 6600 0262 83bb 6300     c..W..X..fb....c
    63a8:	009e ea57 5800 00f8 4d36 8000 004d dd83     ..W..X..6M..M...
    63b8:	8400 001a e583 8300 00bf eb44 5200 00da     ..........D..R..
    63c8:	ec44 8400 0006 c283 8300 00cd fc83 8400     D...............
    63d8:	0023 e844 8300 00c9 db44 6800 00bc bd68     #.D.....D..h..h.
    63e8:	6800 0072 be68 6800 006f a368 6800 008c     .hr.h..ho.h..h..
    63f8:	7968 6500 0054 a353 7800 0054 ce9f 7800     hy.eT.S..xT....x
    6408:	0059 5a78 7800 004a 4d78 5200 00d4 154d     Y.xZ.xJ.xM.R..M.
    6418:	9f00 0081 3490 5500 002a 6b55 7f00 00c8     .....4.U*.Uk....
    6428:	f03a 6600 0059 6475 cc02 0056 bc8d 8d00     :..fY.ud..V.....
    6438:	00c2 c386 8600 02b2 fdc7 8600 00ba 7455     ..............Ut
    6448:	4300 0083 275d 5d00 001f 1e5d 5d00 0012     .C..]'.]..]..]..
    6458:	0c5d 5d00 0021 cf94 b402 02ef f9b7 9400     ]..]!...........
    6468:	02d5 fcb7 9400 00d6 d894 9400 00da de94     ................
    6478:	9400 00e5 f494 7200 007b 7f72 7a00 0006     .......r{.r..z..
    6488:	317b 7b00 002f 7050 5000 0061 3a9e 5000     {1.{/.Pp.Pa..:.P
    6498:	006d 7250 5000 0041 e03f 9100 0005 5350     m.Pr.PA.?.....PS
    64a8:	5f00 009b 5288 8200 0033 3282 9e00 003c     ._...R..3..2..<.
    64b8:	8660 9100 0003 fb74 4700 0059 3681 8100     `.....t..GY..6..
    64c8:	001e 1f81 4300 00f2 7e9c 7300 0007 0a73     .....C...~.s..s.
    64d8:	7300 0004 d689 0102 0064 b15e 5e00 00bc     .s......d.^..^..
    64e8:	b35e 7500 00d3 144d 7a00 00eb 0358 9600     ^..u..M..z..X...
    64f8:	000c 9d7f 7f00 0095 0671 7000 00fa 0c71     ........q..p..q.
    6508:	6d00 02cf f9c1 6d00 00df dc6d 6d00 00f4     .m.....m..m..m..
    6518:	ef6d 6e00 0074 b46d c302 0061 4439 6000     m..nt.m...a.9D.`
    6528:	00db d460 6000 00b0 d960 5b00 00c1 2d90     ..`..`..`..[...-
    6538:	c902 0207 6fb3 8800 00bc c888 7900 0272     .....o.......yr.
    6548:	0ac9 b302 0072 1e8c 8200 0074 385f 5f00     ....r.....t._8._
    6558:	0236 cecb 9600 0083 5e5a 5a00 0035 7c5a     6.......Z^.Z5.Z|
    6568:	5a00 0096 735a 5a00 004d 4c5a 5a00 006b     .Z..Zs.ZM.ZL.Zk.
    6578:	645a 5a00 0058 605a c602 022c 2dc6 cd02     Zd.ZX.Z`..,..-..
    6588:	0202 26b6 7e00 02f9 c5b7 c602 002f 959a     ...&.~....../...
    6598:	b602 0027 5c7d 7300 00f7 3274 7400 0021     ..'.}\.s..t2.t!.
    65a8:	1f74 7400 0014 2d74 5800 003e 3c58 6300     t..t..t-.X>.X<.c
    65b8:	00d5 5836 5800 0027 8655 5800 0028 4558     ..6X.X'.U..X(.XE
    65c8:	5800 0020 777d a802 02fb 9a13 8400 005c     .X .}w........\.
    65d8:	ce60 8400 0033 5984 9700 006c 7484 8400     `...3..Y..l..t..
    65e8:	0087 8884 9100 001a 8984 8400 00c7 2984     ...............)
    65f8:	8400 0090 7084 8400 004e 1191 8400 008e     .....p..N.......
    6608:	5684 8400 0084 3984 6800 00e4 fd68 6800     .V.....9.h..h..h
    6618:	00eb 1369 6900 0211 cac0 9e00 0040 0669     ..i..i......@.i.
    6628:	6800 00d3 ec68 6800 00ea 0069 6900 0257     .h..h..h..i..iW.
    6638:	d5cd 7500 0026 6691 8900 00cc 6159 7600     ...u&..f....Ya.v
    6648:	0095 6a78 6b00 0039 5f8a b402 0010 8c8f     ..xj.k9.._......
    6658:	6800 00d0 829f ce02 007c f99e 7200 005a     .h......|....rZ.
    6668:	4e77 6600 006b 6a66 6600 0271 f97f 8600     wN.fk.fj.fq.....
    6678:	00d1 6f75 6500 009d a455 5d00 0036 415d     ..uo.e..U..]6.]A
    6688:	bd02 0087 3e5d 5d00 0045 3f5d 5d00 005a     ....]>.]E.]?.]Z.
    6698:	d97f b502 00ae 0c57 5700 0010 518d 6d00     ......W..W...Q.m
    66a8:	00fc 528d 9f00 00cf f994 cb02 004a fd94     ...R........J...
    66b8:	8c02 0247 f6b4 9500 000a 0d95 9500 020e     ..G.............
    66c8:	4ecb 9500 0013 8772 9800 008b 0c7a 7b00     .N....r.....z..{
    66d8:	0040 587b 7b00 005c 657b 7b00 0045 8350     @.{X.{\.{e.{E.P.
    66e8:	5000 0089 db7f 5000 0092 9550 8200 003e     .P.....P..P...>.
    66f8:	6c75 b502 00af 3f81 8100 0058 0344 8100     ul.....?..X.D...
    6708:	0059 5281 cc02 005f 839c 7300 0230 edb6     Y..R.._....s0...
    6718:	7300 002f 843e 9900 0089 d351 9100 0217     .s/.>.....Q.....
    6728:	f7bd 5e00 00cb c65e 9100 000c a27c 9000     ...^..^.....|...
    6738:	0046 d065 cb02 00b1 1e71 c202 00a4 3b6b     F.e.....q.....k;
    6748:	3e02 0023 9a6e 6e00 0081 5d6e 6e00 0030     .>#.n..n..n].n0.
    6758:	536e 3d00 0014 1f6e 6e00 00a0 3c6e 6e00     nS.=..n..n..n<.n
    6768:	0087 636e 6e00 0051 9e6e 6100 0010 0361     ..nc.nQ.n..a..a.
    6778:	6500 0069 2f75 6800 00e8 4a62 8800 00e3     .ei.u/.h..bJ....
    6788:	7c79 5a00 007b 865a 5a00 009e f936 5a00     y|.Z{.Z..Z..6..Z
    6798:	0093 825a 5a00 0084 f56b 7700 02de 03cd     ..Z..Z..k..w....
    67a8:	b602 0028 0a7f 7f00 0010 999a 7400 0043     ..(..........tC.
    67b8:	5374 7400 0045 4674 4d00 0016 5674 7400     tS.tE.tF.M..tV.t
    67c8:	005d 5474 7400 0240 db49 7400 0073 4274     ].tT.t@.I..ts.tB
    67d8:	5d00 0085 5174 9000 0058 e29a 5800 0065     .]..tQ..X....Xe.
    67e8:	3d58 8d00 006a 5b64 5800 005d 1264 6400     X=..j.d[.X].d..d
    67f8:	000c b184 8400 00a8 cf84 8500 0000 e284     ................
    6808:	8400 00c2 bb84 8400 00e3 3969 6900 006a     ..........i9.ij.
    6818:	8369 6900 0085 5269 6900 005e 6969 6900     i..i..iR.i^.ii.i
    6828:	0087 3869 6900 0059 456b ca02 00a9 8378     ..i8.iY.kE....x.
    6838:	7800 028f 94c4 7800 0088 c540 7800 007f     .x.....x..@..x..
    6848:	2091 8f00 0292 0eca b402 0013 869f 8900     . ..............
    6858:	00dc d848 6600 0095 4d9e ba02 00c7 0a3b     ..H..f...M....;.
    6868:	6600 0085 f18d 8700 0010 0e87 5d00 0072     .f...........]r.
    6878:	578d 9a00 00b1 1695 b402 00f9 1895 9500     .W..............
    6888:	0033 2795 9500 022a 5acb 9500 002b 2c95     3..'..*..Z..+..,
    6898:	cb02 005b 117a 7a00 0019 5f41 c502 0042     ..[.z..z..A_..B.
    68a8:	7b7b 7b00 007c 767b 7b00 0066 647b 5000     {{.{|.{v.{f.{d.P
    68b8:	00ba 4e9e 5000 00c7 4582 8200 0049 3c8c     ...N.P...E..I..<
    68c8:	8c00 0086 7d81 8100 0068 6f81 9c00 0089     .....}..h..o....
    68d8:	8a9c 9c00 008c 9f4c cd02 028b 8dcd 9c00     ......L.........
    68e8:	008f ca96 7300 003a d498 8900 02df 7c67     .....s:.......g|
    68f8:	9900 008c db88 5e00 00d2 0076 7600 0005     .......^..v..v..
    6908:	1891 9e00 0052 1c91 9e00 0080 2391 9600     ....R........#..
    6918:	0218 36b5 7100 0041 4371 7100 0074 4b71     ...6.qA.qC.qt.qK
    6928:	7100 005f 5371 6e00 00e0 8d6e 6e00 00b9     .q_.qS.n..n..n..
    6938:	c66e 6e00 00c9 a66e 6e00 00b5 376f 6e00     n..n..n..n..o7.n
    6948:	00e7 d86e 6e00 00cd 2d61 6100 0065 4661     ..n..n..a-.ae.aF
    6958:	5800 0271 00b3 8800 00fc 8b79 7900 0094     .Xq.......y..y..
    6968:	9879 7900 0092 2b8c 9e00 0254 b3b5 6100     y..y...+..T....a
    6978:	000d c45a 5a00 00b1 2462 5200 00e0 2362     ..Z..Z..b$.R..b#
    6988:	b602 022a 2cb6 7f00 001e 2480 7400 0267     ..*..,.....$.tg.
    6998:	a9b7 7400 0068 7174 7400 0077 6274 6500     ...th.tq.tw.tb.e
    69a8:	00a0 4f64 5800 0095 8858 5800 0090 9858     ..dO.X..X..X..X.
    69b8:	6400 0074 8e92 1402 0013 9a58 6400 0296     .dt.......X..d..
    69c8:	17a9 9700 007d 8197 8500 000c 0885 8400     ....}...........
    69d8:	00f0 3985 8500 000a 0f56 6900 00b0 9169     ...9....V..i..i.
    69e8:	6900 02da cb35 6900 00dc 8d69 7500 0290     .i..5..i..i..u..
    69f8:	18ce 9100 007a 7e91 9100 0072 7491 7800     ....z..~..r..t.x
    6a08:	00b6 ce40 c402 0097 a878 5502 0032 b978     ..@.....x..U2.x.
    6a18:	7800 00a5 8252 b602 0096 174d 5900 0025     .x..R.....M..Y%.
    6a28:	8d77 9e00 0056 0e3b 8d00 00fd 3e87 5e00     w...V.;......>.^
    6a38:	0056 8d5d 5700 0219 4f8c 9500 003a 3c95     V.]..W...O..:..<
    6a48:	9500 023d 64cb 9500 003e 3f95 9500 0043     ..=..d..>..?..C.
    6a58:	4495 9500 0045 9d99 9e00 0059 a87b 7b00     .D..E.....Y.{..{
    6a68:	0096 8452 5000 00ec e650 5000 00d4 ce50     ..R..P..P..P..P.
    6a78:	6900 00c3 6636 9c00 0092 959c b602 0095     .i..6f..........
    6a88:	969c 9c00 0097 989c 9c00 0299 90cd cd02     ................
    6a98:	028f 7e9f 5900 0010 4d73 9800 02d7 1ace     ...~.Y..sM......
    6aa8:	5100 00d8 d15e 5e00 00d9 1776 7600 0025     .Q..^..^..v..v%.
    6ab8:	1576 9c00 009d 2b91 7100 0087 396f 6f00     v......+.q..o9.o
    6ac8:	0016 466f 6f00 0024 696f 6f00 003c 346f     ..oF.o$.oi.o<.o4
    6ad8:	3f00 004f 086f 6f00 000b 3b6f 6100 006c     .?O.o..o..o;.al.
    6ae8:	ac7a 7a00 00ad be3b c902 001d 1589 7900     z..z..;........y
    6af8:	009b 9a79 9600 00a9 d55a 5a00 00ed dc5a     ..y.....Z..Z..Z.
    6b08:	5a00 02ea 42c6 3e00 00ec b99e 7400 0086     .Z...B.>.....t..
    6b18:	266f 5300 00c7 a358 5800 00a6 a158 5200     o&.S..X..X..X..R
    6b28:	0090 8185 8500 0070 0385 9f00 0012 f169     ......p.......i.
    6b38:	9e00 005d cf78 7800 00c9 a36b 6100 006d     ..].x..x..k..am.
    6b48:	0597 6600 00b5 b266 6600 00b6 268e 8e00     ...f..f..f...&..
    6b58:	0023 d645 8700 0058 7287 8700 0064 4756     #.E...X..r..d.VG
    6b68:	5600 0042 4056 7f00 0076 b25d 5d00 0093     .VB.V@..v.]..]..
    6b78:	0738 5d00 009f 925d 9500 0046 4895 9500     8..]..]...F..H..
    6b88:	004b 4e95 cb02 0069 5595 7a00 0039 0751     K..N..i..U.z9.Q.
    6b98:	7600 009e 9b76 4d00 0018 4e82 8200 004f     .v..v..M...N..O.
    6ba8:	5f9e 9f02 0083 a69c 9c00 00aa ac9c 6a00     ._.............j
    6bb8:	0065 ed89 9e00 0060 619e 7c00 00c7 c87c     e.....`..a.|..|.
    6bc8:	7f00 00e6 629e 9e00 0063 9b71 6f00 0056     .....b..c.q..oV.
    6bd8:	756f 3d00 0050 826f 6f00 009b 6c74 6f00     ou.=P.o..o..tl.o
    6be8:	007d 7e6f 6f00 004f ad61 6100 0295 23ce     }.o~.oO.a..a...#
    6bf8:	6200 002d 2f89 7900 02a4 7db3 5a00 00fd     .b-../.y...}.Z..
    6c08:	7990 cd02 000a a574 7400 00b2 9274 6100     .y....t..t..t..a
    6c18:	0099 d064 9100 0039 b385 9700 0094 c79e     ..d...9.........
    6c28:	c702 009f 5785 8500 00a2 7985 6a00 005e     .....W.....y.j^.
    6c38:	516a 6a00 0066 9191 8900 00f1 e178 5502     jQ.jf.......x..U
    6c48:	0062 dc78 8c00 026e e6b7 ce02 0288 1cb8     b.x...n.........
    6c58:	9e00 007e 6486 6600 00bf cc66 6600 00c8     ..~..d.f..f..f..
    6c68:	1a3b 8e00 0045 368e 4500 00db 9787 7500     ;...E..6.E.....u
    6c78:	0081 1338 5e00 026a 58aa 5d00 02a6 6ccb     ..8..^j..X.]...l
    6c88:	8c02 0251 6fcb 9900 009e 447a 7b00 00da     ..Q..o....zD.{..
    6c98:	ef7b 7c00 0009 3d9f 8800 0060 e676 8700     {..|...=..`.v...
    6ca8:	00a3 227e 9c00 00ad af9c 9c00 00b0 ba9c     ..~"............
    6cb8:	9c00 02b9 f4b5 4e00 00b8 4076 7600 022d     .......N..v@.v-.
    6cc8:	26ce 7f00 00b1 d27c 7100 00cb bb71 7100     .&....|..q..q..q
    6cd8:	00ca da71 7100 00cf e96f 6f00 00cb aa6f     ..q..q..o..o..o.
    6ce8:	6f00 00bd b46f 6f00 00ad bc6f 6100 00b7     .o..o..o..o..a..
    6cf8:	ba61 6100 00d4 c99e 5b00 001b 689e 7f00     a..a.....[...h..
    6d08:	02ef 37b1 7400 02b1 7d4a 7400 00ac ae74     ...7.t..J}.t..t.
    6d18:	9a00 00fd ff64 8500 00bf b885 6a00 0091     ....d........j..
    6d28:	c66a 6a00 009e a891 7e00 0044 f978 7800     j..j.....~D.x..x
    6d38:	00fb ab77 7700 00b5 508e 8700 00cf 0e36     ..w..w...P....6.
    6d48:	cb02 0073 6495 cb02 0276 0db5 9500 0065     ..s..d..v.....e.
    6d58:	6895 cb02 0278 548c cb02 027c 0eb5 7700     .h..x..T..|....w
    6d68:	00f0 597a 7a00 005c 5f7a 7c00 0015 037c     ..zY.z\.z_.|..|.
    6d78:	7c00 000f 2651 9b00 004b b665 8200 025a     .|..Q&..K.e...Z.
    6d88:	2ace 8c00 003f a04c cd02 009f be9c cd02     .*..?.L.........
    6d98:	00a0 bf9c 9c00 00c1 c29c 9c00 00c8 c99c     ................
    6da8:	7300 006f ea45 9900 0098 5589 8900 025a     .so.E......U..Z.
    6db8:	a8cd 8700 00b1 1375 5b00 002c 255b 6202     ......u..[,.[%.b
    6dc8:	0221 38b1 7400 00c0 d091 9b00 0036 0772     !..8.t......6.r.
    6dd8:	9700 00b3 ae97 c702 00c1 df85 8500 00e6     ................
    6de8:	e885 9e00 0072 ab6a 9e00 00e1 1e79 7900     ....r.j.....y..y
    6df8:	020c a855 8e00 0062 5c8e 8700 00eb f445     ..U...b..\....E.
    6e08:	5600 009a c39a 9500 006e 7195 9100 0042     .V......n..q..B.
    6e18:	a799 7c00 0020 1d7c 7c00 0030 2b9f 9f00     ...| .|..|0..+..
    6e28:	0029 a676 8100 00d1 a24c 9c00 00d1 d29c     ).v.....L.......
    6e38:	9e00 0071 6f9e 7600 0257 8d64 6500 00de     ..q..o.vW.d..e..
    6e48:	f77f 5100 0081 9643 7000 0014 0d70 7000     ...Q..C..p..p..p
    6e58:	000c 5c89 4d00 0219 4ac6 5600 00ad 003c     ...\.M...J.V..<.
    6e68:	9b00 0037 ad91 8e00 006f 0b88 7f00 00fe     ..7.....o.......
    6e78:	d89c 5100 0033 3451 9f00 0217 adcd 9f02     ...Q3.Q4........
    6e88:	008c da9c 9c00 00db 919e 9e00 0096 0388     ................
    6e98:	5f00 005f 3f5b 9b00 0012 1886 6b00 0002     .__.[?.......k..
    6ea8:	b591 9800 00a5 1775 8702 00e0 c75d 9100     ......u.....]...
    6eb8:	0045 ce9a 7200 02a8 aecd 8b02 0049 0c3e     E....r......I.>.
    6ec8:	7200 0014 3170 7000 0039 3c70 7000 0035     .r..p1.p9.p<.p5.
    6ed8:	6b89 5b00 0045 a69a c602 004b 3080 4a02     .k.[E.....K..0.J
    6ee8:	00c9 d674 9b00 0018 af8d ce02 0093 4d7f     ..t............M
    6ef8:	9f00 0031 e09c 9c00 00e1 e39c 7200 001f     ..1..........r..
    6f08:	1a72 7000 0048 c297 7c00 00f5 3c86 7900     r..pH....|...<.y
    6f18:	0035 749e 8e00 0094 ad76 9f00 00a2 e49c     5..t....v.......
    6f28:	4e00 00b9 657c 9f00 0237 adb6 7300 0083     .N..|e..7....s..
    6f38:	be91 9f00 0047 ff89 8800                     ....G.....<

00006f43 <glyph>:
    6f43:	0808 0808 0808 0808 0808 0008 0000 0000     ................
    6f53:	0000 8180 8482 9088 c0a0 80c0 0001 22c2     ..............."
    6f63:	2222 c022 4000 4040 4040 4040 4040 0000     """..@@@@@@@@@..
    6f73:	4444 4444 4044 0404 0404 ff04 0404 0404     DDDDD@..........
    6f83:	0004 0000 000e 0000 8080 8080 ff80 8080     ................
    6f93:	8080 0080 0200 002e 0000 ff00 8080 8080     ................
    6fa3:	8080 8080 0080 0068 0000 0000 0808 08ff     ......h.........
    6fb3:	1010 1010 2020 0020 e200 2222 e022 0000     ....   ..."""...
    6fc3:	0000 10ff 0810 0408 0002 0000 00e0 0000     ................
    6fd3:	0000 f807 0000 f800 0007 0000 002c 0000     ............,...
    6fe3:	200c 0000 0300 f00c 030c 0000 0000 8024     . ............$.
    6ff3:	0000 2084 0000 8380 f08c 030c 0000 0000     ... ............
    7003:	8024 0000 2084 0000 ff00 0000 ff00 0000     $.... ..........
    7013:	0001 c022 0e00 e022 04ff 0404 0808 1008     .."...".........
    7023:	2110 0000 22e2 2222 002e 0000 fe01 8080     .!..."""........
    7033:	ff80 0000 0001 8024 0e00 e022 2020 fe21     ......$...".  !.
    7043:	2020 3f20 0000 0003 8024 0e00 e022 8181        ?....$..."...
    7053:	8281 8482 8884 8088 00ff 0000 0200 e022     ..............".
    7063:	8080 8080 8780 9088 c0a0 0000 0200 002e     ................
    7073:	0000 8080 8681 80f8 8080 8080 00ff 8024     ..............$.
    7083:	0200 e022 2020 2320 20fc 2020 2020 003f     ..".   #.     ?.
    7093:	8024 0200 e022 8080 f887 8080 9880 88e8     $..."...........
    70a3:	000f 002c 0200 e022 b080 8488 8182 8482     ..,...".........
    70b3:	e098 0000 4422 8480 2042 4440 4444 4444     ...."D..B @DDDDD
    70c3:	4444 4444 0040 2222 2222 2022 8404 8484     DDDD@.""""" ....
    70d3:	ff84 8484 8484 0004 0000 000e 0000 8404     ................
    70e3:	8484 ff84 8484 8484 0004 0200 002e 0000     ................
    70f3:	1210 9a96 9292 9292 1392 0010 0400 2442     ..............B$
    7103:	0080 8080 8080 ff80 8080 8080 0080 2222     ..............""
    7113:	222e 2022 0800 0808 ff08 0808 0808 0000     ."" ............
    7123:	2222 222e 2022 1010 1010 ff10 1010 1010     ""."" ..........
    7133:	0010 2202 222e 0022 2020 2120 2221 24ff     ..."."".   !!".$
    7143:	2028 0020 8088 e022 0000 8080 8080 80ff     (  ...".........
    7153:	8890 8284 0080 0000 00e0 0000 2020 2324     ............  $#
    7163:	2020 ff20 2020 0020 0000 2e02 0000 2020        .   .......  
    7173:	2320 f02c 232c 2020 0020 8024 0000 2084      #,.,#   .$.... 
    7183:	2020 2224 2021 fc23 2020 0020 2422 4448       $"! #.   ."$HD
    7193:	2022 1901 49e9 4949 4949 414f 0001 0000     " ...IIIIIOA....
    71a3:	2222 00c0 8080 84ff 8484 8484 8784 0080     ""..............
    71b3:	002c 2200 002e 0000 0000 ff00 0808 0808     ,.."............
    71c3:	0000 2222 222e 2022 1c03 0000 ff00 0000     ..""."" ........
    71d3:	1c00 0003 0200 002e 0000 407f 4040 4040     ...........@@@@@
    71e3:	4040 7f40 0000 44c4 4444 004c 007f 0000     @@@....DDDL.....
    71f3:	ff00 0000 0000 007f 22e2 222e e022 203f     ........."."".? 
    7203:	2020 ff20 2020 2020 003f 0080 000e 8088        .    ?.......
    7213:	4404 4444 7f44 4444 8484 0004 0000 000e     .DDDD.DD........
    7223:	0000 2010 49c8 4a49 4c4a 484c 0040 a204     ... .IIJJLLH@...
    7233:	2222 e022 ff00 0000 7f00 0000 ff00 0000     """.............
    7243:	0068 000c 000e 3f08 01c0 8482 9088 c0a0     h......?........
    7253:	0080 0c0e 2222 e022 0808 2010 8740 2040     ....""".... @.@ 
    7263:	0810 0008 0000 000e 0000 0804 c830 4444     ............0.DD
    7273:	4142 7846 0000 0200 8024 0000 1008 c020     BAFx....$..... .
    7283:	4241 5845 0060 0000 4822 0800 2042 0800     ABEX`..."H..B ..
    7293:	2110 04c2 6018 0100 0000 a226 4422 604c     .!...`....&."DL`
    72a3:	3008 40c0 4448 4043 4040 007f 0000 0200     .0.@HDC@@@......
    72b3:	e022 ff00 8080 8688 8080 00ff 0001 0068     ".............h.
    72c3:	0000 e0e2 2424 fe23 2021 3f20 0000 0003     ....$$#.!  ?....
    72d3:	8024 0e08 e022 8100 84fe 8182 a998 0cca     $..."...........
    72e3:	0000 222c 8444 2022 7f00 4040 4040 40c0     ..,"D." ..@@@@.@
    72f3:	4040 0040 0068 0000 0000 3f20 2020 e020     @@@.h..... ?   .
    7303:	2020 2020 0020 220e 2222 0022 409f 8000          ..""""..@..
    7313:	8080 8080 8080 00ff 00e0 0000 e022 8000     ............"...
    7323:	2040 0f10 2010 8040 0000 0000 000e 0000     @ ... @.........
    7333:	f000 020c 6081 0201 f00c 0000 2422 4448     .....`......"$HD
    7343:	2022 2020 2020 e121 2422 3028 0000 8824     "     !."$(0..$.
    7353:	2244 2022 ff00 9090 9090 9090 9090 00f0     D"" ............
    7363:	0068 0000 0000 8487 8484 8484 8484 fc84     h...............
    7373:	0000 22e2 2222 6022 849f 8484 8484 8484     ...""""`........
    7383:	fc84 0000 22e2 2222 6022 84ff 8484 8484     .....""""`......
    7393:	8484 fc84 0000 22e2 2222 6022 9e80 9292     .......""""`....
    73a3:	9292 9292 f292 0003 0000 2202 e022 8404     ...........""...
    73b3:	8484 8f84 a494 04c4 0004 0200 002e 0000     ................
    73c3:	8000 8080 80ff 8282 fe82 0000 2222 22e2     ............""."
    73d3:	2022 0808 087f 1010 10ff 3e22 0000 e200     " ........">....
    73e3:	2222 e022 2020 3a26 20e1 2320 203c 0020     """.  &:.  #<  .
    73f3:	2422 8448 2042 8888 8784 81fa 8080 8080     "$H.B ..........
    7403:	00ff 8024 8200 e022 8080 8080 8080 ff80     ..$...".........
    7413:	2810 0044 0000 0800 c042 8080 90a0 8088     .(D.....B.......
    7423:	8281 8080 00ff 4404 0288 e022 b080 8488     .......D..".....
    7433:	99a2 8482 e098 0000 4422 8480 2042 8c00     ........"D..B ..
    7443:	84b4 8484 8484 fc84 0007 8888 8a88 e0a2     ................
    7453:	0000 3311 9955 1111 0221 0000 2200 4824     ...3U...!...."$H
    7463:	0000 4941 4949 ff49 4949 4949 0041 0000     ..AIIII.IIIIA...
    7473:	000e 0000 8484 8484 ff84 8484 8484 0084     ................
    7483:	2222 222e 2022 8484 84ff 8484 ff84 8484     ""."" ..........
    7493:	0000 002c 0e00 0000 2121 ff21 2121 ff21     ..,.....!!!.!!!.
    74a3:	2121 0021 4802 0e00 0000 8880 8888 fc8b     !!!..H..........
    74b3:	888b 8888 0080 4822 0800 2042 2404 2424     ......"H..B .$$$
    74c3:	fe25 2425 2424 0004 4822 0800 2042 8808     %.%$$$.."H..B ..
    74d3:	8f88 8888 8f88 8888 0008 4822 0e00 e022     .........."H..".
    74e3:	8808 8988 f88e 888f 8888 0008 4822 e200     ............"H..
    74f3:	e022 8808 8988 888e 8888 8889 0008 6a22     "............."j
    7503:	2422 6048 4808 4e4a ca7a 4a4a 484b 0008     "$H`.HJNz.JJKH..
    7513:	0000 6884 0000 8c80 84b4 fc84 9494 9494     ...h............
    7523:	0087 0000 2200 c022 2222 24ff 0024 00ff     .....""."".$$...
    7533:	0000 0003 e022 e200 e022 4840 e848 4949     ...."...".@HH.II
    7543:	ea4a 484c 0040 aa04 2222 002c 2120 3826     J.LH@..."",. !&8
    7553:	ff20 3820 2126 0020 0080 000e 8000 8880      . 8&! .........
    7563:	8f88 88f8 8888 808f 0080 2e22 2222 20e2     .........."."". 
    7573:	4840 4a48 f849 4948 4c4a 0040 2422 8448     @HHJI.HIJL@."$H.
    7583:	2042 ff00 9090 9090 909f 9090 0090 0068     B ............h.
    7593:	e022 0000 8282 8884 bf90 88c0 8488 0082     "...............
    75a3:	0000 000e 0000 2020 2120 f826 2126 60a0     ......   !&.&!.`
    75b3:	0020 4822 0800 2042 2020 2320 f02c 232c      ."H..B    #,.,#
    75c3:	2020 0020 8024 4008 2084 80ff 9090 8a89        .$..@. ......
    75d3:	8a84 80b1 0080 aae2 2222 202a ff00 9080     ........""* ....
    75e3:	bf90 9090 9090 009f 0268 02c0 e022 8480     ........h..."...
    75f3:	8884 92f4 9091 9291 009c 2202 4824 0000     ..........."$H..
    7603:	4040 fc47 494a 4948 4c4a 0040 222c 8444     @@G.JIHIJL@.,"D.
    7613:	2042 2020 2120 20fe a027 2060 0020 4822     B    !. '.`  ."H
    7623:	e200 e022 80ff 8681 80f8 ff80 8181 0087     ..".............
    7633:	22e2 2222 2022 4c44 6454 5fc4 4444 4444     ."""" DLTd._DDDD
    7643:	0044 8888 888e 8088 91ff 9191 9191 9191     D...............
    7653:	9f91 0080 22e2 2222 2022 0808 88f8 8a89     ....."""" ......
    7663:	888c 88ff 0088 8844 2200 00e0 5e40 4242     ......D.."..@^BB
    7673:	ff42 4242 5e42 0040 0000 220e e022 2020     B.BBB^@...."".  
    7683:	2020 27f8 2221 68a4 0020 4844 8480 c022       .'!".h .DH..".
    7693:	ff00 0808 0008 08ff 1008 0021 242e e240     ..........!..$@.
    76a3:	e022 9f80 91f1 9191 9191 9f91 0080 2222     ".............""
    76b3:	2222 20e2 ff08 2110 8080 80ff 8080 00ff     "". ...!........
    76c3:	4c0c 002c e022 8180 90fe 9394 9090 809f     .L,."...........
    76d3:	0081 222e 0044 e0e2 3f00 0000 ff00 0808     ..."D....?......
    76e3:	0808 0000 222e 222e 2022 1804 0060 fe00     ....."."" ..`...
    76f3:	0000 1863 0004 2202 4824 0000 84ff 8484     ..c...."$H......
    7703:	8484 8484 8084 00ff 22e2 2222 e022 ff00     .........""""...
    7713:	8484 8484 8484 ff84 0000 220e 2222 002e     ..........."""..
    7723:	213f 2121 ff21 2121 2121 003f 0000 000e     ?!!!!.!!!!?.....
    7733:	0000 ff00 8080 9f80 8080 ff80 0000 4422     .............."D
    7743:	8480 2042 80ff 8890 8685 80b9 ff80 0000     ..B ............
    7753:	48e0 0a00 002e 407f 4241 f04c 4448 4043     .H.....@ABL.HDC@
    7763:	007f 00e0 0000 e022 1010 1c13 ff00 0a04     ......".........
    7773:	2011 0000 0248 002e 4008 fe00 8080 9f80     . ..H....@......
    7783:	8080 fe80 0000 4422 e280 e022 320a 22e2     ......"D.."..2."
    7793:	3f22 2222 2222 0002 0000 000e 0000 320a     "?"""".........2
    77a3:	22e2 ff22 2222 2222 0002 0000 000e 0000     ."".""""........
    77b3:	4901 4949 7f49 8949 0989 0001 0200 002e     .IIII.I.........
    77c3:	0000 d424 5454 5454 5454 5057 0040 0000     ..$.TTTTTTWP@...
    77d3:	0000 c0c2 4901 4949 527f 9252 24a2 0004     .....III.RR..$..
    77e3:	0000 22e2 e022 4404 4444 7f44 4444 8484     ...""..DDDD.DD..
    77f3:	0004 2202 222e 0022 4444 847f 0484 ff04     ..."."".DD......
    7803:	0404 0000 002c 0e00 0000 4404 4444 7e45     ....,......DDDE~
    7813:	4445 8484 0004 4822 0800 2042 0808 08ff     ED...."H..B ....
    7823:	292a 4848 0888 0008 e200 8420 2042 3f08     *)HH...... .B .?
    7833:	00c0 4040 4040 4040 0000 040e 4444 4044     ..@@@@@@....DDD@
    7843:	3f08 00c0 0808 ff08 0808 0008 000e 0e00     .?..............
    7853:	0000 ff00 1212 1212 13f2 1010 0010 0068     ..............h.
    7863:	0e00 0000 0804 c03f 0000 08ff 0204 0001     ......?.........
    7873:	e000 e000 0000 0804 c03f 0000 08ff 1008     ........?.......
    7883:	0021 e000 e200 e022 3f08 20c0 ff20 2020     !....."..?.  .  
    7893:	003f 0003 020e 00c0 e0e2 484f 4848 7f48     ?.........OHHHH.
    78a3:	8888 8888 008f 00c0 040e c044 3f08 00c0     ..........D..?..
    78b3:	ff80 8080 08f8 000f 020e 00c0 e022 3f08     ............"..?
    78c3:	00c0 8cf0 8182 8c82 00f0 000e 8024 2084     ............$.. 
    78d3:	7f00 4444 4444 4447 8484 0004 0068 e000     ..DDDDGD....h...
    78e3:	0000 7f00 4040 7f40 4040 bf40 0080 0068     ....@@@.@@@...h.
    78f3:	000e 6008 ff00 9c90 9192 9190 9c92 0080     ...`............
    7903:	2268 8444 2042 0808 2f10 8040 2f40 0810     h"D.B .../@.@/..
    7913:	0008 c002 0e00 0000 3008 0cc0 0102 0c02     .........0......
    7923:	30c0 0008 4422 8480 2042 0000 f807 0007     .0.."D..B ......
    7933:	f807 0007 0000 002c 002c 200c 1010 212f     ......,.,.. ../!
    7943:	8241 2442 1424 0010 e200 2222 002e 1210     A.B$$.....""....
    7953:	2a2a 8a4a 2a4a 132a 0010 0000 2400 0080     **J.J**......$..
    7963:	00ff 1120 040a 611a 0000 00ff a2e2 2222     .. ....a......""
    7973:	e0a2 0804 c434 0407 c404 0837 0004 2402     ....4.....7....$
    7983:	2280 00e0 4848 4848 5968 4a49 8c8a 0000     ."..HHHHhYIJ....
    7993:	4422 22a2 2022 0804 c130 000e c000 0831     "D."" ..0.....1.
    79a3:	0004 6a02 4422 0086 1010 282f 8948 2848     ...j"D..../(H.H(
    79b3:	102f 0010 e200 aa22 e0a2 ff00 9292 9292     /.....".........
    79c3:	9292 9292 00ff 0068 0200 e022 7f00 4444     ......h..."...DD
    79d3:	4444 457e 8484 0004 242e 0840 c042 1804     DD~E.....$@.B...
    79e3:	43e0 407c 7c43 4040 007f 8004 0048 e022     .C|@C|@@....H.".
    79f3:	1804 40e0 5c43 4043 4c40 0070 4822 0800     ...@C\C@@Lp."H..
    7a03:	2042 ff00 9080 8689 80b9 00ff 0001 0868     B ............h.
    7a13:	c000 c0c2 ff02 8282 92a2 828a ff82 0002     ................
    7a23:	0068 0200 002e 1008 40e0 4c50 4141 4042     h........@PLAAB@
    7a33:	007f 8800 0288 e022 7e00 4242 42c2 4a52     ......"..~BB.BRJ
    7a43:	7a4a 0003 8888 8a88 e0a2 2010 46c1 4058     Jz......... .FX@
    7a53:	4341 4041 007f 8808 0288 e0a2 ff00 b880     ACA@............
    7a63:	a3a4 80bc 00ff 0001 0468 c080 c0c2 2020     ........h.....  
    7a73:	2621 e020 2620 2021 0020 8024 0000 2084     !& . &!  .$.... 
    7a83:	2020 2438 e122 2422 2038 0020 4422 8480       8$"."$8  ."D..
    7a93:	2042 2020 2f20 e828 2f28 2020 0020 4822     B    /(.(/   ."H
    7aa3:	0e00 e022 2020 3f20 e222 2222 2322 0020     ..".   ?"."""# .
    7ab3:	c002 2200 002e 2000 0018 fc03 0003 3008     ..."... .......0
    7ac3:	0000 4822 0800 2042 a020 3e61 20e0 2324     .."H..B  .a>. $#
    7ad3:	2020 003f c002 0000 e022 0800 4408 1121       ?....."....D!.
    7ae3:	0101 02ff 0002 8888 0000 00e0 003c 20ff     ............<.. 
    7af3:	8201 8884 a090 00c1 e000 22c2 e022 5f90     ..........."".._
    7b03:	0000 0808 ff08 0808 0008 402e 0e00 0000     ...........@....
    7b13:	5f90 0000 8080 8080 80ff 0080 402e 2202     ._...........@."
    7b23:	00e0 3f00 2424 64a4 2424 3c24 0000 0068     ...?$$.d$$$<..h.
    7b33:	0000 0000 5f90 0000 0000 f807 0007 0000     ....._..........
    7b43:	402e 002c 200c 80f0 9f80 9090 9f90 8080     .@,.. ..........
    7b53:	00f1 4822 0e00 e022 5f90 0000 80ff 8080     .."H..".._......
    7b63:	00ff 0000 402e 00e0 e0e2 0e01 1f00 6080     .....@.........`
    7b73:	0118 0c10 0003 0e80 2e22 8000 ff00 8888     ........".......
    7b83:	8888 898e f888 0000 0068 0800 2042 929e     ........h...B ..
    7b93:	9292 f392 0000 ff00 0000 2222 002c 000e     .........."",...
    7ba3:	8484 8784 84fc 8484 04ff 0004 2e22 2222     ............".""
    7bb3:	20e2 84ff 8484 fc84 8484 8484 00fc 22e2     . ............."
    7bc3:	2222 e022 8181 a49f 00c4 00ff 0000 0003     """.............
    7bd3:	e002 e200 e022 80ff e798 0000 fc03 0003     ...."...........
    7be3:	0000 80e8 002c 200c 2e21 2120 20fe 2020     ....,.. !. !.   
    7bf3:	043f 0003 4822 2200 00e0 ff00 0000 39c0     ?..."H.".......9
    7c03:	0000 fe01 0000 442c 2482 2084 0808 2b18     ......,D.$. ...+
    7c13:	08c8 1310 2050 0010 4822 0e00 e022 8808     ....P .."H.."...
    7c23:	a888 9fa8 a898 8ac9 000c 0200 002e 0000     ................
    7c33:	839c 8180 00fe 80ff 9880 00e7 8424 e820     ............$. .
    7c43:	0088 87f8 8780 00f8 ff40 4040 007f c222     ........@.@@..".
    7c53:	c002 e022 8c90 8c83 00f0 8cb0 8c83 00f0     ..".............
    7c63:	0c2c 2c20 200c 2202 2222 22ff 2222 42be     ,. ,. .""".""".B
    7c73:	0023 0000 00e0 e022 3408 0cc3 8031 8080     #....."..4..1...
    7c83:	8080 00ff 246a 00c2 e022 8484 8484 ff84     ....j$..".......
    7c93:	8484 8485 0084 2222 222e 202a 8484 84ff     ......""."* ....
    7ca3:	0084 7f00 0000 00ff e000 0800 e022 2404     ............"..$
    7cb3:	2724 ff24 2724 2424 0004 8044 000e 4084     $'$.$'$$..D....@
    7cc3:	2420 2724 ff24 2724 2424 0020 8044 000e      $$'$.$'$$ .D...
    7cd3:	4084 8908 8888 8f88 8888 8988 0008 0248     .@............H.
    7ce3:	002e 4008 2504 2424 ff24 2424 2524 0004     ...@.%$$$.$$$%..
    7cf3:	220e 222e 002e 2222 24ff 4020 4040 407f     .".".."".$ @@@.@
    7d03:	0040 e002 2200 00e0 7f40 0040 8080 84fc     @...."..@.@.....
    7d13:	8784 0080 804c 0200 002e 8f80 8080 ff80     ....L...........
    7d23:	8484 8484 0084 222e 222e 2022 2222 24ff     ......."."" "".$
    7d33:	0024 08ff 0408 0004 e022 e000 0000 2121     $.......".....!!
    7d43:	2127 f921 2121 2127 0021 c002 0000 00e0     '!!.!!'!!.......
    7d53:	ff22 0024 fe01 0000 01fe 0000 022e 00c0     ".$.............
    7d63:	200c 4040 407f 2040 ff20 2020 003f c844     . @@.@@  .  ?.D.
    7d73:	c082 e002 ff21 0022 ff80 8080 08f8 000f     ....!.".........
    7d83:	022e 00c0 e022 2202 2322 fe22 2222 2222     ...."..""#".""""
    7d93:	0002 6a02 2222 00c2 2020 22ff 2222 2222     ...j""..  ."""""
    7da3:	20ff 0020 e200 2222 00e0 ff10 1010 ff10     .  ...""........
    7db3:	1111 10ff 0010 220e 2222 2022 4040 e448     ......."""" @@H.
    7dc3:	4142 e442 4048 0040 4422 8480 2042 2320     BAB.H@@."D..B  #
    7dd3:	2222 fe22 2222 2322 0020 220e 2222 002e     """."""# .."""..
    7de3:	4840 e848 484f e848 4f48 0040 0000 88e0     @HH.OHH.HO@.....
    7df3:	0088 2020 3c23 ff20 3c20 2023 0020 0848     ..  #< . <#  .H.
    7e03:	888e 4008 1010 1e11 ff10 1e10 5091 0010     ...@.........P..
    7e13:	8024 000e 2084 9f80 9191 9191 809f ff80     $.... ..........
    7e23:	0080 0000 2200 002e 909f 9190 fc92 9192     ....."..........
    7e33:	9090 009f 80e0 0000 e0a2 2120 3a26 23e2     .......... !&:.#
    7e43:	2222 2222 0020 2282 222e 2022 ff00 a080     """" .."."" ....
    7e53:	bfa0 a4a4 a4a4 00a7 0268 02c0 e022 8281     ........h..."...
    7e63:	9c87 84e4 8484 8784 0080 e200 2222 002e     ............""..
    7e73:	2120 3a27 22e2 2222 2322 0020 e280 2222      !':.""""# ...""
    7e83:	002e 4844 685f 5fc8 4848 4f48 0040 c000     ..DH_h._HHHO@...
    7e93:	000e 004c 4544 4949 e351 4951 4549 0044     ..L.DEIIQ.QIIED.
    7ea3:	2402 0280 002e 3f00 2020 2020 21fe 6ca2     .$.....?    .!.l
    7eb3:	0020 0068 4822 6042 2020 f827 3f20 a121      .h."HB`  '. ?!.
    7ec3:	2262 0024 082c 228e e022 a282 829a ff82     b"$.,.."".......
    7ed3:	8282 b28a 0082 0000 000e 0000 a080 8398     ................
    7ee3:	f08c 838c b088 0080 8024 0000 2084 e45c     ........$.... \.
    7ef3:	445f ff00 0000 0000 0003 e888 220e e022     _D..........."".
    7f03:	2622 322a af62 2222 2222 0022 8024 002e     "&*2b.""""".$...
    7f13:	2084 0808 0808 ff08 494a 4849 0008 0000     . ......JIIH....
    7f23:	000e 8008 1010 ff11 0000 ff00 1008 0021     ..............!.
    7f33:	0e88 0e00 e022 0203 fe02 2222 2222 2023     ....".....""""# 
    7f43:	0000 22e2 2222 00e0 080f f808 8080 f880     ..."""..........
    7f53:	0808 000f 22e2 2222 e022 1f00 1212 f212     ....."""".......
    7f63:	5252 5252 005e 0068 0000 0000 0f30 ff00     RRRR^.h.....0...
    7f73:	0000 ff00 0700 0038 2e22 2e22 2022 00ff     ......8."."." ..
    7f83:	0000 84ff 8484 8484 00ff 00e0 22e2 e022     ............."".
    7f93:	007f 00ff 407f ff40 4040 007f 8006 0ec0     .....@@.@@......
    7fa3:	c004 003e ff00 8400 8484 8484 00ff c002     ..>.............
    7fb3:	2202 e022 ff00 9191 9191 9191 ff91 0000     ."".............
    7fc3:	2222 2222 2022 92ff 9292 9292 9292 00ff     """"" ..........
    7fd3:	0000 22e2 2222 00e0 ff00 9292 9292 9292     ..."""..........
    7fe3:	ff92 0000 222e 2222 202e 407f 7f40 0808     .....""". .@@...
    7ff3:	ff08 0808 0008 8888 0e00 0000 92fe 9292     ................
    8003:	ff92 9292 9292 00fe 0000 000e 0000 7f00     ................
    8013:	4848 ff48 4848 7f48 0000 8808 888e 0088     HHH.HHH.........
    8023:	80ff ff80 8000 8080 80ff 0080 4cc4 2200     .............L."
    8033:	00e0 487f 4848 48ff 4848 7f48 0000 8888     ...HHH.HHHH.....
    8043:	aaea 60aa f404 9597 9595 9595 f595 0004     ...`............
    8053:	0000 2202 002e 84ff 8484 ff84 8484 8484     ..."............
    8063:	00ff 22e2 222e e022 223f 2222 ff22 2222     ..."."".?"""".""
    8073:	2222 003f 22e2 222e e022 fc00 8485 8484     ""?.."."".......
    8083:	8484 fc85 0000 8024 0000 2084 407f 7f40     ......$.... .@@.
    8093:	0100 00fe 01fe 0000 4cc4 002c 200c 447c     .........L,.. |D
    80a3:	4545 ff44 4444 4444 007c 2422 4284 2022     EED.DDDD|."$.B" 
    80b3:	7e02 4242 fe43 4243 7e42 0002 4822 0800     .~BBC.CBB~.."H..
    80c3:	2042 fc00 8784 8484 8784 fc84 0000 4822     B ............"H
    80d3:	0e00 e022 407f 7f40 ff00 8080 00ff 0000     .."..@@.........
    80e3:	8888 0068 e0e2 407f 7f40 4100 4442 4048     ..h....@@..ABDH@
    80f3:	007f 4cc4 0200 e022 407f 7f40 0000 007f     ...L.."..@@.....
    8103:	ff00 0001 8888 c804 008e 80ff ff80 0000     ................
    8113:	80ff 8080 00ff 8888 e000 8088 407f 7f40     .............@@.
    8123:	8380 80fc 8080 00ff 8888 0068 e022 fa02     ..........h."...
    8133:	8f8a 8a8a 8a8a fa8a 0003 4822 0000 e022     .........."H..".
    8143:	407f 7f40 fc00 8083 8681 00f8 8888 4822     .@@..........."H
    8153:	2042 7f01 4949 ff49 4949 7f49 0001 000e     B ..III.III.....
    8163:	0200 002e ff00 8080 80ff 80ff ff80 0000     ................
    8173:	222e e2e2 202e 80ff ff80 0101 ff01 8080     ."... ..........
    8183:	00ff 22e2 2222 e022 80ff 8180 b886 8186     ..."""".........
    8193:	8080 00ff a2e2 2222 e0a2 81ff fc82 8080     ......""........
    81a3:	fe80 8282 00ff 22e2 2222 e022 e218 2222     .......""""...""
    81b3:	ff22 2222 2222 0020 2222 222e 2022 e414     "."""" .""."" ..
    81c3:	4444 7c47 4447 4444 0004 4822 0800 2042     DDG|GDDD.."H..B 
    81d3:	320a 22e2 fe23 2223 2222 0022 4822 0800     .2."#.#""""."H..
    81e3:	2042 3008 40c0 497f 4949 4949 0049 0000     B .0.@.IIIIII...
    81f3:	00e0 0000 0808 4a49 7f4c 8a8c 0889 0008     ......IJL.......
    8203:	0048 000e 4008 7f00 4444 4444 4744 8484     H....@..DDDDDG..
    8213:	0000 222e 2e22 2022 3f08 20c0 2324 2020     ...""." .?. $#  
    8223:	ff20 0020 000e 0200 002e 3f08 20c0 232c      . ........?. ,#
    8233:	2320 20fc 0020 020e 8424 2022 3f08 10c0      #.  ...$." .?..
    8243:	1010 11fe 9010 0050 000e 0800 c042 3f08     ......P.....B..?
    8253:	00c0 003f ff00 0000 003f 000e 2ee2 e022     ..?.....?.....".
    8263:	3f08 00c0 409f 8000 8080 00ff 000e 00e0     .?...@..........
    8273:	e022 3f08 00c0 0cf0 6083 0c03 00f0 000e     "..?.....`......
    8283:	4822 2042 223f 6222 22a2 2222 3f22 0000     "HB ?""b.""""?..
    8293:	22e2 2222 002e 3f08 02c0 8282 8f82 a292     ."""...?........
    82a3:	00c2 000e 2e02 0000 3f08 08c0 087f ff10     .........?......
    82b3:	2210 003e 000e 22e2 e022 7f00 4948 4949     .">....""...HIII
    82c3:	484f 8888 0008 0068 e800 0084 7f00 4040     OH....h.......@@
    82d3:	7f40 4040 bf40 0080 0268 482e 6048 5202     @.@@@...h..HH`.R
    82e3:	424a 7f42 4242 928a 0002 0200 002e 0000     JBB.BB..........
    82f3:	0300 f00c 030c f00c 030c 0000 22a2 22a2     ............."."
    8303:	a022 1212 3222 9253 3252 1322 0010 0000     "..."2S.R2".....
    8313:	04e0 004c ff00 9292 ff92 9292 ff92 0000     ..L.............
    8323:	0068 000e 002e ff00 9292 ff92 9292 ff92     h...............
    8333:	0000 0068 2a0e 60aa 487f 8848 0088 80ff     ..h..*.`.HH.....
    8343:	8080 00ff 8888 e080 8088 2310 40c0 5f40     ...........#.@@_
    8353:	4040 4340 0070 00c0 002e c000 7c04 4444     @@@Cp........|DD
    8363:	5f44 8444 8484 0004 8024 002e 2084 1804     D_D.....$.... ..
    8373:	48ef 4848 4f48 4040 007f 8800 8a88 e022     .HHHHO@@......".
    8383:	3008 4ec9 4578 7a46 4041 007f 0008 0248     .0.NxEFzA@....H.
    8393:	e022 ff04 8484 04ff 84ff ff84 0004 022c     ".............,.
    83a3:	e0e0 002e 7f01 8241 00bf ff00 8080 00ff     ......A.........
    83b3:	2402 0e80 8008 44a2 00bf ff00 8080 8484     .$.....D........
    83c3:	00fc c042 220e e022 1804 42e4 7847 ff00     ..B..""....BGx..
    83d3:	0408 0002 2c00 0e00 0000 1804 41e6 4c42     .....,.......ABL
    83e3:	0070 08ff 0004 8024 4284 20a2 1202 55e2     p.....$..B. ...U
    83f3:	4955 5454 0262 0002 4400 aa44 0000 0000     UITTb....DD.....
    8403:	417f c951 4541 017d 0001 4444 4044 e022     .AQ.AE}...DDD@".
    8413:	2525 d555 494b 5549 6555 0045 2402 0280     %%U.KIIUUeE..$..
    8423:	e022 e010 5253 5252 415e 7f41 0000 e200     "...SRRR^AA.....
    8433:	2222 e022 4fe0 6040 ff00 8080 00ff 0000     """..O@`........
    8443:	220e 000e e0e2 2220 2222 7fa2 2222 2222     .".... """..""""
    8453:	0020 2222 222e 2022 4f40 4848 df48 4848      .""."" @OHHH.HH
    8463:	4f48 0040 000c 040e 004c 4040 4758 c040     HO@.....L.@@XG@.
    8473:	4340 405c 0040 2a22 6a22 2022 6380 8c00     @C\@@."*"j" .c..
    8483:	84b4 9c84 07e4 0000 0868 8a88 002e 4840     ........h.....@H
    8493:	5448 c265 5844 4140 0040 6a22 4422 6048     HTe.DX@A@."j"DH`
    84a3:	409f 8100 b886 8186 8080 00ff 80e0 0000     .@..............
    84b3:	e0a2 2220 62a2 2222 6222 22a2 0020 2222     .. ".b"""b." .""
    84c3:	2222 2022 8901 0969 ff09 0909 c929 0001     """ ..i.....)...
    84d3:	0000 000e 0000 4990 0000 0808 ff08 0808     .......I........
    84e3:	0008 002c 0e00 0000 4990 ff00 8080 8080     ..,......I......
    84f3:	8080 0080 0e2c 2222 2022 4808 8828 0c4b     ....,.""" .H(.K.
    8503:	08fb 0808 0008 4822 0800 2042 4990 0000     ......"H..B .I..
    8513:	8cf0 8083 8c83 00f0 002c 4822 2042 4868     ........,."HB hH
    8523:	4848 cf48 4848 4848 0068 0200 002e 0000     HHH.HHHHh.......
    8533:	4078 4e41 c040 4e40 4041 0078 8024 0000     x@AN@.@NA@x.$...
    8543:	2084 4070 415f c141 4242 4442 0070 e200     . p@_AA.BBBDp...
    8553:	2222 e022 5f90 0000 2420 2022 20ff 0020     """.._.. $" .  .
    8563:	402e 2200 00e0 81f1 95bd 9595 9595 8197     .@."............
    8573:	00f1 0000 2202 00c0 5f90 0000 0000 08ff     ....."..._......
    8583:	0808 0008 422e e222 2022 4241 4ac7 0071     .....B"." AB.Jq.
    8593:	ff00 0000 0003 e000 0e00 e022 5f90 0000     ..........".._..
    85a3:	00ff 7f00 0000 00ff 422e 0cc0 e000 5f90     .........B....._
    85b3:	0000 0c70 6182 7806 0000 422e 8824 2042     ..p..a.x...B$.B 
    85c3:	0e01 1f00 6281 1804 0861 0007 4e22 2222     .....b..a..."N""
    85d3:	00e0 5f90 8800 bf88 8888 00ff 0000 402e     ..._...........@
    85e3:	000e c0c2 5f90 0000 888f 8888 f888 0000     ....._..........
    85f3:	402e 22e2 e022 0808 ae29 bfa0 0a04 2011     .@.""...)...... 
    8603:	0000 8224 002e 4008 9497 9494 9494 9794     ..$....@........
    8613:	8080 00ff 8888 8888 e022 ff00 9090 9197     ........".......
    8623:	9191 9293 00f2 0068 22e2 e022 ff00 9292     ......h.."".....
    8633:	9292 939e 9292 00f2 222e 0844 c042 494f     ........."D.B.OI
    8643:	ff49 4949 ff49 4949 0079 4802 0e00 e002     I.III.IIy..H....
    8653:	929e f392 0000 f00f 0100 0000 2c22 222e     ............",."
    8663:	6048 087b 0808 ff08 0808 0808 007b 22e2     H`{.........{.."
    8673:	222e e022 4f88 8000 8080 a09f 80c0 0000     .""..O..........
    8683:	222c a22a 2022 fe20 3e21 8080 80ff e898     ,"*."  .!>......
    8693:	000f 8606 000e e022 f926 2320 003c 8cb0     ......".&. #<...
    86a3:	8c83 00f0 8424 2c20 200c 8a8b 928a 82e2     ....$. ,. ......
    86b3:	8a82 8a8a 00fb 22e2 2222 e022 2120 20fe     ......."""". !. 
    86c3:	3f20 7f00 4040 007f 0268 0c2e c044 7f00      ?..@@..h...D...
    86d3:	4c48 494a 49f8 4c4a 0070 2268 8444 2042     HLJI.IJLp.h"D.B 
    86e3:	4f88 2000 fc23 2020 2020 003f 2a2c 2222     .O. #.    ?.,*""
    86f3:	a0aa 8985 89f1 8b89 898d 25e1 003d 0200     ...........%=...
    8703:	002e 0000 7010 1e11 14f5 9414 1754 0010     .....p......T...
    8713:	a224 442a 20a2 c504 95a5 8b89 9589 c5a5     $.*D. ..........
    8723:	0004 2222 222e 2022 4448 4d43 1070 1314     ..""."" HDCMp...
    8733:	ff10 0010 0048 02c0 002e 0b08 2a1a 0aca     ....H........*..
    8743:	1212 2352 0018 220e 2222 002e 8808 a989     ..R#..."""......
    8753:	9faa a8a8 0ac9 000c 0288 002e 0000 5533     ..............3U
    8763:	1299 0022 007f 0100 00ff 2422 c840 e080     .."......."$@...
    8773:	ff08 8888 aaaa 8899 ff88 0008 8808 aa88     ................
    8783:	80ae e31c 710e 2000 ff20 2020 003f 2c6a     .....q.  .  ?.j,
    8793:	6860 e022 2a11 09c4 0011 2a11 09c4 0011     `h"..*.....*....
    87a3:	a2aa aa22 20a2 4941 ff49 4949 ff41 9880     ..".. AII.IIA...
    87b3:	00e7 4802 0e00 0088 2420 2724 2424 fe20     ...H.... $$'$$ .
    87c3:	a021 0060 4c04 0088 c0c2 4f88 0000 8888     !.`..L.....O....
    87d3:	ff88 8888 0088 222c aa2a 2022 ff84 8484     ......,"*." ....
    87e3:	84ff 7f00 0000 00ff 0068 00e0 e022 2222     ........h...".""
    87f3:	222f 2022 23fc a720 0060 8006 2400 c0c2     /"" .# .`....$..
    8803:	4808 484f 0849 ff20 2020 003f 222e 68c2     .HOHI. .  ?..".h
    8813:	e002 2222 24ff 8080 ff80 8080 0080 e002     .."".$..........
    8823:	2e22 2022 4a0a 4a4b fa4a 4a4a 4a4f 000a     "." .JKJJ.JJOJ..
    8833:	0800 2200 00e0 4b40 4a4a fa4a 4a4a 4b4a     ..."..@KJJJ.JJJK
    8843:	0040 220e 2222 002e 2222 24ff ff00 8080     @..""".."".$....
    8853:	8080 00ff e002 220e e022 5212 5653 5af6     .......""..RSV.Z
    8863:	525a 5232 0092 8800 aa88 00ae 2222 24ff     ZR2R........"".$
    8873:	4222 7f44 8844 0088 e002 0e00 e022 4909     "BD.D......."..I
    8883:	4b49 fd4b 494d 2a59 004a 0e00 2222 e022     IKK.MIY*J...""".
    8893:	4040 407f ff00 8488 00ff 0000 8844 0068     @@.@........D.h.
    88a3:	e0e2 ff10 8010 81ff 9888 0ee9 0000 864c     ..............L.
    88b3:	a482 20a2 ff22 0224 fe21 2020 003f 0000     ... ".$.!.  ?...
    88c3:	062e 2084 e0e2 ff22 0024 407f c040 4040     ... ..".$..@@.@@
    88d3:	0040 062e 0080 0000 ff21 0022 8480 8484     @.......!.".....
    88e3:	8484 00ff 002e 2222 e022 ff10 0810 087f     ......""".......
    88f3:	ff10 2210 003e 804c 22e2 e022 ff10 1110     ...">.L.."".....
    8903:	8900 988e c8af 000f 804c 4802 e022 ff22     ........L..H".".
    8913:	0024 8f88 a898 88cf 000f 022e 2cc0 e022     $............,".
    8923:	8080 92ff 9292 9292 80ff 0080 c444 4444     ............D.DD
    8933:	80e8 4941 e949 4f49 e949 4949 0041 0200     ..AII.IOI.IIA...
    8943:	002e 0000 2222 22fe 2222 2222 22fe 0022     ....""."""""."".
    8953:	4822 0800 2042 4744 e444 5c44 e444 4444     "H..B DGD.D\D.DD
    8963:	0044 220e 2222 0022 8798 ff80 8080 ff80     D.."""".........
    8973:	8380 009c 2e22 2e22 2022 4840 e848 5948     ...."."." @HH.HY
    8983:	ea49 484c 0040 4a24 22a2 2022 2621 24ff     I.LH@.$J."" !&.$
    8993:	8022 e49c 8784 0080 e000 0200 002e 2621     ".............!&
    89a3:	24ff 0022 ff00 0408 0002 e000 0e00 0000     .$".............
    89b3:	2621 24ff ff00 8080 00ff 0001 e000 0068     !&.$..........h.
    89c3:	e0e2 ff23 0022 86f8 8081 8681 00f8 000e     ..#."...........
    89d3:	4822 2042 4f88 2000 2628 2020 20ff 0020     "HB .O. (&  .  .
    89e3:	222c aa22 20a2 91ff 9191 f191 9191 9f91     ,"".. ..........
    89f3:	0080 22e2 222e 2022 5f40 5252 ff52 5252     ..."."" @_RRR.RR
    8a03:	5e52 0040 a422 22c4 2022 bf80 a4a4 ffa4     R^@.".."" ......
    8a13:	a4a4 bfa4 0080 888e 8a88 80ae ff38 0422     ............8.".
    8a23:	fc23 2020 043f 0002 060e 2280 00e0 909f     #.  ?......"....
    8a33:	fe91 9090 ff90 9191 009f 22ea 2222 e022     ..........."""".
    8a43:	ff00 8480 8484 84bf 8485 0080 2268 e222     ............h"".
    8a53:	202a ff00 8888 8e89 8ef8 98a9 0088 2468     * ............h$
    8a63:	0080 2084 3f00 2220 f822 2126 60a6 0020     ... .? "".&!.` .
    8a73:	0068 4822 e042 4241 5847 42e2 4f42 4242     h."HB.ABGX.BBOBB
    8a83:	0042 e000 2e22 2022 9f80 9292 d2b2 9292     B..."." ........
    8a93:	9f92 0080 220e 2222 002e 4442 ea5f 4a4a     ....."""..BD_.JJ
    8aa3:	4a4a 4f4a 0040 e800 8a88 00ae 4742 6158     JJJO@.......BGXa
    8ab3:	49c9 4b49 494d 0041 000e 2e00 0000 909f     .IIKMIA.........
    8ac3:	9f90 d0b0 9f90 9090 009f 0ce0 0c00 e002     ................
    8ad3:	bf80 a0a0 efa0 a0a0 bfa0 0080 242a 4448     ............*$HD
    8ae3:	202a 80ff bf80 a4a4 a7a4 a4a4 0084 a2e2     * ..............
    8af3:	2a22 2022 4a48 6b52 ca4a 6a4a 4a52 0048     "*" HJRkJ.JjRJH.
    8b03:	0800 aaaa 00e0 2525 3129 21e1 3721 2529     ......%%)1.!!7)%
    8b13:	0025 8400 2e02 0000 4140 50fe 414c 417e     %.......@A.PLA~A
    8b23:	5844 0040 2268 0848 2042 4f88 2000 2c23     DX@.h"H.B .O. #,
    8b33:	2cf0 2023 0000 2a2c 2222 202a 8c82 91f2     .,# ..,*""* ....
    8b43:	9c93 7f80 0000 00ff 2c00 0800 e022 9c82     .........,.."...
    8b53:	91f2 809e ff80 8884 0090 4802 0e00 e022     ...........H..".
    8b63:	3f00 2222 2023 27f8 67a0 0020 0268 02e0     .?""# .'.g .h...
    8b73:	c0c2 4202 4a52 fe43 4a43 4252 0002 4822     ...BRJC.CJRB.."H
    8b83:	0800 2042 5740 5555 ff55 5555 5d55 0041     ..B @WUUU.UUU]A.
    8b93:	4422 8480 a04a 744c 5fc4 2045 20ff 003f     "D..J.Lt._E . ?.
    8ba3:	0000 8e88 8006 e0e2 e898 8c8b 88ff ff00     ................
    8bb3:	9880 00e7 0248 0ee0 0088 4501 4545 59e5     ....H......EEE.Y
    8bc3:	9549 99a5 0001 4822 e200 6022 1010 11fe     I....."H.."`....
    8bd3:	d016 0010 007f 00ff 4822 c042 e082 4f88     ........"HB....O
    8be3:	8000 fc83 9090 9090 009f 2a2c 2222 a0aa     ..........,*""..
    8bf3:	24fc 2824 0148 24fc 2424 004c 8888 888e     .$$(H..$$$L.....
    8c03:	8088 8988 a999 8fc9 8989 91a9 0088 2222     ..............""
    8c13:	222e 2022 7f00 ff00 0808 ff00 1008 0021     ."" ..........!.
    8c23:	2e2e 0e44 e022 1f00 1010 f710 5050 5f50     ..D.".......PPP_
    8c33:	0000 442a 8480 204a 007e 00ff a0bf ffa0     ..*D..J ~.......
    8c43:	a0a0 00bf 8006 0ec0 c004 2110 0141 f701     ...........!A...
    8c53:	0101 2141 0010 2222 222e 2022 6212 0202     ..A!..""."" .b..
    8c63:	f712 0202 6202 0012 4422 8480 2042 c929     .....b.."D..B ).
    8c73:	0909 e92b 1111 c121 0021 2422 0280 e022     ..+...!.!."$..".
    8c83:	4404 0734 fc04 0704 6414 0004 4822 0e00     .D4......d.."H..
    8c93:	e022 8909 0969 f909 0909 c929 000f 2222     "...i.....)...""
    8ca3:	2222 e022 f901 a9a9 afa9 a9a9 f9a9 0001     """.............
    8cb3:	0000 000e 0000 407f 047f 8484 ff84 8484     .......@........
    8cc3:	0084 8088 2e02 0000 407f 7f40 1000 ff10     .........@@.....
    8cd3:	1010 0000 4cc4 2e22 2022 407f 7f40 8080     .....L"." .@@...
    8ce3:	ff80 8488 0082 8888 0e00 0000 223e 2222     ............>"""
    8cf3:	ff22 2222 2322 003e 2222 242e 6048 223f     "."""#>."".$H`?"
    8d03:	ff22 2222 ff22 2222 003f 2ee2 2e22 e022     ".""".""?...".".
    8d13:	80ff 9291 9894 90bf 8090 00ff 22e2 a22a     ............."*.
    8d23:	e022 fa03 8a8a 8a8a 8a8a 03fa 0000 22e2     ".............."
    8d33:	2222 002e 80ff 9790 9494 9794 8090 00ff     ""..............
    8d43:	08e0 8888 e022 f203 9292 9f92 9292 f292     ...."...........
    8d53:	0003 00c0 000e c004 407f 7f40 c020 4948     .........@@. .HI
    8d63:	4c4a 0040 8888 a204 e022 80ff 9190 b896     JL@.....".......
    8d73:	9196 8090 00ff a2e2 2222 e0a2 407f 807f     ........""...@..
    8d83:	ff80 8182 e998 000e 8288 24c0 2084 407f     ...........$. .@
    8d93:	007f bc84 8484 fc84 0007 8088 8a88 e0a2     ................
    8da3:	407f 7f40 1800 ca29 300c 0000 8888 440c     .@@...)..0.....D
    8db3:	6048 003f 00ff 093f e919 2829 002f c8c4     H`?...?...)(/...
    8dc3:	0280 e022 007f 00ff 107f 49e8 4c4a 0040     .."........IJL@.
    8dd3:	c4c4 4ac0 6022 1272 161c f415 1414 1514     ...J"`r.........
    8de3:	0076 2222 442c 0080 203f 20ff 003f 84ff     v."",D..? . ?...
    8df3:	00ff 0001 e880 8086 e0e2 80ff 9f80 9191     ................
    8e03:	9f91 8080 00ff 22e2 2222 e022 2969 2929     ......."""".i)))
    8e13:	e929 2929 2929 006f 22c2 2222 6022 80ff     ).))))o..""""`..
    8e23:	bf80 8080 00ff 007f 00ff 48a2 a042 e0a2     ...........HB...
    8e33:	90ff 8c8b 80b3 00ff 007f 00ff 00e8 e082     ................
    8e43:	e0a2 80ff 8e91 80b1 8e91 80b1 00ff 80e0     ................
    8e53:	8080 e0a2 407f 4444 f348 4848 4044 007f     .....@DDH.HHD@..
    8e63:	44e0 8880 e042 e111 494f 4949 497f 4949     .D..B...OIII.III
    8e73:	0041 0000 e000 0000 2414 27e4 ff24 2724     A........$.'$.$'
    8e83:	2424 0004 8044 000e 4084 e414 2724 fc24     $$..D....@..$'$.
    8e93:	2724 2424 0004 4822 0e00 e022 5202 5252     $'$$.."H.."..RRR
    8ea3:	7e53 9292 9292 0002 6a02 2222 202c a89b     S~.......j"", ..
    8eb3:	00cf 4808 7f48 8888 0008 222c aa2a 20aa     ...HH.....,"*.. 
    8ec3:	4908 4949 7f49 4949 8989 0008 220e 2222     .IIII.II....."""
    8ed3:	002e e018 203f 1820 20e0 203f 0020 e000     ....?  .. ?  ...
    8ee3:	2200 00e0 4f88 0800 4848 7f48 8888 0008     ."...O..HHH.....
    8ef3:	222c 2a22 2022 1212 5b54 7050 9b90 1294     ,""*" ..T[Pp....
    8f03:	0012 6800 0e00 0000 4f88 2000 52d1 5452     ...h.....O. .RRT
    8f13:	5854 0041 222c aa2a a0aa 3f08 2ac0 2a2a     TXA.,"*....?.***
    8f23:	2aff 2a2a 002b 000e e000 c044 3f08 08c0     .***+.....D..?..
    8f33:	4e4a ca7a 4a4a 004b 000e 8400 0068 7f01     JNz.JJK.....h...
    8f43:	5151 5151 9151 919f 0001 4822 0000 0000     QQQQQ....."H....
    8f53:	7f01 5151 5151 9151 919f 0001 0000 0800     ..QQQQQ.........
    8f63:	2042 3f08 00c0 2320 ff2c 232c 0020 000e     B .?.. #,.,# ...
    8f73:	0e80 8000 3f08 00c0 8988 88fe 8f88 0080     .....?..........
    8f83:	020e 222e 202e 3f08 00c0 1010 f817 9017     ...". .?........
    8f93:	0050 000e 002c 200c 3f08 10c0 1310 13fc     P...,.. .?......
    8fa3:	9010 0050 020e 0ec0 e022 447f 8444 0084     ..P....."..DD...
    8fb3:	4404 4444 007f 22e2 2222 e022 3f08 10c0     .DDD...""""..?..
    8fc3:	1010 10ff 5691 0010 000e 4822 c042 9982     .....V...."HB...
    8fd3:	cfa8 4000 404f 887f 0088 8424 aa2a a0aa     ...@O@....$.*...
    8fe3:	3f08 00c0 213f ff21 2121 003f 000e 0e00     .?..?!!.!!?.....
    8ff3:	0000 3f08 12c0 22e2 ff22 2222 0022 000e     ...?...""."""...
    9003:	0e00 0000 3f08 04c0 4444 7f44 8484 0004     .....?..DDD.....
    9013:	000e 2e22 2022 3f08 14c0 44e4 445f 4444     .."." .?...D_DDD
    9023:	0047 000e 002c e022 3f08 00c0 2f10 8040     G...,."..?.../@.
    9033:	2f40 0010 000e 0068 000e 3f08 08c0 2117     @/....h....?...!
    9043:	41c1 1222 0008 000e 22e2 e022 3f08 08c0     .A"......""..?..
    9053:	c734 0404 37c4 0008 000e 0268 002e 1010     4....7....h.....
    9063:	7c20 1180 24fc 4424 004c 8888 888e 8088      |...$$DL.......
    9073:	3f08 00c0 807f ff00 8080 00ff 040e 0ec8     .?..............
    9083:	8008 3f08 00c0 7f40 c848 4848 004f 000e     ...?..@.H.HHO...
    9093:	0068 e022 3f08 00c0 1820 fc03 0803 0030     h."..?.. .....0.
    90a3:	000e 002c 200c 3f08 00c0 23a0 20fc 2026     ..,.. .?...#. & 
    90b3:	003f 000e 0068 e022 7f00 4949 c9c9 4949     ?...h."...II..II
    90c3:	7f49 0000 220e 2222 002e 3f08 10c0 9292     I...."""...?....
    90d3:	92ff fe92 0010 000e 8006 0000 3f00 2020     .............?  
    90e3:	603f 20bf 3f20 0000 222e e2e2 202e 407f     ?`.  ?..."... .@
    90f3:	cf40 48c8 4f48 4040 007f 08e0 8888 e022     @..HHO@@......".
    9103:	3f08 00c0 00ff 38c1 fe01 0000 020e 24c8     .?.....8.......$
    9113:	2084 7f00 4948 4949 4949 8989 0008 0e68     . ..HIIIII....h.
    9123:	2222 002e c721 0018 8808 8888 888f 0008     ""..!...........
    9133:	000e 2200 00e0 7f02 4242 4ad2 4242 7f42     ..."....BB.JBBB.
    9143:	0002 002c 0084 002e 1010 2929 8f49 2949     ..,.......))I.I)
    9153:	1029 0010 2222 222e 2022 1212 3222 9253     )...""."" .."2S.
    9163:	3252 1223 0012 6a02 4422 6048 8a02 528a     R2#....j"DH`...R
    9173:	2f52 5222 8a4a 0002 8244 002e 4084 1110     R/"RJ...D....@..
    9183:	2929 8949 2949 1129 0010 220e 2222 002e     ))I.I))...."""..
    9193:	2442 ff00 0000 00ff 2424 0042 4822 e200     B$......$$B."H..
    91a3:	e022 1310 2020 9f40 2242 1222 0010 222e     "...  @.B""...."
    91b3:	222e 2022 0808 1710 c020 1720 0810 0008     ."" .... . .....
    91c3:	8024 80a4 2084 4a48 aaaa 1312 aa12 4baa     $.... HJ.......K
    91d3:	0048 0000 000e 004c 1111 2729 9f41 2741     H.....L...)'A.A'
    91e3:	1129 0011 0000 000e 0000 2f10 8948 2f49     )........../H.I/
    91f3:	0010 007f 00ff 220e e022 e082 92ff ff92     ......."".......
    9203:	ff00 8080 00ff 0000 2ee0 000e e0e2 92ff     ................
    9213:	ff92 2000 ff20 2020 003f 2ee0 c002 e002     ...  .  ?.......
    9223:	0909 e111 8781 f181 0909 0019 4822 080e     ............"H..
    9233:	2042 4949 e151 4741 4141 0979 0019 4022     B IIQ.AGAAy..."@
    9243:	002e 2042 2f10 48c8 4a4b 4a4a 685b 0008     ..B ./.HKJJJ[h..
    9253:	0068 2ae2 e0a2 3008 4acf 4a4a 4f4a 4040     h..*...0.JJJJO@@
    9263:	007f 8800 8a88 e022 2bf8 2a2a 4a2a 4a4a     ......"..+***JJJ
    9273:	8b4a 0098 aa0e aaaa 00ae ff20 3f20 7f00     J......... . ?..
    9283:	4949 7f49 0000 0e68 2222 e022 df20 9090     III...h.""". ...
    9293:	9790 9090 1ff0 0000 4422 8480 2042 3008     ........"D..B .0
    92a3:	40cf 444a 404a 404f 007f 8800 8a88 e0a2     .@JDJ@O@........
    92b3:	1111 ca2b 4646 524a 0362 0000 e200 2222     ..+.FFJRb.....""
    92c3:	002e 1202 d525 4949 5549 0265 0002 e200     ....%.IIIUe.....
    92d3:	2222 00e0 2202 2422 c955 544a 0464 0007     ""...""$U.JTd...
    92e3:	2200 a422 0048 d524 5555 5f55 5555 1f75     ."".H.$.UUU_UUu.
    92f3:	0004 0200 002e 0000 3f10 52d2 5e52 5252     .........?.RR^RR
    9303:	7252 001e 220e 2222 e022 3340 00ff 1010     Rr..."""".@3....
    9313:	ff10 1010 0010 e0c0 2e02 0022 6380 3f00     .........."..c.?
    9323:	2121 21ff 2121 003f 0068 e000 0000 3340     !!.!!!?.h.....@3
    9333:	00ff 2a24 e031 2621 0038 e0c0 4822 2042     ..$*1.!&8..."HB 
    9343:	6380 2000 3c23 ff00 130c 0020 0c68 2e00     .c. #<.... .h...
    9353:	c000 7f00 4440 4444 44df 4444 0040 2268     ....@DDD.DDD@.h"
    9363:	e222 2022 7f00 4444 c544 455e 4444 0044     "." ..DDD.^EDDD.
    9373:	2468 0080 2084 4e41 4040 c07f 7f40 4840     h$... AN@@..@.@H
    9383:	0047 2c00 2e00 0000 7c40 c043 7c43 0040     G..,....@|C.C|@.
    9393:	007f 00ff 4822 2042 e082 4242 5467 c848     ...."HB ..BBgTH.
    93a3:	5448 4267 0042 8006 0000 00e0 4444 5448     HTgBB.......DDHT
    93b3:	c142 5442 4448 0044 4422 8480 2042 4140     B.BTHDD."D..B @A
    93c3:	4f42 c070 4678 4641 0058 2e82 4024 2084     BOp.xFAFX...$@. 
    93d3:	6380 f008 4140 415e 4840 0070 2268 0848     .c..@A^A@Hp.h"H.
    93e3:	2042 4f40 5868 c848 5848 4868 0048 0068     B @OhXH.HXhHH.h.
    93f3:	0000 0000 6380 2200 2322 23fe 3e22 0002     .....c.""#.#">..
    9403:	2268 0848 2042 4840 4a44 c271 5944 4c42     h"H.B @HDJq.DYBL
    9413:	0040 4822 8024 2084 4444 754c c444 4544     @."H$.. DDLuD.DE
    9423:	5068 0048 4822 0e00 e022 7a42 4b4a ca4e     hPH."H..".BzJKN.
    9433:	4a4a 4a4b 004a aa22 4a44 2022 409f 8808     JJKJJ.".DJ" .@..
    9443:	8a89 bf8c 8088 00ff 88e0 2e02 e002 409f     ...............@
    9453:	9f00 9090 9f90 8080 00ff 08e0 8888 e022     ..............".
    9463:	803f 1650 9292 9e92 8083 00ff 88e0 a28a     ?.P.............
    9473:	e0e0 2420 64a4 3f24 6424 24a4 0020 8888     .. $.d$?$d.$ ...
    9483:	888e 8088 2202 7fa2 2222 7f22 22a2 0002     ....."..""".."..
    9493:	4802 0e00 0000 2202 62a2 3e23 6223 22a2     .H.....".b#>#b."
